
kernel.elf:     file format elf32-littlearm


Disassembly of section .text:

08010000 <vector_table>:
 8010000:	00 00 02 20 05 92 01 08 05 9a 01 08 05 9a 01 08     ... ............
 8010010:	05 9a 01 08 05 9a 01 08 05 9a 01 08 05 9a 01 08     ................
 8010020:	05 9a 01 08 05 9a 01 08 05 9a 01 08 43 9a 01 08     ............C...
 8010030:	05 9a 01 08 05 9a 01 08 e9 85 01 08 d1 96 01 08     ................
 8010040:	05 9a 01 08 05 9a 01 08 05 9a 01 08 05 9a 01 08     ................
 8010050:	05 9a 01 08 05 9a 01 08 05 9a 01 08 05 9a 01 08     ................
 8010060:	05 9a 01 08 05 9a 01 08 05 9a 01 08 05 9a 01 08     ................
 8010070:	05 9a 01 08 05 9a 01 08 05 9a 01 08 05 9a 01 08     ................
 8010080:	05 9a 01 08 05 9a 01 08 05 9a 01 08 05 9a 01 08     ................
 8010090:	05 9a 01 08 05 9a 01 08 05 9a 01 08 05 9a 01 08     ................
 80100a0:	05 9a 01 08 05 9a 01 08 05 9a 01 08 05 9a 01 08     ................
 80100b0:	95 83 01 08 05 9a 01 08 05 9a 01 08 05 9a 01 08     ................
 80100c0:	05 9a 01 08 05 9a 01 08 05 9a 01 08 05 9a 01 08     ................
 80100d0:	05 9a 01 08 c5 99 01 08 05 9a 01 08 05 9a 01 08     ................
 80100e0:	05 9a 01 08 05 9a 01 08 05 9a 01 08 05 9a 01 08     ................
 80100f0:	05 9a 01 08 05 9a 01 08 05 9a 01 08 05 9a 01 08     ................
 8010100:	05 9a 01 08 05 9a 01 08 05 9a 01 08 05 9a 01 08     ................
 8010110:	05 9a 01 08 05 9a 01 08 05 9a 01 08 05 9a 01 08     ................
 8010120:	05 9a 01 08 05 9a 01 08 05 9a 01 08 05 9a 01 08     ................
 8010130:	05 9a 01 08 05 9a 01 08 05 9a 01 08 05 9a 01 08     ................
 8010140:	05 9a 01 08 05 9a 01 08 05 9a 01 08 69 48 01 08     ............iH..
 8010150:	05 9a 01 08 05 9a 01 08 05 9a 01 08 05 9a 01 08     ................
 8010160:	05 9a 01 08 05 9a 01 08 05 9a 01 08 05 9a 01 08     ................
 8010170:	05 9a 01 08 05 9a 01 08 05 9a 01 08 05 9a 01 08     ................
 8010180:	05 9a 01 08 05 9a 01 08 05 9a 01 08 05 9a 01 08     ................
 8010190:	05 9a 01 08 05 9a 01 08                             ........

08010198 <_prtl10>:
 8010198:	b084      	sub	sp, #16
 801019a:	2300      	movs	r3, #0
 801019c:	f88d 3004 	strb.w	r3, [sp, #4]
 80101a0:	2800      	cmp	r0, #0
 80101a2:	db15      	blt.n	80101d0 <_prtl10+0x38>
 80101a4:	4a2a      	ldr	r2, [pc, #168]	@ (8010250 <_prtl10+0xb8>)
 80101a6:	fb82 3200 	smull	r3, r2, r2, r0
 80101aa:	17c3      	asrs	r3, r0, #31
 80101ac:	ebc3 03a2 	rsb	r3, r3, r2, asr #2
 80101b0:	eb03 0383 	add.w	r3, r3, r3, lsl #2
 80101b4:	eba0 0343 	sub.w	r3, r0, r3, lsl #1
 80101b8:	b2db      	uxtb	r3, r3
 80101ba:	3330      	adds	r3, #48	@ 0x30
 80101bc:	b2db      	uxtb	r3, r3
 80101be:	f88d 3005 	strb.w	r3, [sp, #5]
 80101c2:	2800      	cmp	r0, #0
 80101c4:	db13      	blt.n	80101ee <_prtl10+0x56>
 80101c6:	230a      	movs	r3, #10
 80101c8:	fb90 f0f3 	sdiv	r0, r0, r3
 80101cc:	2202      	movs	r2, #2
 80101ce:	e024      	b.n	801021a <_prtl10+0x82>
 80101d0:	4a1f      	ldr	r2, [pc, #124]	@ (8010250 <_prtl10+0xb8>)
 80101d2:	fb82 3200 	smull	r3, r2, r2, r0
 80101d6:	17c3      	asrs	r3, r0, #31
 80101d8:	ebc3 03a2 	rsb	r3, r3, r2, asr #2
 80101dc:	eb03 0383 	add.w	r3, r3, r3, lsl #2
 80101e0:	eba0 0343 	sub.w	r3, r0, r3, lsl #1
 80101e4:	b2db      	uxtb	r3, r3
 80101e6:	f1c3 0330 	rsb	r3, r3, #48	@ 0x30
 80101ea:	b2db      	uxtb	r3, r3
 80101ec:	e7e7      	b.n	80101be <_prtl10+0x26>
 80101ee:	f06f 0309 	mvn.w	r3, #9
 80101f2:	e7e9      	b.n	80101c8 <_prtl10+0x30>
 80101f4:	4b16      	ldr	r3, [pc, #88]	@ (8010250 <_prtl10+0xb8>)
 80101f6:	fb83 3c00 	smull	r3, ip, r3, r0
 80101fa:	17c3      	asrs	r3, r0, #31
 80101fc:	ebc3 03ac 	rsb	r3, r3, ip, asr #2
 8010200:	469c      	mov	ip, r3
 8010202:	eb03 0383 	add.w	r3, r3, r3, lsl #2
 8010206:	eba0 0343 	sub.w	r3, r0, r3, lsl #1
 801020a:	3330      	adds	r3, #48	@ 0x30
 801020c:	f102 0010 	add.w	r0, r2, #16
 8010210:	4468      	add	r0, sp
 8010212:	f800 3c0c 	strb.w	r3, [r0, #-12]
 8010216:	4660      	mov	r0, ip
 8010218:	3201      	adds	r2, #1
 801021a:	2a0a      	cmp	r2, #10
 801021c:	ddea      	ble.n	80101f4 <_prtl10+0x5c>
 801021e:	230a      	movs	r3, #10
 8010220:	e000      	b.n	8010224 <_prtl10+0x8c>
 8010222:	3b01      	subs	r3, #1
 8010224:	f103 0210 	add.w	r2, r3, #16
 8010228:	446a      	add	r2, sp
 801022a:	f812 2c0c 	ldrb.w	r2, [r2, #-12]
 801022e:	2a30      	cmp	r2, #48	@ 0x30
 8010230:	d0f7      	beq.n	8010222 <_prtl10+0x8a>
 8010232:	b94b      	cbnz	r3, 8010248 <_prtl10+0xb0>
 8010234:	3301      	adds	r3, #1
 8010236:	e007      	b.n	8010248 <_prtl10+0xb0>
 8010238:	f103 0210 	add.w	r2, r3, #16
 801023c:	446a      	add	r2, sp
 801023e:	f812 2c0c 	ldrb.w	r2, [r2, #-12]
 8010242:	f801 2b01 	strb.w	r2, [r1], #1
 8010246:	3b01      	subs	r3, #1
 8010248:	2b00      	cmp	r3, #0
 801024a:	daf5      	bge.n	8010238 <_prtl10+0xa0>
 801024c:	b004      	add	sp, #16
 801024e:	4770      	bx	lr
 8010250:	66666667 	.word	0x66666667

08010254 <_prtl8>:
 8010254:	b084      	sub	sp, #16
 8010256:	2300      	movs	r3, #0
 8010258:	f88d 3004 	strb.w	r3, [sp, #4]
 801025c:	2301      	movs	r3, #1
 801025e:	e009      	b.n	8010274 <_prtl8+0x20>
 8010260:	f000 0207 	and.w	r2, r0, #7
 8010264:	3230      	adds	r2, #48	@ 0x30
 8010266:	f103 0c10 	add.w	ip, r3, #16
 801026a:	44ec      	add	ip, sp
 801026c:	f80c 2c0c 	strb.w	r2, [ip, #-12]
 8010270:	10c0      	asrs	r0, r0, #3
 8010272:	3301      	adds	r3, #1
 8010274:	2b0b      	cmp	r3, #11
 8010276:	ddf3      	ble.n	8010260 <_prtl8+0xc>
 8010278:	f89d 300f 	ldrb.w	r3, [sp, #15]
 801027c:	f003 0333 	and.w	r3, r3, #51	@ 0x33
 8010280:	f88d 300f 	strb.w	r3, [sp, #15]
 8010284:	230b      	movs	r3, #11
 8010286:	e000      	b.n	801028a <_prtl8+0x36>
 8010288:	3b01      	subs	r3, #1
 801028a:	f103 0210 	add.w	r2, r3, #16
 801028e:	446a      	add	r2, sp
 8010290:	f812 2c0c 	ldrb.w	r2, [r2, #-12]
 8010294:	2a30      	cmp	r2, #48	@ 0x30
 8010296:	d0f7      	beq.n	8010288 <_prtl8+0x34>
 8010298:	b94b      	cbnz	r3, 80102ae <_prtl8+0x5a>
 801029a:	3301      	adds	r3, #1
 801029c:	e007      	b.n	80102ae <_prtl8+0x5a>
 801029e:	f103 0210 	add.w	r2, r3, #16
 80102a2:	446a      	add	r2, sp
 80102a4:	f812 2c0c 	ldrb.w	r2, [r2, #-12]
 80102a8:	f801 2b01 	strb.w	r2, [r1], #1
 80102ac:	3b01      	subs	r3, #1
 80102ae:	2b00      	cmp	r3, #0
 80102b0:	daf5      	bge.n	801029e <_prtl8+0x4a>
 80102b2:	b004      	add	sp, #16
 80102b4:	4770      	bx	lr

080102b6 <_prtl16>:
 80102b6:	b410      	push	{r4}
 80102b8:	b085      	sub	sp, #20
 80102ba:	2300      	movs	r3, #0
 80102bc:	f88d 3004 	strb.w	r3, [sp, #4]
 80102c0:	2301      	movs	r3, #1
 80102c2:	e00b      	b.n	80102dc <_prtl16+0x26>
 80102c4:	f000 020f 	and.w	r2, r0, #15
 80102c8:	4c13      	ldr	r4, [pc, #76]	@ (8010318 <_prtl16+0x62>)
 80102ca:	f814 c002 	ldrb.w	ip, [r4, r2]
 80102ce:	f103 0210 	add.w	r2, r3, #16
 80102d2:	446a      	add	r2, sp
 80102d4:	f802 cc0c 	strb.w	ip, [r2, #-12]
 80102d8:	1100      	asrs	r0, r0, #4
 80102da:	3301      	adds	r3, #1
 80102dc:	2b08      	cmp	r3, #8
 80102de:	ddf1      	ble.n	80102c4 <_prtl16+0xe>
 80102e0:	2308      	movs	r3, #8
 80102e2:	e000      	b.n	80102e6 <_prtl16+0x30>
 80102e4:	3b01      	subs	r3, #1
 80102e6:	f103 0210 	add.w	r2, r3, #16
 80102ea:	446a      	add	r2, sp
 80102ec:	f812 2c0c 	ldrb.w	r2, [r2, #-12]
 80102f0:	2a30      	cmp	r2, #48	@ 0x30
 80102f2:	d0f7      	beq.n	80102e4 <_prtl16+0x2e>
 80102f4:	b94b      	cbnz	r3, 801030a <_prtl16+0x54>
 80102f6:	3301      	adds	r3, #1
 80102f8:	e007      	b.n	801030a <_prtl16+0x54>
 80102fa:	f103 0210 	add.w	r2, r3, #16
 80102fe:	446a      	add	r2, sp
 8010300:	f812 2c0c 	ldrb.w	r2, [r2, #-12]
 8010304:	f801 2b01 	strb.w	r2, [r1], #1
 8010308:	3b01      	subs	r3, #1
 801030a:	2b00      	cmp	r3, #0
 801030c:	daf5      	bge.n	80102fa <_prtl16+0x44>
 801030e:	b005      	add	sp, #20
 8010310:	f85d 4b04 	ldr.w	r4, [sp], #4
 8010314:	4770      	bx	lr
 8010316:	bf00      	nop
 8010318:	08019ed8 	.word	0x08019ed8

0801031c <_prtX16>:
 801031c:	b410      	push	{r4}
 801031e:	b085      	sub	sp, #20
 8010320:	2300      	movs	r3, #0
 8010322:	f88d 3004 	strb.w	r3, [sp, #4]
 8010326:	2301      	movs	r3, #1
 8010328:	e00b      	b.n	8010342 <_prtX16+0x26>
 801032a:	f000 020f 	and.w	r2, r0, #15
 801032e:	4c13      	ldr	r4, [pc, #76]	@ (801037c <_prtX16+0x60>)
 8010330:	f814 c002 	ldrb.w	ip, [r4, r2]
 8010334:	f103 0210 	add.w	r2, r3, #16
 8010338:	446a      	add	r2, sp
 801033a:	f802 cc0c 	strb.w	ip, [r2, #-12]
 801033e:	1100      	asrs	r0, r0, #4
 8010340:	3301      	adds	r3, #1
 8010342:	2b08      	cmp	r3, #8
 8010344:	ddf1      	ble.n	801032a <_prtX16+0xe>
 8010346:	2308      	movs	r3, #8
 8010348:	e000      	b.n	801034c <_prtX16+0x30>
 801034a:	3b01      	subs	r3, #1
 801034c:	f103 0210 	add.w	r2, r3, #16
 8010350:	446a      	add	r2, sp
 8010352:	f812 2c0c 	ldrb.w	r2, [r2, #-12]
 8010356:	2a30      	cmp	r2, #48	@ 0x30
 8010358:	d0f7      	beq.n	801034a <_prtX16+0x2e>
 801035a:	b94b      	cbnz	r3, 8010370 <_prtX16+0x54>
 801035c:	3301      	adds	r3, #1
 801035e:	e007      	b.n	8010370 <_prtX16+0x54>
 8010360:	f103 0210 	add.w	r2, r3, #16
 8010364:	446a      	add	r2, sp
 8010366:	f812 2c0c 	ldrb.w	r2, [r2, #-12]
 801036a:	f801 2b01 	strb.w	r2, [r1], #1
 801036e:	3b01      	subs	r3, #1
 8010370:	2b00      	cmp	r3, #0
 8010372:	daf5      	bge.n	8010360 <_prtX16+0x44>
 8010374:	b005      	add	sp, #20
 8010376:	f85d 4b04 	ldr.w	r4, [sp], #4
 801037a:	4770      	bx	lr
 801037c:	08019eec 	.word	0x08019eec

08010380 <_prtl2>:
 8010380:	b08a      	sub	sp, #40	@ 0x28
 8010382:	2300      	movs	r3, #0
 8010384:	f88d 3004 	strb.w	r3, [sp, #4]
 8010388:	2301      	movs	r3, #1
 801038a:	e008      	b.n	801039e <_prtl2+0x1e>
 801038c:	f04f 0c31 	mov.w	ip, #49	@ 0x31
 8010390:	f103 0228 	add.w	r2, r3, #40	@ 0x28
 8010394:	446a      	add	r2, sp
 8010396:	f802 cc24 	strb.w	ip, [r2, #-36]
 801039a:	1040      	asrs	r0, r0, #1
 801039c:	3301      	adds	r3, #1
 801039e:	2b20      	cmp	r3, #32
 80103a0:	dc05      	bgt.n	80103ae <_prtl2+0x2e>
 80103a2:	f010 0f01 	tst.w	r0, #1
 80103a6:	d1f1      	bne.n	801038c <_prtl2+0xc>
 80103a8:	f04f 0c30 	mov.w	ip, #48	@ 0x30
 80103ac:	e7f0      	b.n	8010390 <_prtl2+0x10>
 80103ae:	2320      	movs	r3, #32
 80103b0:	e000      	b.n	80103b4 <_prtl2+0x34>
 80103b2:	3b01      	subs	r3, #1
 80103b4:	f103 0228 	add.w	r2, r3, #40	@ 0x28
 80103b8:	446a      	add	r2, sp
 80103ba:	f812 2c24 	ldrb.w	r2, [r2, #-36]
 80103be:	2a30      	cmp	r2, #48	@ 0x30
 80103c0:	d0f7      	beq.n	80103b2 <_prtl2+0x32>
 80103c2:	b94b      	cbnz	r3, 80103d8 <_prtl2+0x58>
 80103c4:	3301      	adds	r3, #1
 80103c6:	e007      	b.n	80103d8 <_prtl2+0x58>
 80103c8:	f103 0228 	add.w	r2, r3, #40	@ 0x28
 80103cc:	446a      	add	r2, sp
 80103ce:	f812 2c24 	ldrb.w	r2, [r2, #-36]
 80103d2:	f801 2b01 	strb.w	r2, [r1], #1
 80103d6:	3b01      	subs	r3, #1
 80103d8:	2b00      	cmp	r3, #0
 80103da:	daf5      	bge.n	80103c8 <_prtl2+0x48>
 80103dc:	b00a      	add	sp, #40	@ 0x28
 80103de:	4770      	bx	lr

080103e0 <_fdoprnt>:
 80103e0:	e92d 4ff0 	stmdb	sp!, {r4, r5, r6, r7, r8, r9, sl, fp, lr}
 80103e4:	b08b      	sub	sp, #44	@ 0x2c
 80103e6:	4604      	mov	r4, r0
 80103e8:	9103      	str	r1, [sp, #12]
 80103ea:	4615      	mov	r5, r2
 80103ec:	461e      	mov	r6, r3
 80103ee:	4627      	mov	r7, r4
 80103f0:	f817 1b01 	ldrb.w	r1, [r7], #1
 80103f4:	2925      	cmp	r1, #37	@ 0x25
 80103f6:	d006      	beq.n	8010406 <_fdoprnt+0x26>
 80103f8:	2900      	cmp	r1, #0
 80103fa:	f000 8087 	beq.w	801050c <_fdoprnt+0x12c>
 80103fe:	4630      	mov	r0, r6
 8010400:	47a8      	blx	r5
 8010402:	463c      	mov	r4, r7
 8010404:	e7f3      	b.n	80103ee <_fdoprnt+0xe>
 8010406:	f894 b001 	ldrb.w	fp, [r4, #1]
 801040a:	f1bb 0f25 	cmp.w	fp, #37	@ 0x25
 801040e:	d043      	beq.n	8010498 <_fdoprnt+0xb8>
 8010410:	f1bb 0f2d 	cmp.w	fp, #45	@ 0x2d
 8010414:	d045      	beq.n	80104a2 <_fdoprnt+0xc2>
 8010416:	783b      	ldrb	r3, [r7, #0]
 8010418:	9301      	str	r3, [sp, #4]
 801041a:	2b30      	cmp	r3, #48	@ 0x30
 801041c:	d043      	beq.n	80104a6 <_fdoprnt+0xc6>
 801041e:	2320      	movs	r3, #32
 8010420:	9301      	str	r3, [sp, #4]
 8010422:	783b      	ldrb	r3, [r7, #0]
 8010424:	2b2a      	cmp	r3, #42	@ 0x2a
 8010426:	d14e      	bne.n	80104c6 <_fdoprnt+0xe6>
 8010428:	9b03      	ldr	r3, [sp, #12]
 801042a:	1d1a      	adds	r2, r3, #4
 801042c:	9203      	str	r2, [sp, #12]
 801042e:	f8d3 9000 	ldr.w	r9, [r3]
 8010432:	3701      	adds	r7, #1
 8010434:	783b      	ldrb	r3, [r7, #0]
 8010436:	2b2e      	cmp	r3, #46	@ 0x2e
 8010438:	d048      	beq.n	80104cc <_fdoprnt+0xec>
 801043a:	f04f 0800 	mov.w	r8, #0
 801043e:	463c      	mov	r4, r7
 8010440:	f814 1b01 	ldrb.w	r1, [r4], #1
 8010444:	2900      	cmp	r1, #0
 8010446:	d05e      	beq.n	8010506 <_fdoprnt+0x126>
 8010448:	f1a1 0358 	sub.w	r3, r1, #88	@ 0x58
 801044c:	2b20      	cmp	r3, #32
 801044e:	f200 80e2 	bhi.w	8010616 <_fdoprnt+0x236>
 8010452:	e8df f013 	tbh	[pc, r3, lsl #1]
 8010456:	00b9      	.short	0x00b9
 8010458:	00e000e0 	.word	0x00e000e0
 801045c:	00e000e0 	.word	0x00e000e0
 8010460:	00e000e0 	.word	0x00e000e0
 8010464:	00e000e0 	.word	0x00e000e0
 8010468:	00d300e0 	.word	0x00d300e0
 801046c:	007c005e 	.word	0x007c005e
 8010470:	00e000e0 	.word	0x00e000e0
 8010474:	00e000e0 	.word	0x00e000e0
 8010478:	00e000e0 	.word	0x00e000e0
 801047c:	00e000e0 	.word	0x00e000e0
 8010480:	00e000e0 	.word	0x00e000e0
 8010484:	00e000ac 	.word	0x00e000ac
 8010488:	00e000e0 	.word	0x00e000e0
 801048c:	00e0006f 	.word	0x00e0006f
 8010490:	00e0008e 	.word	0x00e0008e
 8010494:	00c600e0 	.word	0x00c600e0
 8010498:	3402      	adds	r4, #2
 801049a:	4659      	mov	r1, fp
 801049c:	4630      	mov	r0, r6
 801049e:	47a8      	blx	r5
 80104a0:	e7a5      	b.n	80103ee <_fdoprnt+0xe>
 80104a2:	1ca7      	adds	r7, r4, #2
 80104a4:	e7b7      	b.n	8010416 <_fdoprnt+0x36>
 80104a6:	3701      	adds	r7, #1
 80104a8:	e7bb      	b.n	8010422 <_fdoprnt+0x42>
 80104aa:	eb09 0989 	add.w	r9, r9, r9, lsl #2
 80104ae:	3701      	adds	r7, #1
 80104b0:	eb03 0349 	add.w	r3, r3, r9, lsl #1
 80104b4:	f1a3 0930 	sub.w	r9, r3, #48	@ 0x30
 80104b8:	783b      	ldrb	r3, [r7, #0]
 80104ba:	f1a3 0230 	sub.w	r2, r3, #48	@ 0x30
 80104be:	b2d2      	uxtb	r2, r2
 80104c0:	2a09      	cmp	r2, #9
 80104c2:	d9f2      	bls.n	80104aa <_fdoprnt+0xca>
 80104c4:	e7b6      	b.n	8010434 <_fdoprnt+0x54>
 80104c6:	f04f 0900 	mov.w	r9, #0
 80104ca:	e7f5      	b.n	80104b8 <_fdoprnt+0xd8>
 80104cc:	1c79      	adds	r1, r7, #1
 80104ce:	787b      	ldrb	r3, [r7, #1]
 80104d0:	2b2a      	cmp	r3, #42	@ 0x2a
 80104d2:	d115      	bne.n	8010500 <_fdoprnt+0x120>
 80104d4:	9b03      	ldr	r3, [sp, #12]
 80104d6:	1d1a      	adds	r2, r3, #4
 80104d8:	9203      	str	r2, [sp, #12]
 80104da:	f8d3 8000 	ldr.w	r8, [r3]
 80104de:	3702      	adds	r7, #2
 80104e0:	e7ad      	b.n	801043e <_fdoprnt+0x5e>
 80104e2:	eb08 0288 	add.w	r2, r8, r8, lsl #2
 80104e6:	3101      	adds	r1, #1
 80104e8:	eb03 0342 	add.w	r3, r3, r2, lsl #1
 80104ec:	f1a3 0830 	sub.w	r8, r3, #48	@ 0x30
 80104f0:	780b      	ldrb	r3, [r1, #0]
 80104f2:	f1a3 0230 	sub.w	r2, r3, #48	@ 0x30
 80104f6:	b2d2      	uxtb	r2, r2
 80104f8:	2a09      	cmp	r2, #9
 80104fa:	d9f2      	bls.n	80104e2 <_fdoprnt+0x102>
 80104fc:	460f      	mov	r7, r1
 80104fe:	e79e      	b.n	801043e <_fdoprnt+0x5e>
 8010500:	f04f 0800 	mov.w	r8, #0
 8010504:	e7f4      	b.n	80104f0 <_fdoprnt+0x110>
 8010506:	2125      	movs	r1, #37	@ 0x25
 8010508:	4630      	mov	r0, r6
 801050a:	47a8      	blx	r5
 801050c:	b00b      	add	sp, #44	@ 0x2c
 801050e:	e8bd 8ff0 	ldmia.w	sp!, {r4, r5, r6, r7, r8, r9, sl, fp, pc}
 8010512:	9b03      	ldr	r3, [sp, #12]
 8010514:	1d1a      	adds	r2, r3, #4
 8010516:	9203      	str	r2, [sp, #12]
 8010518:	681b      	ldr	r3, [r3, #0]
 801051a:	f88d 3014 	strb.w	r3, [sp, #20]
 801051e:	2300      	movs	r3, #0
 8010520:	f88d 3015 	strb.w	r3, [sp, #21]
 8010524:	9302      	str	r3, [sp, #8]
 8010526:	4698      	mov	r8, r3
 8010528:	2320      	movs	r3, #32
 801052a:	9301      	str	r3, [sp, #4]
 801052c:	f10d 0a14 	add.w	sl, sp, #20
 8010530:	2700      	movs	r7, #0
 8010532:	e07f      	b.n	8010634 <_fdoprnt+0x254>
 8010534:	9b03      	ldr	r3, [sp, #12]
 8010536:	1d1a      	adds	r2, r3, #4
 8010538:	9203      	str	r2, [sp, #12]
 801053a:	f8d3 a000 	ldr.w	sl, [r3]
 801053e:	f1ba 0f00 	cmp.w	sl, #0
 8010542:	d06f      	beq.n	8010624 <_fdoprnt+0x244>
 8010544:	2300      	movs	r3, #0
 8010546:	9302      	str	r3, [sp, #8]
 8010548:	2320      	movs	r3, #32
 801054a:	9301      	str	r3, [sp, #4]
 801054c:	e7f0      	b.n	8010530 <_fdoprnt+0x150>
 801054e:	9b03      	ldr	r3, [sp, #12]
 8010550:	1d1a      	adds	r2, r3, #4
 8010552:	9203      	str	r2, [sp, #12]
 8010554:	6818      	ldr	r0, [r3, #0]
 8010556:	2800      	cmp	r0, #0
 8010558:	db07      	blt.n	801056a <_fdoprnt+0x18a>
 801055a:	2300      	movs	r3, #0
 801055c:	9302      	str	r3, [sp, #8]
 801055e:	a905      	add	r1, sp, #20
 8010560:	f7ff fe1a 	bl	8010198 <_prtl10>
 8010564:	f10d 0a14 	add.w	sl, sp, #20
 8010568:	e7e2      	b.n	8010530 <_fdoprnt+0x150>
 801056a:	4240      	negs	r0, r0
 801056c:	232d      	movs	r3, #45	@ 0x2d
 801056e:	9302      	str	r3, [sp, #8]
 8010570:	e7f5      	b.n	801055e <_fdoprnt+0x17e>
 8010572:	9b03      	ldr	r3, [sp, #12]
 8010574:	1d1a      	adds	r2, r3, #4
 8010576:	9203      	str	r2, [sp, #12]
 8010578:	6818      	ldr	r0, [r3, #0]
 801057a:	2700      	movs	r7, #0
 801057c:	2800      	cmp	r0, #0
 801057e:	da08      	bge.n	8010592 <_fdoprnt+0x1b2>
 8010580:	f100 4044 	add.w	r0, r0, #3288334336	@ 0xc4000000
 8010584:	f500 00ca 	add.w	r0, r0, #6619136	@ 0x650000
 8010588:	f500 5058 	add.w	r0, r0, #13824	@ 0x3600
 801058c:	3701      	adds	r7, #1
 801058e:	b2ff      	uxtb	r7, r7
 8010590:	e7f4      	b.n	801057c <_fdoprnt+0x19c>
 8010592:	a905      	add	r1, sp, #20
 8010594:	f7ff fe00 	bl	8010198 <_prtl10>
 8010598:	f89d 3014 	ldrb.w	r3, [sp, #20]
 801059c:	443b      	add	r3, r7
 801059e:	f88d 3014 	strb.w	r3, [sp, #20]
 80105a2:	2300      	movs	r3, #0
 80105a4:	9302      	str	r3, [sp, #8]
 80105a6:	4698      	mov	r8, r3
 80105a8:	f10d 0a14 	add.w	sl, sp, #20
 80105ac:	e7c0      	b.n	8010530 <_fdoprnt+0x150>
 80105ae:	9b03      	ldr	r3, [sp, #12]
 80105b0:	1d1a      	adds	r2, r3, #4
 80105b2:	9203      	str	r2, [sp, #12]
 80105b4:	a905      	add	r1, sp, #20
 80105b6:	6818      	ldr	r0, [r3, #0]
 80105b8:	f7ff fe4c 	bl	8010254 <_prtl8>
 80105bc:	2300      	movs	r3, #0
 80105be:	9302      	str	r3, [sp, #8]
 80105c0:	4698      	mov	r8, r3
 80105c2:	f10d 0a14 	add.w	sl, sp, #20
 80105c6:	e7b3      	b.n	8010530 <_fdoprnt+0x150>
 80105c8:	9b03      	ldr	r3, [sp, #12]
 80105ca:	1d1a      	adds	r2, r3, #4
 80105cc:	9203      	str	r2, [sp, #12]
 80105ce:	a905      	add	r1, sp, #20
 80105d0:	6818      	ldr	r0, [r3, #0]
 80105d2:	f7ff fea3 	bl	801031c <_prtX16>
 80105d6:	2300      	movs	r3, #0
 80105d8:	9302      	str	r3, [sp, #8]
 80105da:	4698      	mov	r8, r3
 80105dc:	f10d 0a14 	add.w	sl, sp, #20
 80105e0:	e7a6      	b.n	8010530 <_fdoprnt+0x150>
 80105e2:	9b03      	ldr	r3, [sp, #12]
 80105e4:	1d1a      	adds	r2, r3, #4
 80105e6:	9203      	str	r2, [sp, #12]
 80105e8:	a905      	add	r1, sp, #20
 80105ea:	6818      	ldr	r0, [r3, #0]
 80105ec:	f7ff fe63 	bl	80102b6 <_prtl16>
 80105f0:	2300      	movs	r3, #0
 80105f2:	9302      	str	r3, [sp, #8]
 80105f4:	4698      	mov	r8, r3
 80105f6:	f10d 0a14 	add.w	sl, sp, #20
 80105fa:	e799      	b.n	8010530 <_fdoprnt+0x150>
 80105fc:	9b03      	ldr	r3, [sp, #12]
 80105fe:	1d1a      	adds	r2, r3, #4
 8010600:	9203      	str	r2, [sp, #12]
 8010602:	a905      	add	r1, sp, #20
 8010604:	6818      	ldr	r0, [r3, #0]
 8010606:	f7ff febb 	bl	8010380 <_prtl2>
 801060a:	2300      	movs	r3, #0
 801060c:	9302      	str	r3, [sp, #8]
 801060e:	4698      	mov	r8, r3
 8010610:	f10d 0a14 	add.w	sl, sp, #20
 8010614:	e78c      	b.n	8010530 <_fdoprnt+0x150>
 8010616:	4630      	mov	r0, r6
 8010618:	47a8      	blx	r5
 801061a:	2300      	movs	r3, #0
 801061c:	9302      	str	r3, [sp, #8]
 801061e:	f10d 0a14 	add.w	sl, sp, #20
 8010622:	e785      	b.n	8010530 <_fdoprnt+0x150>
 8010624:	2300      	movs	r3, #0
 8010626:	9302      	str	r3, [sp, #8]
 8010628:	2320      	movs	r3, #32
 801062a:	9301      	str	r3, [sp, #4]
 801062c:	f8df a0c4 	ldr.w	sl, [pc, #196]	@ 80106f4 <_fdoprnt+0x314>
 8010630:	e77e      	b.n	8010530 <_fdoprnt+0x150>
 8010632:	3701      	adds	r7, #1
 8010634:	f81a 3007 	ldrb.w	r3, [sl, r7]
 8010638:	2b00      	cmp	r3, #0
 801063a:	d1fa      	bne.n	8010632 <_fdoprnt+0x252>
 801063c:	f1b9 0f50 	cmp.w	r9, #80	@ 0x50
 8010640:	d901      	bls.n	8010646 <_fdoprnt+0x266>
 8010642:	f04f 0900 	mov.w	r9, #0
 8010646:	f1b8 0f50 	cmp.w	r8, #80	@ 0x50
 801064a:	d819      	bhi.n	8010680 <_fdoprnt+0x2a0>
 801064c:	f1b8 0f00 	cmp.w	r8, #0
 8010650:	d018      	beq.n	8010684 <_fdoprnt+0x2a4>
 8010652:	4547      	cmp	r7, r8
 8010654:	dd00      	ble.n	8010658 <_fdoprnt+0x278>
 8010656:	4647      	mov	r7, r8
 8010658:	f1b9 0f00 	cmp.w	r9, #0
 801065c:	d001      	beq.n	8010662 <_fdoprnt+0x282>
 801065e:	eba9 0907 	sub.w	r9, r9, r7
 8010662:	9b02      	ldr	r3, [sp, #8]
 8010664:	2b2d      	cmp	r3, #45	@ 0x2d
 8010666:	d014      	beq.n	8010692 <_fdoprnt+0x2b2>
 8010668:	9b02      	ldr	r3, [sp, #8]
 801066a:	2b2d      	cmp	r3, #45	@ 0x2d
 801066c:	d014      	beq.n	8010698 <_fdoprnt+0x2b8>
 801066e:	f1bb 0f2d 	cmp.w	fp, #45	@ 0x2d
 8010672:	d120      	bne.n	80106b6 <_fdoprnt+0x2d6>
 8010674:	9b02      	ldr	r3, [sp, #8]
 8010676:	2b2d      	cmp	r3, #45	@ 0x2d
 8010678:	d020      	beq.n	80106bc <_fdoprnt+0x2dc>
 801067a:	f04f 0800 	mov.w	r8, #0
 801067e:	e02a      	b.n	80106d6 <_fdoprnt+0x2f6>
 8010680:	f04f 0800 	mov.w	r8, #0
 8010684:	f1b9 0f00 	cmp.w	r9, #0
 8010688:	d0ee      	beq.n	8010668 <_fdoprnt+0x288>
 801068a:	f1b8 0f00 	cmp.w	r8, #0
 801068e:	d0e3      	beq.n	8010658 <_fdoprnt+0x278>
 8010690:	e7df      	b.n	8010652 <_fdoprnt+0x272>
 8010692:	f109 39ff 	add.w	r9, r9, #4294967295	@ 0xffffffff
 8010696:	e7e7      	b.n	8010668 <_fdoprnt+0x288>
 8010698:	9b01      	ldr	r3, [sp, #4]
 801069a:	2b30      	cmp	r3, #48	@ 0x30
 801069c:	d1e7      	bne.n	801066e <_fdoprnt+0x28e>
 801069e:	9902      	ldr	r1, [sp, #8]
 80106a0:	4630      	mov	r0, r6
 80106a2:	47a8      	blx	r5
 80106a4:	e7e3      	b.n	801066e <_fdoprnt+0x28e>
 80106a6:	9901      	ldr	r1, [sp, #4]
 80106a8:	4630      	mov	r0, r6
 80106aa:	47a8      	blx	r5
 80106ac:	f108 0801 	add.w	r8, r8, #1
 80106b0:	45c8      	cmp	r8, r9
 80106b2:	dbf8      	blt.n	80106a6 <_fdoprnt+0x2c6>
 80106b4:	e7de      	b.n	8010674 <_fdoprnt+0x294>
 80106b6:	f04f 0800 	mov.w	r8, #0
 80106ba:	e7f9      	b.n	80106b0 <_fdoprnt+0x2d0>
 80106bc:	9b01      	ldr	r3, [sp, #4]
 80106be:	2b20      	cmp	r3, #32
 80106c0:	d1db      	bne.n	801067a <_fdoprnt+0x29a>
 80106c2:	9902      	ldr	r1, [sp, #8]
 80106c4:	4630      	mov	r0, r6
 80106c6:	47a8      	blx	r5
 80106c8:	e7d7      	b.n	801067a <_fdoprnt+0x29a>
 80106ca:	f81a 1008 	ldrb.w	r1, [sl, r8]
 80106ce:	4630      	mov	r0, r6
 80106d0:	47a8      	blx	r5
 80106d2:	f108 0801 	add.w	r8, r8, #1
 80106d6:	45b8      	cmp	r8, r7
 80106d8:	dbf7      	blt.n	80106ca <_fdoprnt+0x2ea>
 80106da:	f1bb 0f2d 	cmp.w	fp, #45	@ 0x2d
 80106de:	f47f ae86 	bne.w	80103ee <_fdoprnt+0xe>
 80106e2:	2700      	movs	r7, #0
 80106e4:	e003      	b.n	80106ee <_fdoprnt+0x30e>
 80106e6:	9901      	ldr	r1, [sp, #4]
 80106e8:	4630      	mov	r0, r6
 80106ea:	47a8      	blx	r5
 80106ec:	3701      	adds	r7, #1
 80106ee:	454f      	cmp	r7, r9
 80106f0:	dbf9      	blt.n	80106e6 <_fdoprnt+0x306>
 80106f2:	e67c      	b.n	80103ee <_fdoprnt+0xe>
 80106f4:	08019f00 	.word	0x08019f00

080106f8 <_doprnt>:
 80106f8:	e92d 4ff0 	stmdb	sp!, {r4, r5, r6, r7, r8, r9, sl, fp, lr}
 80106fc:	b089      	sub	sp, #36	@ 0x24
 80106fe:	4604      	mov	r4, r0
 8010700:	9101      	str	r1, [sp, #4]
 8010702:	4615      	mov	r5, r2
 8010704:	e001      	b.n	801070a <_doprnt+0x12>
 8010706:	47a8      	blx	r5
 8010708:	4634      	mov	r4, r6
 801070a:	4626      	mov	r6, r4
 801070c:	f816 0b01 	ldrb.w	r0, [r6], #1
 8010710:	2825      	cmp	r0, #37	@ 0x25
 8010712:	d004      	beq.n	801071e <_doprnt+0x26>
 8010714:	2800      	cmp	r0, #0
 8010716:	d1f6      	bne.n	8010706 <_doprnt+0xe>
 8010718:	b009      	add	sp, #36	@ 0x24
 801071a:	e8bd 8ff0 	ldmia.w	sp!, {r4, r5, r6, r7, r8, r9, sl, fp, pc}
 801071e:	f894 b001 	ldrb.w	fp, [r4, #1]
 8010722:	f1bb 0f25 	cmp.w	fp, #37	@ 0x25
 8010726:	d053      	beq.n	80107d0 <_doprnt+0xd8>
 8010728:	f1bb 0f2d 	cmp.w	fp, #45	@ 0x2d
 801072c:	d054      	beq.n	80107d8 <_doprnt+0xe0>
 801072e:	f896 a000 	ldrb.w	sl, [r6]
 8010732:	f1ba 0f30 	cmp.w	sl, #48	@ 0x30
 8010736:	d051      	beq.n	80107dc <_doprnt+0xe4>
 8010738:	f04f 0a20 	mov.w	sl, #32
 801073c:	7833      	ldrb	r3, [r6, #0]
 801073e:	2b2a      	cmp	r3, #42	@ 0x2a
 8010740:	d15c      	bne.n	80107fc <_doprnt+0x104>
 8010742:	9b01      	ldr	r3, [sp, #4]
 8010744:	1d1a      	adds	r2, r3, #4
 8010746:	9201      	str	r2, [sp, #4]
 8010748:	681f      	ldr	r7, [r3, #0]
 801074a:	3601      	adds	r6, #1
 801074c:	7833      	ldrb	r3, [r6, #0]
 801074e:	2b2e      	cmp	r3, #46	@ 0x2e
 8010750:	d056      	beq.n	8010800 <_doprnt+0x108>
 8010752:	f04f 0900 	mov.w	r9, #0
 8010756:	4634      	mov	r4, r6
 8010758:	f814 0b01 	ldrb.w	r0, [r4], #1
 801075c:	2800      	cmp	r0, #0
 801075e:	d06c      	beq.n	801083a <_doprnt+0x142>
 8010760:	f1a0 0348 	sub.w	r3, r0, #72	@ 0x48
 8010764:	2b30      	cmp	r3, #48	@ 0x30
 8010766:	f200 8116 	bhi.w	8010996 <_doprnt+0x29e>
 801076a:	e8df f013 	tbh	[pc, r3, lsl #1]
 801076e:	00df      	.short	0x00df
 8010770:	01140114 	.word	0x01140114
 8010774:	01140114 	.word	0x01140114
 8010778:	01140114 	.word	0x01140114
 801077c:	01140114 	.word	0x01140114
 8010780:	01140114 	.word	0x01140114
 8010784:	01140114 	.word	0x01140114
 8010788:	01140114 	.word	0x01140114
 801078c:	00c50114 	.word	0x00c50114
 8010790:	01140114 	.word	0x01140114
 8010794:	01140114 	.word	0x01140114
 8010798:	01140114 	.word	0x01140114
 801079c:	01140114 	.word	0x01140114
 80107a0:	01070114 	.word	0x01070114
 80107a4:	00890069 	.word	0x00890069
 80107a8:	011a0114 	.word	0x011a0114
 80107ac:	00f30114 	.word	0x00f30114
 80107b0:	01140114 	.word	0x01140114
 80107b4:	01140114 	.word	0x01140114
 80107b8:	01140114 	.word	0x01140114
 80107bc:	011400b8 	.word	0x011400b8
 80107c0:	01140114 	.word	0x01140114
 80107c4:	0114007b 	.word	0x0114007b
 80107c8:	0114009a 	.word	0x0114009a
 80107cc:	00d20114 	.word	0x00d20114
 80107d0:	3402      	adds	r4, #2
 80107d2:	4658      	mov	r0, fp
 80107d4:	47a8      	blx	r5
 80107d6:	e798      	b.n	801070a <_doprnt+0x12>
 80107d8:	1ca6      	adds	r6, r4, #2
 80107da:	e7a8      	b.n	801072e <_doprnt+0x36>
 80107dc:	3601      	adds	r6, #1
 80107de:	e7ad      	b.n	801073c <_doprnt+0x44>
 80107e0:	eb07 0787 	add.w	r7, r7, r7, lsl #2
 80107e4:	3601      	adds	r6, #1
 80107e6:	eb03 0347 	add.w	r3, r3, r7, lsl #1
 80107ea:	f1a3 0730 	sub.w	r7, r3, #48	@ 0x30
 80107ee:	7833      	ldrb	r3, [r6, #0]
 80107f0:	f1a3 0230 	sub.w	r2, r3, #48	@ 0x30
 80107f4:	b2d2      	uxtb	r2, r2
 80107f6:	2a09      	cmp	r2, #9
 80107f8:	d9f2      	bls.n	80107e0 <_doprnt+0xe8>
 80107fa:	e7a7      	b.n	801074c <_doprnt+0x54>
 80107fc:	2700      	movs	r7, #0
 80107fe:	e7f6      	b.n	80107ee <_doprnt+0xf6>
 8010800:	1c71      	adds	r1, r6, #1
 8010802:	7873      	ldrb	r3, [r6, #1]
 8010804:	2b2a      	cmp	r3, #42	@ 0x2a
 8010806:	d115      	bne.n	8010834 <_doprnt+0x13c>
 8010808:	9b01      	ldr	r3, [sp, #4]
 801080a:	1d1a      	adds	r2, r3, #4
 801080c:	9201      	str	r2, [sp, #4]
 801080e:	f8d3 9000 	ldr.w	r9, [r3]
 8010812:	3602      	adds	r6, #2
 8010814:	e79f      	b.n	8010756 <_doprnt+0x5e>
 8010816:	eb09 0989 	add.w	r9, r9, r9, lsl #2
 801081a:	3101      	adds	r1, #1
 801081c:	eb03 0349 	add.w	r3, r3, r9, lsl #1
 8010820:	f1a3 0930 	sub.w	r9, r3, #48	@ 0x30
 8010824:	780b      	ldrb	r3, [r1, #0]
 8010826:	f1a3 0230 	sub.w	r2, r3, #48	@ 0x30
 801082a:	b2d2      	uxtb	r2, r2
 801082c:	2a09      	cmp	r2, #9
 801082e:	d9f2      	bls.n	8010816 <_doprnt+0x11e>
 8010830:	460e      	mov	r6, r1
 8010832:	e790      	b.n	8010756 <_doprnt+0x5e>
 8010834:	f04f 0900 	mov.w	r9, #0
 8010838:	e7f4      	b.n	8010824 <_doprnt+0x12c>
 801083a:	2025      	movs	r0, #37	@ 0x25
 801083c:	47a8      	blx	r5
 801083e:	e76b      	b.n	8010718 <_doprnt+0x20>
 8010840:	9b01      	ldr	r3, [sp, #4]
 8010842:	1d1a      	adds	r2, r3, #4
 8010844:	9201      	str	r2, [sp, #4]
 8010846:	681b      	ldr	r3, [r3, #0]
 8010848:	f88d 300c 	strb.w	r3, [sp, #12]
 801084c:	f04f 0900 	mov.w	r9, #0
 8010850:	f88d 900d 	strb.w	r9, [sp, #13]
 8010854:	f8cd 9000 	str.w	r9, [sp]
 8010858:	f04f 0a20 	mov.w	sl, #32
 801085c:	f10d 080c 	add.w	r8, sp, #12
 8010860:	2600      	movs	r6, #0
 8010862:	e0ab      	b.n	80109bc <_doprnt+0x2c4>
 8010864:	9b01      	ldr	r3, [sp, #4]
 8010866:	1d1a      	adds	r2, r3, #4
 8010868:	9201      	str	r2, [sp, #4]
 801086a:	f8d3 8000 	ldr.w	r8, [r3]
 801086e:	f1b8 0f00 	cmp.w	r8, #0
 8010872:	f000 809b 	beq.w	80109ac <_doprnt+0x2b4>
 8010876:	2300      	movs	r3, #0
 8010878:	9300      	str	r3, [sp, #0]
 801087a:	f04f 0a20 	mov.w	sl, #32
 801087e:	e7ef      	b.n	8010860 <_doprnt+0x168>
 8010880:	9b01      	ldr	r3, [sp, #4]
 8010882:	1d1a      	adds	r2, r3, #4
 8010884:	9201      	str	r2, [sp, #4]
 8010886:	6818      	ldr	r0, [r3, #0]
 8010888:	2800      	cmp	r0, #0
 801088a:	db07      	blt.n	801089c <_doprnt+0x1a4>
 801088c:	2300      	movs	r3, #0
 801088e:	9300      	str	r3, [sp, #0]
 8010890:	a903      	add	r1, sp, #12
 8010892:	f7ff fc81 	bl	8010198 <_prtl10>
 8010896:	f10d 080c 	add.w	r8, sp, #12
 801089a:	e7e1      	b.n	8010860 <_doprnt+0x168>
 801089c:	232d      	movs	r3, #45	@ 0x2d
 801089e:	9300      	str	r3, [sp, #0]
 80108a0:	e7f6      	b.n	8010890 <_doprnt+0x198>
 80108a2:	9b01      	ldr	r3, [sp, #4]
 80108a4:	1d1a      	adds	r2, r3, #4
 80108a6:	9201      	str	r2, [sp, #4]
 80108a8:	6818      	ldr	r0, [r3, #0]
 80108aa:	2600      	movs	r6, #0
 80108ac:	e007      	b.n	80108be <_doprnt+0x1c6>
 80108ae:	f100 4044 	add.w	r0, r0, #3288334336	@ 0xc4000000
 80108b2:	f500 00ca 	add.w	r0, r0, #6619136	@ 0x650000
 80108b6:	f500 5058 	add.w	r0, r0, #13824	@ 0x3600
 80108ba:	3601      	adds	r6, #1
 80108bc:	b2f6      	uxtb	r6, r6
 80108be:	2800      	cmp	r0, #0
 80108c0:	dbf5      	blt.n	80108ae <_doprnt+0x1b6>
 80108c2:	a903      	add	r1, sp, #12
 80108c4:	f7ff fc68 	bl	8010198 <_prtl10>
 80108c8:	f89d 300c 	ldrb.w	r3, [sp, #12]
 80108cc:	4433      	add	r3, r6
 80108ce:	f88d 300c 	strb.w	r3, [sp, #12]
 80108d2:	2300      	movs	r3, #0
 80108d4:	9300      	str	r3, [sp, #0]
 80108d6:	4699      	mov	r9, r3
 80108d8:	f10d 080c 	add.w	r8, sp, #12
 80108dc:	e7c0      	b.n	8010860 <_doprnt+0x168>
 80108de:	9b01      	ldr	r3, [sp, #4]
 80108e0:	1d1a      	adds	r2, r3, #4
 80108e2:	9201      	str	r2, [sp, #4]
 80108e4:	a903      	add	r1, sp, #12
 80108e6:	6818      	ldr	r0, [r3, #0]
 80108e8:	f7ff fcb4 	bl	8010254 <_prtl8>
 80108ec:	2300      	movs	r3, #0
 80108ee:	9300      	str	r3, [sp, #0]
 80108f0:	4699      	mov	r9, r3
 80108f2:	f10d 080c 	add.w	r8, sp, #12
 80108f6:	e7b3      	b.n	8010860 <_doprnt+0x168>
 80108f8:	9b01      	ldr	r3, [sp, #4]
 80108fa:	1d1a      	adds	r2, r3, #4
 80108fc:	9201      	str	r2, [sp, #4]
 80108fe:	a903      	add	r1, sp, #12
 8010900:	6818      	ldr	r0, [r3, #0]
 8010902:	f7ff fd0b 	bl	801031c <_prtX16>
 8010906:	2300      	movs	r3, #0
 8010908:	9300      	str	r3, [sp, #0]
 801090a:	4699      	mov	r9, r3
 801090c:	f10d 080c 	add.w	r8, sp, #12
 8010910:	e7a6      	b.n	8010860 <_doprnt+0x168>
 8010912:	9b01      	ldr	r3, [sp, #4]
 8010914:	1d1a      	adds	r2, r3, #4
 8010916:	9201      	str	r2, [sp, #4]
 8010918:	a903      	add	r1, sp, #12
 801091a:	6818      	ldr	r0, [r3, #0]
 801091c:	f7ff fccb 	bl	80102b6 <_prtl16>
 8010920:	2300      	movs	r3, #0
 8010922:	9300      	str	r3, [sp, #0]
 8010924:	4699      	mov	r9, r3
 8010926:	f10d 080c 	add.w	r8, sp, #12
 801092a:	e799      	b.n	8010860 <_doprnt+0x168>
 801092c:	9b01      	ldr	r3, [sp, #4]
 801092e:	1d1a      	adds	r2, r3, #4
 8010930:	9201      	str	r2, [sp, #4]
 8010932:	a903      	add	r1, sp, #12
 8010934:	6818      	ldr	r0, [r3, #0]
 8010936:	f7ff fcf1 	bl	801031c <_prtX16>
 801093a:	9b01      	ldr	r3, [sp, #4]
 801093c:	1d1a      	adds	r2, r3, #4
 801093e:	9201      	str	r2, [sp, #4]
 8010940:	a905      	add	r1, sp, #20
 8010942:	6818      	ldr	r0, [r3, #0]
 8010944:	f7ff fcea 	bl	801031c <_prtX16>
 8010948:	2300      	movs	r3, #0
 801094a:	9300      	str	r3, [sp, #0]
 801094c:	4699      	mov	r9, r3
 801094e:	f10d 080c 	add.w	r8, sp, #12
 8010952:	e785      	b.n	8010860 <_doprnt+0x168>
 8010954:	9b01      	ldr	r3, [sp, #4]
 8010956:	1d1a      	adds	r2, r3, #4
 8010958:	9201      	str	r2, [sp, #4]
 801095a:	a903      	add	r1, sp, #12
 801095c:	6818      	ldr	r0, [r3, #0]
 801095e:	f7ff fcaa 	bl	80102b6 <_prtl16>
 8010962:	9b01      	ldr	r3, [sp, #4]
 8010964:	1d1a      	adds	r2, r3, #4
 8010966:	9201      	str	r2, [sp, #4]
 8010968:	a905      	add	r1, sp, #20
 801096a:	6818      	ldr	r0, [r3, #0]
 801096c:	f7ff fca3 	bl	80102b6 <_prtl16>
 8010970:	2300      	movs	r3, #0
 8010972:	9300      	str	r3, [sp, #0]
 8010974:	4699      	mov	r9, r3
 8010976:	f10d 080c 	add.w	r8, sp, #12
 801097a:	e771      	b.n	8010860 <_doprnt+0x168>
 801097c:	9b01      	ldr	r3, [sp, #4]
 801097e:	1d1a      	adds	r2, r3, #4
 8010980:	9201      	str	r2, [sp, #4]
 8010982:	a903      	add	r1, sp, #12
 8010984:	6818      	ldr	r0, [r3, #0]
 8010986:	f7ff fcfb 	bl	8010380 <_prtl2>
 801098a:	2300      	movs	r3, #0
 801098c:	9300      	str	r3, [sp, #0]
 801098e:	4699      	mov	r9, r3
 8010990:	f10d 080c 	add.w	r8, sp, #12
 8010994:	e764      	b.n	8010860 <_doprnt+0x168>
 8010996:	47a8      	blx	r5
 8010998:	2300      	movs	r3, #0
 801099a:	9300      	str	r3, [sp, #0]
 801099c:	f10d 080c 	add.w	r8, sp, #12
 80109a0:	e75e      	b.n	8010860 <_doprnt+0x168>
 80109a2:	2300      	movs	r3, #0
 80109a4:	9300      	str	r3, [sp, #0]
 80109a6:	f10d 080c 	add.w	r8, sp, #12
 80109aa:	e759      	b.n	8010860 <_doprnt+0x168>
 80109ac:	2300      	movs	r3, #0
 80109ae:	9300      	str	r3, [sp, #0]
 80109b0:	f04f 0a20 	mov.w	sl, #32
 80109b4:	f8df 80ac 	ldr.w	r8, [pc, #172]	@ 8010a64 <_doprnt+0x36c>
 80109b8:	e752      	b.n	8010860 <_doprnt+0x168>
 80109ba:	3601      	adds	r6, #1
 80109bc:	f818 3006 	ldrb.w	r3, [r8, r6]
 80109c0:	2b00      	cmp	r3, #0
 80109c2:	d1fa      	bne.n	80109ba <_doprnt+0x2c2>
 80109c4:	2f50      	cmp	r7, #80	@ 0x50
 80109c6:	d900      	bls.n	80109ca <_doprnt+0x2d2>
 80109c8:	2700      	movs	r7, #0
 80109ca:	f1b9 0f50 	cmp.w	r9, #80	@ 0x50
 80109ce:	d816      	bhi.n	80109fe <_doprnt+0x306>
 80109d0:	f1b9 0f00 	cmp.w	r9, #0
 80109d4:	d015      	beq.n	8010a02 <_doprnt+0x30a>
 80109d6:	454e      	cmp	r6, r9
 80109d8:	dd00      	ble.n	80109dc <_doprnt+0x2e4>
 80109da:	464e      	mov	r6, r9
 80109dc:	b107      	cbz	r7, 80109e0 <_doprnt+0x2e8>
 80109de:	1bbf      	subs	r7, r7, r6
 80109e0:	9b00      	ldr	r3, [sp, #0]
 80109e2:	2b2d      	cmp	r3, #45	@ 0x2d
 80109e4:	d013      	beq.n	8010a0e <_doprnt+0x316>
 80109e6:	9b00      	ldr	r3, [sp, #0]
 80109e8:	2b2d      	cmp	r3, #45	@ 0x2d
 80109ea:	d012      	beq.n	8010a12 <_doprnt+0x31a>
 80109ec:	f1bb 0f2d 	cmp.w	fp, #45	@ 0x2d
 80109f0:	d11c      	bne.n	8010a2c <_doprnt+0x334>
 80109f2:	9b00      	ldr	r3, [sp, #0]
 80109f4:	2b2d      	cmp	r3, #45	@ 0x2d
 80109f6:	d01c      	beq.n	8010a32 <_doprnt+0x33a>
 80109f8:	f04f 0900 	mov.w	r9, #0
 80109fc:	e024      	b.n	8010a48 <_doprnt+0x350>
 80109fe:	f04f 0900 	mov.w	r9, #0
 8010a02:	2f00      	cmp	r7, #0
 8010a04:	d0ef      	beq.n	80109e6 <_doprnt+0x2ee>
 8010a06:	f1b9 0f00 	cmp.w	r9, #0
 8010a0a:	d0e7      	beq.n	80109dc <_doprnt+0x2e4>
 8010a0c:	e7e3      	b.n	80109d6 <_doprnt+0x2de>
 8010a0e:	3f01      	subs	r7, #1
 8010a10:	e7e9      	b.n	80109e6 <_doprnt+0x2ee>
 8010a12:	f1ba 0f30 	cmp.w	sl, #48	@ 0x30
 8010a16:	d1e9      	bne.n	80109ec <_doprnt+0x2f4>
 8010a18:	4618      	mov	r0, r3
 8010a1a:	47a8      	blx	r5
 8010a1c:	e7e6      	b.n	80109ec <_doprnt+0x2f4>
 8010a1e:	4650      	mov	r0, sl
 8010a20:	47a8      	blx	r5
 8010a22:	f109 0901 	add.w	r9, r9, #1
 8010a26:	45b9      	cmp	r9, r7
 8010a28:	dbf9      	blt.n	8010a1e <_doprnt+0x326>
 8010a2a:	e7e2      	b.n	80109f2 <_doprnt+0x2fa>
 8010a2c:	f04f 0900 	mov.w	r9, #0
 8010a30:	e7f9      	b.n	8010a26 <_doprnt+0x32e>
 8010a32:	f1ba 0f20 	cmp.w	sl, #32
 8010a36:	d1df      	bne.n	80109f8 <_doprnt+0x300>
 8010a38:	4618      	mov	r0, r3
 8010a3a:	47a8      	blx	r5
 8010a3c:	e7dc      	b.n	80109f8 <_doprnt+0x300>
 8010a3e:	f818 0009 	ldrb.w	r0, [r8, r9]
 8010a42:	47a8      	blx	r5
 8010a44:	f109 0901 	add.w	r9, r9, #1
 8010a48:	45b1      	cmp	r9, r6
 8010a4a:	dbf8      	blt.n	8010a3e <_doprnt+0x346>
 8010a4c:	f1bb 0f2d 	cmp.w	fp, #45	@ 0x2d
 8010a50:	f47f ae5b 	bne.w	801070a <_doprnt+0x12>
 8010a54:	2600      	movs	r6, #0
 8010a56:	e002      	b.n	8010a5e <_doprnt+0x366>
 8010a58:	4650      	mov	r0, sl
 8010a5a:	47a8      	blx	r5
 8010a5c:	3601      	adds	r6, #1
 8010a5e:	42be      	cmp	r6, r7
 8010a60:	dbfa      	blt.n	8010a58 <_doprnt+0x360>
 8010a62:	e652      	b.n	801070a <_doprnt+0x12>
 8010a64:	08019f00 	.word	0x08019f00

08010a68 <elf_find_section>:
 8010a68:	e92d 41f0 	stmdb	sp!, {r4, r5, r6, r7, r8, lr}
 8010a6c:	4605      	mov	r5, r0
 8010a6e:	4688      	mov	r8, r1
 8010a70:	6a07      	ldr	r7, [r0, #32]
 8010a72:	19c6      	adds	r6, r0, r7
 8010a74:	8e43      	ldrh	r3, [r0, #50]	@ 0x32
 8010a76:	8dc2      	ldrh	r2, [r0, #46]	@ 0x2e
 8010a78:	fb02 7703 	mla	r7, r2, r3, r7
 8010a7c:	4407      	add	r7, r0
 8010a7e:	2400      	movs	r4, #0
 8010a80:	e003      	b.n	8010a8a <elf_find_section+0x22>
 8010a82:	8deb      	ldrh	r3, [r5, #46]	@ 0x2e
 8010a84:	441e      	add	r6, r3
 8010a86:	3401      	adds	r4, #1
 8010a88:	b2a4      	uxth	r4, r4
 8010a8a:	8e2b      	ldrh	r3, [r5, #48]	@ 0x30
 8010a8c:	42a3      	cmp	r3, r4
 8010a8e:	d909      	bls.n	8010aa4 <elf_find_section+0x3c>
 8010a90:	6938      	ldr	r0, [r7, #16]
 8010a92:	6833      	ldr	r3, [r6, #0]
 8010a94:	4418      	add	r0, r3
 8010a96:	4641      	mov	r1, r8
 8010a98:	4428      	add	r0, r5
 8010a9a:	f001 fdcf 	bl	801263c <strcmp>
 8010a9e:	2800      	cmp	r0, #0
 8010aa0:	d1ef      	bne.n	8010a82 <elf_find_section+0x1a>
 8010aa2:	e000      	b.n	8010aa6 <elf_find_section+0x3e>
 8010aa4:	2600      	movs	r6, #0
 8010aa6:	4630      	mov	r0, r6
 8010aa8:	e8bd 81f0 	ldmia.w	sp!, {r4, r5, r6, r7, r8, pc}

08010aac <elf_execve>:
 8010aac:	e92d 47f0 	stmdb	sp!, {r4, r5, r6, r7, r8, r9, sl, lr}
 8010ab0:	4604      	mov	r4, r0
 8010ab2:	468a      	mov	sl, r1
 8010ab4:	f008 ffa8 	bl	8019a08 <irq_disable>
 8010ab8:	4681      	mov	r9, r0
 8010aba:	495d      	ldr	r1, [pc, #372]	@ (8010c30 <elf_execve+0x184>)
 8010abc:	4620      	mov	r0, r4
 8010abe:	f004 ff5d 	bl	801597c <fl_fopen>
 8010ac2:	b348      	cbz	r0, 8010b18 <elf_execve+0x6c>
 8010ac4:	4680      	mov	r8, r0
 8010ac6:	2202      	movs	r2, #2
 8010ac8:	2100      	movs	r1, #0
 8010aca:	f005 f962 	bl	8015d92 <fl_fseek>
 8010ace:	4640      	mov	r0, r8
 8010ad0:	f005 f9ca 	bl	8015e68 <fl_ftell>
 8010ad4:	4604      	mov	r4, r0
 8010ad6:	2200      	movs	r2, #0
 8010ad8:	4611      	mov	r1, r2
 8010ada:	4640      	mov	r0, r8
 8010adc:	f005 f959 	bl	8015d92 <fl_fseek>
 8010ae0:	4620      	mov	r0, r4
 8010ae2:	f000 f9a1 	bl	8010e28 <malloc>
 8010ae6:	4605      	mov	r5, r0
 8010ae8:	4643      	mov	r3, r8
 8010aea:	2201      	movs	r2, #1
 8010aec:	4621      	mov	r1, r4
 8010aee:	f005 f899 	bl	8015c24 <fl_fread>
 8010af2:	4284      	cmp	r4, r0
 8010af4:	d11a      	bne.n	8010b2c <elf_execve+0x80>
 8010af6:	782b      	ldrb	r3, [r5, #0]
 8010af8:	2b7f      	cmp	r3, #127	@ 0x7f
 8010afa:	d123      	bne.n	8010b44 <elf_execve+0x98>
 8010afc:	786b      	ldrb	r3, [r5, #1]
 8010afe:	2b45      	cmp	r3, #69	@ 0x45
 8010b00:	d120      	bne.n	8010b44 <elf_execve+0x98>
 8010b02:	78ab      	ldrb	r3, [r5, #2]
 8010b04:	2b4c      	cmp	r3, #76	@ 0x4c
 8010b06:	d11d      	bne.n	8010b44 <elf_execve+0x98>
 8010b08:	78eb      	ldrb	r3, [r5, #3]
 8010b0a:	2b46      	cmp	r3, #70	@ 0x46
 8010b0c:	d11a      	bne.n	8010b44 <elf_execve+0x98>
 8010b0e:	69ef      	ldr	r7, [r5, #28]
 8010b10:	442f      	add	r7, r5
 8010b12:	2600      	movs	r6, #0
 8010b14:	4634      	mov	r4, r6
 8010b16:	e02f      	b.n	8010b78 <elf_execve+0xcc>
 8010b18:	4621      	mov	r1, r4
 8010b1a:	4846      	ldr	r0, [pc, #280]	@ (8010c34 <elf_execve+0x188>)
 8010b1c:	f000 f8b2 	bl	8010c84 <kprintf>
 8010b20:	4648      	mov	r0, r9
 8010b22:	f008 ff75 	bl	8019a10 <irq_restore>
 8010b26:	f04f 30ff 	mov.w	r0, #4294967295	@ 0xffffffff
 8010b2a:	e016      	b.n	8010b5a <elf_execve+0xae>
 8010b2c:	4640      	mov	r0, r8
 8010b2e:	f005 f841 	bl	8015bb4 <fl_fclose>
 8010b32:	4628      	mov	r0, r5
 8010b34:	f000 f998 	bl	8010e68 <free>
 8010b38:	4648      	mov	r0, r9
 8010b3a:	f008 ff69 	bl	8019a10 <irq_restore>
 8010b3e:	f06f 0001 	mvn.w	r0, #1
 8010b42:	e00a      	b.n	8010b5a <elf_execve+0xae>
 8010b44:	4640      	mov	r0, r8
 8010b46:	f005 f835 	bl	8015bb4 <fl_fclose>
 8010b4a:	4628      	mov	r0, r5
 8010b4c:	f000 f98c 	bl	8010e68 <free>
 8010b50:	4648      	mov	r0, r9
 8010b52:	f008 ff5d 	bl	8019a10 <irq_restore>
 8010b56:	f06f 0002 	mvn.w	r0, #2
 8010b5a:	e8bd 87f0 	ldmia.w	sp!, {r4, r5, r6, r7, r8, r9, sl, pc}
 8010b5e:	e7fe      	b.n	8010b5e <elf_execve+0xb2>
 8010b60:	186b      	adds	r3, r5, r1
 8010b62:	5d1b      	ldrb	r3, [r3, r4]
 8010b64:	5513      	strb	r3, [r2, r4]
 8010b66:	3401      	adds	r4, #1
 8010b68:	693b      	ldr	r3, [r7, #16]
 8010b6a:	42a3      	cmp	r3, r4
 8010b6c:	d8f8      	bhi.n	8010b60 <elf_execve+0xb4>
 8010b6e:	4604      	mov	r4, r0
 8010b70:	8d6b      	ldrh	r3, [r5, #42]	@ 0x2a
 8010b72:	441f      	add	r7, r3
 8010b74:	3601      	adds	r6, #1
 8010b76:	b2b6      	uxth	r6, r6
 8010b78:	8dab      	ldrh	r3, [r5, #44]	@ 0x2c
 8010b7a:	42b3      	cmp	r3, r6
 8010b7c:	d910      	bls.n	8010ba0 <elf_execve+0xf4>
 8010b7e:	683b      	ldr	r3, [r7, #0]
 8010b80:	2b01      	cmp	r3, #1
 8010b82:	d1f5      	bne.n	8010b70 <elf_execve+0xc4>
 8010b84:	2c00      	cmp	r4, #0
 8010b86:	d1ea      	bne.n	8010b5e <elf_execve+0xb2>
 8010b88:	6978      	ldr	r0, [r7, #20]
 8010b8a:	3008      	adds	r0, #8
 8010b8c:	f000 f94c 	bl	8010e28 <malloc>
 8010b90:	f020 0007 	bic.w	r0, r0, #7
 8010b94:	f8ca 0000 	str.w	r0, [sl]
 8010b98:	6879      	ldr	r1, [r7, #4]
 8010b9a:	68ba      	ldr	r2, [r7, #8]
 8010b9c:	4402      	add	r2, r0
 8010b9e:	e7e3      	b.n	8010b68 <elf_execve+0xbc>
 8010ba0:	4925      	ldr	r1, [pc, #148]	@ (8010c38 <elf_execve+0x18c>)
 8010ba2:	4628      	mov	r0, r5
 8010ba4:	f7ff ff60 	bl	8010a68 <elf_find_section>
 8010ba8:	4603      	mov	r3, r0
 8010baa:	b158      	cbz	r0, 8010bc4 <elf_execve+0x118>
 8010bac:	68c0      	ldr	r0, [r0, #12]
 8010bae:	4420      	add	r0, r4
 8010bb0:	6959      	ldr	r1, [r3, #20]
 8010bb2:	0889      	lsrs	r1, r1, #2
 8010bb4:	2300      	movs	r3, #0
 8010bb6:	e003      	b.n	8010bc0 <elf_execve+0x114>
 8010bb8:	2200      	movs	r2, #0
 8010bba:	f840 2023 	str.w	r2, [r0, r3, lsl #2]
 8010bbe:	3301      	adds	r3, #1
 8010bc0:	428b      	cmp	r3, r1
 8010bc2:	d3f9      	bcc.n	8010bb8 <elf_execve+0x10c>
 8010bc4:	491d      	ldr	r1, [pc, #116]	@ (8010c3c <elf_execve+0x190>)
 8010bc6:	4628      	mov	r0, r5
 8010bc8:	f7ff ff4e 	bl	8010a68 <elf_find_section>
 8010bcc:	b168      	cbz	r0, 8010bea <elf_execve+0x13e>
 8010bce:	68c1      	ldr	r1, [r0, #12]
 8010bd0:	4421      	add	r1, r4
 8010bd2:	6940      	ldr	r0, [r0, #20]
 8010bd4:	0880      	lsrs	r0, r0, #2
 8010bd6:	2300      	movs	r3, #0
 8010bd8:	e005      	b.n	8010be6 <elf_execve+0x13a>
 8010bda:	f851 2023 	ldr.w	r2, [r1, r3, lsl #2]
 8010bde:	4422      	add	r2, r4
 8010be0:	f841 2023 	str.w	r2, [r1, r3, lsl #2]
 8010be4:	3301      	adds	r3, #1
 8010be6:	4283      	cmp	r3, r0
 8010be8:	d3f7      	bcc.n	8010bda <elf_execve+0x12e>
 8010bea:	4915      	ldr	r1, [pc, #84]	@ (8010c40 <elf_execve+0x194>)
 8010bec:	4628      	mov	r0, r5
 8010bee:	f7ff ff3b 	bl	8010a68 <elf_find_section>
 8010bf2:	b178      	cbz	r0, 8010c14 <elf_execve+0x168>
 8010bf4:	68c7      	ldr	r7, [r0, #12]
 8010bf6:	4427      	add	r7, r4
 8010bf8:	6943      	ldr	r3, [r0, #20]
 8010bfa:	ea4f 0a93 	mov.w	sl, r3, lsr #2
 8010bfe:	2600      	movs	r6, #0
 8010c00:	e006      	b.n	8010c10 <elf_execve+0x164>
 8010c02:	f857 3026 	ldr.w	r3, [r7, r6, lsl #2]
 8010c06:	4423      	add	r3, r4
 8010c08:	f847 3026 	str.w	r3, [r7, r6, lsl #2]
 8010c0c:	4798      	blx	r3
 8010c0e:	3601      	adds	r6, #1
 8010c10:	4556      	cmp	r6, sl
 8010c12:	d3f6      	bcc.n	8010c02 <elf_execve+0x156>
 8010c14:	4640      	mov	r0, r8
 8010c16:	f004 ffcd 	bl	8015bb4 <fl_fclose>
 8010c1a:	4628      	mov	r0, r5
 8010c1c:	f000 f924 	bl	8010e68 <free>
 8010c20:	4648      	mov	r0, r9
 8010c22:	f008 fef5 	bl	8019a10 <irq_restore>
 8010c26:	69a8      	ldr	r0, [r5, #24]
 8010c28:	4420      	add	r0, r4
 8010c2a:	f040 0001 	orr.w	r0, r0, #1
 8010c2e:	e794      	b.n	8010b5a <elf_execve+0xae>
 8010c30:	0801a028 	.word	0x0801a028
 8010c34:	08019f08 	.word	0x08019f08
 8010c38:	08019f18 	.word	0x08019f18
 8010c3c:	08019f20 	.word	0x08019f20
 8010c40:	08019f28 	.word	0x08019f28

08010c44 <lib_putc>:
 8010c44:	b510      	push	{r4, lr}
 8010c46:	b082      	sub	sp, #8
 8010c48:	9001      	str	r0, [sp, #4]
 8010c4a:	f008 fedd 	bl	8019a08 <irq_disable>
 8010c4e:	4604      	mov	r4, r0
 8010c50:	4b07      	ldr	r3, [pc, #28]	@ (8010c70 <lib_putc+0x2c>)
 8010c52:	681b      	ldr	r3, [r3, #0]
 8010c54:	69db      	ldr	r3, [r3, #28]
 8010c56:	2201      	movs	r2, #1
 8010c58:	a901      	add	r1, sp, #4
 8010c5a:	2081      	movs	r0, #129	@ 0x81
 8010c5c:	4798      	blx	r3
 8010c5e:	2800      	cmp	r0, #0
 8010c60:	dbf6      	blt.n	8010c50 <lib_putc+0xc>
 8010c62:	4620      	mov	r0, r4
 8010c64:	f008 fed4 	bl	8019a10 <irq_restore>
 8010c68:	2001      	movs	r0, #1
 8010c6a:	b002      	add	sp, #8
 8010c6c:	bd10      	pop	{r4, pc}
 8010c6e:	bf00      	nop
 8010c70:	200006d4 	.word	0x200006d4

08010c74 <lib_puts>:
 8010c74:	b508      	push	{r3, lr}
 8010c76:	460a      	mov	r2, r1
 8010c78:	4601      	mov	r1, r0
 8010c7a:	2002      	movs	r0, #2
 8010c7c:	f008 fed0 	bl	8019a20 <syscall>
 8010c80:	2001      	movs	r0, #1
 8010c82:	bd08      	pop	{r3, pc}

08010c84 <kprintf>:
 8010c84:	b40f      	push	{r0, r1, r2, r3}
 8010c86:	b500      	push	{lr}
 8010c88:	b083      	sub	sp, #12
 8010c8a:	a904      	add	r1, sp, #16
 8010c8c:	f851 0b04 	ldr.w	r0, [r1], #4
 8010c90:	9101      	str	r1, [sp, #4]
 8010c92:	4a04      	ldr	r2, [pc, #16]	@ (8010ca4 <kprintf+0x20>)
 8010c94:	f7ff fd30 	bl	80106f8 <_doprnt>
 8010c98:	2001      	movs	r0, #1
 8010c9a:	b003      	add	sp, #12
 8010c9c:	f85d eb04 	ldr.w	lr, [sp], #4
 8010ca0:	b004      	add	sp, #16
 8010ca2:	4770      	bx	lr
 8010ca4:	08010c45 	.word	0x08010c45

08010ca8 <__popcountsi2>:
 8010ca8:	0843      	lsrs	r3, r0, #1
 8010caa:	f003 3355 	and.w	r3, r3, #1431655765	@ 0x55555555
 8010cae:	1ac3      	subs	r3, r0, r3
 8010cb0:	0898      	lsrs	r0, r3, #2
 8010cb2:	f000 3033 	and.w	r0, r0, #858993459	@ 0x33333333
 8010cb6:	f003 3333 	and.w	r3, r3, #858993459	@ 0x33333333
 8010cba:	4418      	add	r0, r3
 8010cbc:	eb00 1010 	add.w	r0, r0, r0, lsr #4
 8010cc0:	f000 300f 	and.w	r0, r0, #252645135	@ 0xf0f0f0f
 8010cc4:	eb00 4010 	add.w	r0, r0, r0, lsr #16
 8010cc8:	eb00 2010 	add.w	r0, r0, r0, lsr #8
 8010ccc:	f000 003f 	and.w	r0, r0, #63	@ 0x3f
 8010cd0:	4770      	bx	lr
	...

08010cd4 <heap_free>:
 8010cd4:	4b04      	ldr	r3, [pc, #16]	@ (8010ce8 <heap_free+0x14>)
 8010cd6:	681b      	ldr	r3, [r3, #0]
 8010cd8:	2000      	movs	r0, #0
 8010cda:	e002      	b.n	8010ce2 <heap_free+0xe>
 8010cdc:	685a      	ldr	r2, [r3, #4]
 8010cde:	4410      	add	r0, r2
 8010ce0:	681b      	ldr	r3, [r3, #0]
 8010ce2:	2b00      	cmp	r3, #0
 8010ce4:	d1fa      	bne.n	8010cdc <heap_free+0x8>
 8010ce6:	4770      	bx	lr
 8010ce8:	20000108 	.word	0x20000108

08010cec <meminit>:
 8010cec:	b508      	push	{r3, lr}
 8010cee:	4809      	ldr	r0, [pc, #36]	@ (8010d14 <meminit+0x28>)
 8010cf0:	4b09      	ldr	r3, [pc, #36]	@ (8010d18 <meminit+0x2c>)
 8010cf2:	6083      	str	r3, [r0, #8]
 8010cf4:	4a09      	ldr	r2, [pc, #36]	@ (8010d1c <meminit+0x30>)
 8010cf6:	60c2      	str	r2, [r0, #12]
 8010cf8:	6003      	str	r3, [r0, #0]
 8010cfa:	2200      	movs	r2, #0
 8010cfc:	601a      	str	r2, [r3, #0]
 8010cfe:	f1c3 5200 	rsb	r2, r3, #536870912	@ 0x20000000
 8010d02:	f502 32fa 	add.w	r2, r2, #128000	@ 0x1f400
 8010d06:	605a      	str	r2, [r3, #4]
 8010d08:	6042      	str	r2, [r0, #4]
 8010d0a:	2101      	movs	r1, #1
 8010d0c:	3010      	adds	r0, #16
 8010d0e:	f007 fdd4 	bl	80188ba <sem_init>
 8010d12:	bd08      	pop	{r3, pc}
 8010d14:	20000108 	.word	0x20000108
 8010d18:	200028d0 	.word	0x200028d0
 8010d1c:	2001f400 	.word	0x2001f400

08010d20 <freemem>:
 8010d20:	2900      	cmp	r1, #0
 8010d22:	d042      	beq.n	8010daa <freemem+0x8a>
 8010d24:	460b      	mov	r3, r1
 8010d26:	4684      	mov	ip, r0
 8010d28:	4a27      	ldr	r2, [pc, #156]	@ (8010dc8 <freemem+0xa8>)
 8010d2a:	6892      	ldr	r2, [r2, #8]
 8010d2c:	4290      	cmp	r0, r2
 8010d2e:	d33f      	bcc.n	8010db0 <freemem+0x90>
 8010d30:	4a25      	ldr	r2, [pc, #148]	@ (8010dc8 <freemem+0xa8>)
 8010d32:	68d2      	ldr	r2, [r2, #12]
 8010d34:	4290      	cmp	r0, r2
 8010d36:	d83e      	bhi.n	8010db6 <freemem+0x96>
 8010d38:	b470      	push	{r4, r5, r6}
 8010d3a:	3307      	adds	r3, #7
 8010d3c:	f023 0407 	bic.w	r4, r3, #7
 8010d40:	4a21      	ldr	r2, [pc, #132]	@ (8010dc8 <freemem+0xa8>)
 8010d42:	6813      	ldr	r3, [r2, #0]
 8010d44:	e001      	b.n	8010d4a <freemem+0x2a>
 8010d46:	461a      	mov	r2, r3
 8010d48:	681b      	ldr	r3, [r3, #0]
 8010d4a:	b10b      	cbz	r3, 8010d50 <freemem+0x30>
 8010d4c:	4283      	cmp	r3, r0
 8010d4e:	d3fa      	bcc.n	8010d46 <freemem+0x26>
 8010d50:	491d      	ldr	r1, [pc, #116]	@ (8010dc8 <freemem+0xa8>)
 8010d52:	428a      	cmp	r2, r1
 8010d54:	d01b      	beq.n	8010d8e <freemem+0x6e>
 8010d56:	6851      	ldr	r1, [r2, #4]
 8010d58:	4411      	add	r1, r2
 8010d5a:	4d1b      	ldr	r5, [pc, #108]	@ (8010dc8 <freemem+0xa8>)
 8010d5c:	42aa      	cmp	r2, r5
 8010d5e:	d001      	beq.n	8010d64 <freemem+0x44>
 8010d60:	458c      	cmp	ip, r1
 8010d62:	d32b      	bcc.n	8010dbc <freemem+0x9c>
 8010d64:	b11b      	cbz	r3, 8010d6e <freemem+0x4e>
 8010d66:	eb0c 0504 	add.w	r5, ip, r4
 8010d6a:	429d      	cmp	r5, r3
 8010d6c:	d829      	bhi.n	8010dc2 <freemem+0xa2>
 8010d6e:	4e16      	ldr	r6, [pc, #88]	@ (8010dc8 <freemem+0xa8>)
 8010d70:	6875      	ldr	r5, [r6, #4]
 8010d72:	4425      	add	r5, r4
 8010d74:	6075      	str	r5, [r6, #4]
 8010d76:	458c      	cmp	ip, r1
 8010d78:	d00b      	beq.n	8010d92 <freemem+0x72>
 8010d7a:	6003      	str	r3, [r0, #0]
 8010d7c:	6044      	str	r4, [r0, #4]
 8010d7e:	6010      	str	r0, [r2, #0]
 8010d80:	6842      	ldr	r2, [r0, #4]
 8010d82:	1811      	adds	r1, r2, r0
 8010d84:	4299      	cmp	r1, r3
 8010d86:	d009      	beq.n	8010d9c <freemem+0x7c>
 8010d88:	2001      	movs	r0, #1
 8010d8a:	bc70      	pop	{r4, r5, r6}
 8010d8c:	4770      	bx	lr
 8010d8e:	2100      	movs	r1, #0
 8010d90:	e7e3      	b.n	8010d5a <freemem+0x3a>
 8010d92:	6851      	ldr	r1, [r2, #4]
 8010d94:	4421      	add	r1, r4
 8010d96:	6051      	str	r1, [r2, #4]
 8010d98:	4610      	mov	r0, r2
 8010d9a:	e7f1      	b.n	8010d80 <freemem+0x60>
 8010d9c:	6859      	ldr	r1, [r3, #4]
 8010d9e:	440a      	add	r2, r1
 8010da0:	6042      	str	r2, [r0, #4]
 8010da2:	681b      	ldr	r3, [r3, #0]
 8010da4:	6003      	str	r3, [r0, #0]
 8010da6:	2001      	movs	r0, #1
 8010da8:	e7ef      	b.n	8010d8a <freemem+0x6a>
 8010daa:	f04f 30ff 	mov.w	r0, #4294967295	@ 0xffffffff
 8010dae:	4770      	bx	lr
 8010db0:	f04f 30ff 	mov.w	r0, #4294967295	@ 0xffffffff
 8010db4:	4770      	bx	lr
 8010db6:	f04f 30ff 	mov.w	r0, #4294967295	@ 0xffffffff
 8010dba:	4770      	bx	lr
 8010dbc:	f04f 30ff 	mov.w	r0, #4294967295	@ 0xffffffff
 8010dc0:	e7e3      	b.n	8010d8a <freemem+0x6a>
 8010dc2:	f04f 30ff 	mov.w	r0, #4294967295	@ 0xffffffff
 8010dc6:	e7e0      	b.n	8010d8a <freemem+0x6a>
 8010dc8:	20000108 	.word	0x20000108

08010dcc <getmem>:
 8010dcc:	b338      	cbz	r0, 8010e1e <getmem+0x52>
 8010dce:	4602      	mov	r2, r0
 8010dd0:	3207      	adds	r2, #7
 8010dd2:	f022 0207 	bic.w	r2, r2, #7
 8010dd6:	4913      	ldr	r1, [pc, #76]	@ (8010e24 <getmem+0x58>)
 8010dd8:	6808      	ldr	r0, [r1, #0]
 8010dda:	e008      	b.n	8010dee <getmem+0x22>
 8010ddc:	6803      	ldr	r3, [r0, #0]
 8010dde:	600b      	str	r3, [r1, #0]
 8010de0:	4910      	ldr	r1, [pc, #64]	@ (8010e24 <getmem+0x58>)
 8010de2:	684b      	ldr	r3, [r1, #4]
 8010de4:	1a9b      	subs	r3, r3, r2
 8010de6:	604b      	str	r3, [r1, #4]
 8010de8:	4770      	bx	lr
 8010dea:	4601      	mov	r1, r0
 8010dec:	6800      	ldr	r0, [r0, #0]
 8010dee:	b198      	cbz	r0, 8010e18 <getmem+0x4c>
 8010df0:	6843      	ldr	r3, [r0, #4]
 8010df2:	4293      	cmp	r3, r2
 8010df4:	d0f2      	beq.n	8010ddc <getmem+0x10>
 8010df6:	4293      	cmp	r3, r2
 8010df8:	d9f7      	bls.n	8010dea <getmem+0x1e>
 8010dfa:	b410      	push	{r4}
 8010dfc:	1884      	adds	r4, r0, r2
 8010dfe:	600c      	str	r4, [r1, #0]
 8010e00:	6803      	ldr	r3, [r0, #0]
 8010e02:	5083      	str	r3, [r0, r2]
 8010e04:	6843      	ldr	r3, [r0, #4]
 8010e06:	1a9b      	subs	r3, r3, r2
 8010e08:	6063      	str	r3, [r4, #4]
 8010e0a:	4906      	ldr	r1, [pc, #24]	@ (8010e24 <getmem+0x58>)
 8010e0c:	684b      	ldr	r3, [r1, #4]
 8010e0e:	1a9b      	subs	r3, r3, r2
 8010e10:	604b      	str	r3, [r1, #4]
 8010e12:	f85d 4b04 	ldr.w	r4, [sp], #4
 8010e16:	4770      	bx	lr
 8010e18:	f04f 30ff 	mov.w	r0, #4294967295	@ 0xffffffff
 8010e1c:	4770      	bx	lr
 8010e1e:	f04f 30ff 	mov.w	r0, #4294967295	@ 0xffffffff
 8010e22:	4770      	bx	lr
 8010e24:	20000108 	.word	0x20000108

08010e28 <malloc>:
 8010e28:	b538      	push	{r3, r4, r5, lr}
 8010e2a:	4605      	mov	r5, r0
 8010e2c:	480d      	ldr	r0, [pc, #52]	@ (8010e64 <malloc+0x3c>)
 8010e2e:	f007 fd4e 	bl	80188ce <sem_wait>
 8010e32:	b17d      	cbz	r5, 8010e54 <malloc+0x2c>
 8010e34:	3508      	adds	r5, #8
 8010e36:	4628      	mov	r0, r5
 8010e38:	f7ff ffc8 	bl	8010dcc <getmem>
 8010e3c:	4604      	mov	r4, r0
 8010e3e:	f1b0 3fff 	cmp.w	r0, #4294967295	@ 0xffffffff
 8010e42:	d00c      	beq.n	8010e5e <malloc+0x36>
 8010e44:	6000      	str	r0, [r0, #0]
 8010e46:	6045      	str	r5, [r0, #4]
 8010e48:	4806      	ldr	r0, [pc, #24]	@ (8010e64 <malloc+0x3c>)
 8010e4a:	f007 fd61 	bl	8018910 <sem_signal>
 8010e4e:	f104 0008 	add.w	r0, r4, #8
 8010e52:	bd38      	pop	{r3, r4, r5, pc}
 8010e54:	4803      	ldr	r0, [pc, #12]	@ (8010e64 <malloc+0x3c>)
 8010e56:	f007 fd5b 	bl	8018910 <sem_signal>
 8010e5a:	2000      	movs	r0, #0
 8010e5c:	e7f9      	b.n	8010e52 <malloc+0x2a>
 8010e5e:	2000      	movs	r0, #0
 8010e60:	e7f7      	b.n	8010e52 <malloc+0x2a>
 8010e62:	bf00      	nop
 8010e64:	20000118 	.word	0x20000118

08010e68 <free>:
 8010e68:	b510      	push	{r4, lr}
 8010e6a:	4604      	mov	r4, r0
 8010e6c:	480a      	ldr	r0, [pc, #40]	@ (8010e98 <free+0x30>)
 8010e6e:	f007 fd2e 	bl	80188ce <sem_wait>
 8010e72:	f1a4 0008 	sub.w	r0, r4, #8
 8010e76:	f854 3c08 	ldr.w	r3, [r4, #-8]
 8010e7a:	4283      	cmp	r3, r0
 8010e7c:	d003      	beq.n	8010e86 <free+0x1e>
 8010e7e:	4806      	ldr	r0, [pc, #24]	@ (8010e98 <free+0x30>)
 8010e80:	f007 fd46 	bl	8018910 <sem_signal>
 8010e84:	bd10      	pop	{r4, pc}
 8010e86:	f854 1c04 	ldr.w	r1, [r4, #-4]
 8010e8a:	f7ff ff49 	bl	8010d20 <freemem>
 8010e8e:	4802      	ldr	r0, [pc, #8]	@ (8010e98 <free+0x30>)
 8010e90:	f007 fd3e 	bl	8018910 <sem_signal>
 8010e94:	e7f6      	b.n	8010e84 <free+0x1c>
 8010e96:	bf00      	nop
 8010e98:	20000118 	.word	0x20000118

08010e9c <atangentf>:
 8010e9c:	b510      	push	{r4, lr}
 8010e9e:	ed2d 8b04 	vpush	{d8-d9}
 8010ea2:	b082      	sub	sp, #8
 8010ea4:	eeb0 9a40 	vmov.f32	s18, s0
 8010ea8:	eef0 8a60 	vmov.f32	s17, s1
 8010eac:	eeb0 8a41 	vmov.f32	s16, s2
 8010eb0:	4604      	mov	r4, r0
 8010eb2:	b1f8      	cbz	r0, 8010ef4 <atangentf+0x58>
 8010eb4:	eeb5 1a40 	vcmp.f32	s2, #0.0
 8010eb8:	eef1 fa10 	vmrs	APSR_nzcv, fpscr
 8010ebc:	d108      	bne.n	8010ed0 <atangentf+0x34>
 8010ebe:	eef5 0a40 	vcmp.f32	s1, #0.0
 8010ec2:	eef1 fa10 	vmrs	APSR_nzcv, fpscr
 8010ec6:	f000 809e 	beq.w	8011006 <atangentf+0x16a>
 8010eca:	ed9f 0a50 	vldr	s0, [pc, #320]	@ 801100c <atangentf+0x170>
 8010ece:	e06c      	b.n	8010faa <atangentf+0x10e>
 8010ed0:	a801      	add	r0, sp, #4
 8010ed2:	eeb0 0a60 	vmov.f32	s0, s1
 8010ed6:	f000 f8e2 	bl	801109e <frexpf>
 8010eda:	4668      	mov	r0, sp
 8010edc:	eeb0 0a48 	vmov.f32	s0, s16
 8010ee0:	f000 f8dd 	bl	801109e <frexpf>
 8010ee4:	9b01      	ldr	r3, [sp, #4]
 8010ee6:	9a00      	ldr	r2, [sp, #0]
 8010ee8:	1a9b      	subs	r3, r3, r2
 8010eea:	2b80      	cmp	r3, #128	@ 0x80
 8010eec:	dc75      	bgt.n	8010fda <atangentf+0x13e>
 8010eee:	f113 0f7d 	cmn.w	r3, #125	@ 0x7d
 8010ef2:	db75      	blt.n	8010fe0 <atangentf+0x144>
 8010ef4:	2c00      	cmp	r4, #0
 8010ef6:	d067      	beq.n	8010fc8 <atangentf+0x12c>
 8010ef8:	ee88 0a88 	vdiv.f32	s0, s17, s16
 8010efc:	f000 fbdb 	bl	80116b6 <fabsf>
 8010f00:	eef0 7a40 	vmov.f32	s15, s0
 8010f04:	eeb7 7a00 	vmov.f32	s14, #112	@ 0x3f800000  1.0
 8010f08:	eef4 7ac7 	vcmpe.f32	s15, s14
 8010f0c:	eef1 fa10 	vmrs	APSR_nzcv, fpscr
 8010f10:	dd61      	ble.n	8010fd6 <atangentf+0x13a>
 8010f12:	eec7 7a27 	vdiv.f32	s15, s14, s15
 8010f16:	2202      	movs	r2, #2
 8010f18:	ed9f 7a3d 	vldr	s14, [pc, #244]	@ 8011010 <atangentf+0x174>
 8010f1c:	eef4 7ac7 	vcmpe.f32	s15, s14
 8010f20:	eef1 fa10 	vmrs	APSR_nzcv, fpscr
 8010f24:	dd12      	ble.n	8010f4c <atangentf+0xb0>
 8010f26:	ed9f 7a3b 	vldr	s14, [pc, #236]	@ 8011014 <atangentf+0x178>
 8010f2a:	ee27 7a87 	vmul.f32	s14, s15, s14
 8010f2e:	eef6 6a00 	vmov.f32	s13, #96	@ 0x3f000000  0.5
 8010f32:	ee37 7a66 	vsub.f32	s14, s14, s13
 8010f36:	ee37 7a66 	vsub.f32	s14, s14, s13
 8010f3a:	ee37 7a27 	vadd.f32	s14, s14, s15
 8010f3e:	eddf 6a36 	vldr	s13, [pc, #216]	@ 8011018 <atangentf+0x17c>
 8010f42:	ee77 6aa6 	vadd.f32	s13, s15, s13
 8010f46:	eec7 7a26 	vdiv.f32	s15, s14, s13
 8010f4a:	3201      	adds	r2, #1
 8010f4c:	ed9f 7a33 	vldr	s14, [pc, #204]	@ 801101c <atangentf+0x180>
 8010f50:	eef4 7ac7 	vcmpe.f32	s15, s14
 8010f54:	eef1 fa10 	vmrs	APSR_nzcv, fpscr
 8010f58:	dd06      	ble.n	8010f68 <atangentf+0xcc>
 8010f5a:	ed9f 7a31 	vldr	s14, [pc, #196]	@ 8011020 <atangentf+0x184>
 8010f5e:	eef4 7ac7 	vcmpe.f32	s15, s14
 8010f62:	eef1 fa10 	vmrs	APSR_nzcv, fpscr
 8010f66:	d415      	bmi.n	8010f94 <atangentf+0xf8>
 8010f68:	ee67 6aa7 	vmul.f32	s13, s15, s15
 8010f6c:	ed9f 7a2d 	vldr	s14, [pc, #180]	@ 8011024 <atangentf+0x188>
 8010f70:	ee26 7a87 	vmul.f32	s14, s13, s14
 8010f74:	ed9f 6a2c 	vldr	s12, [pc, #176]	@ 8011028 <atangentf+0x18c>
 8010f78:	ee37 7a46 	vsub.f32	s14, s14, s12
 8010f7c:	ee27 7a26 	vmul.f32	s14, s14, s13
 8010f80:	ed9f 6a2a 	vldr	s12, [pc, #168]	@ 801102c <atangentf+0x190>
 8010f84:	ee76 6a86 	vadd.f32	s13, s13, s12
 8010f88:	ee87 6a26 	vdiv.f32	s12, s14, s13
 8010f8c:	ee27 7a86 	vmul.f32	s14, s15, s12
 8010f90:	ee77 7a87 	vadd.f32	s15, s15, s14
 8010f94:	2a01      	cmp	r2, #1
 8010f96:	dd01      	ble.n	8010f9c <atangentf+0x100>
 8010f98:	eef1 7a67 	vneg.f32	s15, s15
 8010f9c:	4b24      	ldr	r3, [pc, #144]	@ (8011030 <atangentf+0x194>)
 8010f9e:	eb03 0382 	add.w	r3, r3, r2, lsl #2
 8010fa2:	ed93 7a00 	vldr	s14, [r3]
 8010fa6:	ee37 0a27 	vadd.f32	s0, s14, s15
 8010faa:	b324      	cbz	r4, 8010ff6 <atangentf+0x15a>
 8010fac:	eeb5 8ac0 	vcmpe.f32	s16, #0.0
 8010fb0:	eef1 fa10 	vmrs	APSR_nzcv, fpscr
 8010fb4:	d417      	bmi.n	8010fe6 <atangentf+0x14a>
 8010fb6:	eef5 8ac0 	vcmpe.f32	s17, #0.0
 8010fba:	eef1 fa10 	vmrs	APSR_nzcv, fpscr
 8010fbe:	d417      	bmi.n	8010ff0 <atangentf+0x154>
 8010fc0:	b002      	add	sp, #8
 8010fc2:	ecbd 8b04 	vpop	{d8-d9}
 8010fc6:	bd10      	pop	{r4, pc}
 8010fc8:	eeb0 0a49 	vmov.f32	s0, s18
 8010fcc:	f000 fb73 	bl	80116b6 <fabsf>
 8010fd0:	eef0 7a40 	vmov.f32	s15, s0
 8010fd4:	e796      	b.n	8010f04 <atangentf+0x68>
 8010fd6:	2200      	movs	r2, #0
 8010fd8:	e79e      	b.n	8010f18 <atangentf+0x7c>
 8010fda:	ed9f 0a0c 	vldr	s0, [pc, #48]	@ 801100c <atangentf+0x170>
 8010fde:	e7e4      	b.n	8010faa <atangentf+0x10e>
 8010fe0:	ed9f 0a14 	vldr	s0, [pc, #80]	@ 8011034 <atangentf+0x198>
 8010fe4:	e7e1      	b.n	8010faa <atangentf+0x10e>
 8010fe6:	eddf 7a14 	vldr	s15, [pc, #80]	@ 8011038 <atangentf+0x19c>
 8010fea:	ee37 0ac0 	vsub.f32	s0, s15, s0
 8010fee:	e7e2      	b.n	8010fb6 <atangentf+0x11a>
 8010ff0:	eeb1 0a40 	vneg.f32	s0, s0
 8010ff4:	e7e4      	b.n	8010fc0 <atangentf+0x124>
 8010ff6:	eeb5 9ac0 	vcmpe.f32	s18, #0.0
 8010ffa:	eef1 fa10 	vmrs	APSR_nzcv, fpscr
 8010ffe:	d5df      	bpl.n	8010fc0 <atangentf+0x124>
 8011000:	eeb1 0a40 	vneg.f32	s0, s0
 8011004:	e7dc      	b.n	8010fc0 <atangentf+0x124>
 8011006:	ed9f 0a0d 	vldr	s0, [pc, #52]	@ 801103c <atangentf+0x1a0>
 801100a:	e7d9      	b.n	8010fc0 <atangentf+0x124>
 801100c:	3fc90fdb 	.word	0x3fc90fdb
 8011010:	3e8930a4 	.word	0x3e8930a4
 8011014:	3f3b67ae 	.word	0x3f3b67ae
 8011018:	3fddb3d7 	.word	0x3fddb3d7
 801101c:	b93504f3 	.word	0xb93504f3
 8011020:	393504f3 	.word	0x393504f3
 8011024:	bd508691 	.word	0xbd508691
 8011028:	3ef110f6 	.word	0x3ef110f6
 801102c:	3fb4ccd3 	.word	0x3fb4ccd3
 8011030:	08019ae4 	.word	0x08019ae4
 8011034:	00000000 	.word	0x00000000
 8011038:	40490fdb 	.word	0x40490fdb
 801103c:	4f7fd000 	.word	0x4f7fd000

08011040 <atanf>:
 8011040:	b508      	push	{r3, lr}
 8011042:	ed2d 8b02 	vpush	{d8}
 8011046:	eeb0 8a40 	vmov.f32	s16, s0
 801104a:	f000 f81f 	bl	801108c <numtestf>
 801104e:	2801      	cmp	r0, #1
 8011050:	d00c      	beq.n	801106c <atanf+0x2c>
 8011052:	2802      	cmp	r0, #2
 8011054:	d00d      	beq.n	8011072 <atanf+0x32>
 8011056:	b188      	cbz	r0, 801107c <atanf+0x3c>
 8011058:	eddf 0a0a 	vldr	s1, [pc, #40]	@ 8011084 <atanf+0x44>
 801105c:	2000      	movs	r0, #0
 801105e:	eeb0 1a60 	vmov.f32	s2, s1
 8011062:	eeb0 0a48 	vmov.f32	s0, s16
 8011066:	f7ff ff19 	bl	8010e9c <atangentf>
 801106a:	e004      	b.n	8011076 <atanf+0x36>
 801106c:	ed9f 0a06 	vldr	s0, [pc, #24]	@ 8011088 <atanf+0x48>
 8011070:	e001      	b.n	8011076 <atanf+0x36>
 8011072:	eeb0 0a48 	vmov.f32	s0, s16
 8011076:	ecbd 8b02 	vpop	{d8}
 801107a:	bd08      	pop	{r3, pc}
 801107c:	ed9f 0a01 	vldr	s0, [pc, #4]	@ 8011084 <atanf+0x44>
 8011080:	e7f9      	b.n	8011076 <atanf+0x36>
 8011082:	bf00      	nop
 8011084:	00000000 	.word	0x00000000
 8011088:	3fc90fdb 	.word	0x3fc90fdb

0801108c <numtestf>:
 801108c:	eeb5 0a40 	vcmp.f32	s0, #0.0
 8011090:	eef1 fa10 	vmrs	APSR_nzcv, fpscr
 8011094:	d101      	bne.n	801109a <numtestf+0xe>
 8011096:	2000      	movs	r0, #0
 8011098:	4770      	bx	lr
 801109a:	2003      	movs	r0, #3
 801109c:	4770      	bx	lr

0801109e <frexpf>:
 801109e:	b538      	push	{r3, r4, r5, lr}
 80110a0:	ee10 4a10 	vmov	r4, s0
 80110a4:	4605      	mov	r5, r0
 80110a6:	f7ff fff1 	bl	801108c <numtestf>
 80110aa:	2802      	cmp	r0, #2
 80110ac:	d804      	bhi.n	80110b8 <frexpf+0x1a>
 80110ae:	2300      	movs	r3, #0
 80110b0:	602b      	str	r3, [r5, #0]
 80110b2:	ee00 4a10 	vmov	s0, r4
 80110b6:	bd38      	pop	{r3, r4, r5, pc}
 80110b8:	f3c4 53c7 	ubfx	r3, r4, #23, #8
 80110bc:	3b7e      	subs	r3, #126	@ 0x7e
 80110be:	602b      	str	r3, [r5, #0]
 80110c0:	f3c4 0416 	ubfx	r4, r4, #0, #23
 80110c4:	f044 537c 	orr.w	r3, r4, #1056964608	@ 0x3f000000
 80110c8:	ee00 3a10 	vmov	s0, r3
 80110cc:	e7f3      	b.n	80110b6 <frexpf+0x18>

080110ce <logarithm>:
 80110ce:	eeb5 0a40 	vcmp.f32	s0, #0.0
 80110d2:	eef1 fa10 	vmrs	APSR_nzcv, fpscr
 80110d6:	d069      	beq.n	80111ac <logarithm+0xde>
 80110d8:	b510      	push	{r4, lr}
 80110da:	b082      	sub	sp, #8
 80110dc:	4604      	mov	r4, r0
 80110de:	eeb5 0ac0 	vcmpe.f32	s0, #0.0
 80110e2:	eef1 fa10 	vmrs	APSR_nzcv, fpscr
 80110e6:	d464      	bmi.n	80111b2 <logarithm+0xe4>
 80110e8:	ee10 3a10 	vmov	r3, s0
 80110ec:	f023 4200 	bic.w	r2, r3, #2147483648	@ 0x80000000
 80110f0:	f102 4300 	add.w	r3, r2, #2147483648	@ 0x80000000
 80110f4:	f503 1380 	add.w	r3, r3, #1048576	@ 0x100000
 80110f8:	2b00      	cmp	r3, #0
 80110fa:	db05      	blt.n	8011108 <logarithm+0x3a>
 80110fc:	f1b2 4fff 	cmp.w	r2, #2139095040	@ 0x7f800000
 8011100:	d95b      	bls.n	80111ba <logarithm+0xec>
 8011102:	ed9f 0a2f 	vldr	s0, [pc, #188]	@ 80111c0 <logarithm+0xf2>
 8011106:	e056      	b.n	80111b6 <logarithm+0xe8>
 8011108:	a801      	add	r0, sp, #4
 801110a:	f7ff ffc8 	bl	801109e <frexpf>
 801110e:	eef6 7a00 	vmov.f32	s15, #96	@ 0x3f000000  0.5
 8011112:	ee70 7a67 	vsub.f32	s15, s0, s15
 8011116:	ed9f 7a2b 	vldr	s14, [pc, #172]	@ 80111c4 <logarithm+0xf6>
 801111a:	eeb4 0ac7 	vcmpe.f32	s0, s14
 801111e:	eef1 fa10 	vmrs	APSR_nzcv, fpscr
 8011122:	dd37      	ble.n	8011194 <logarithm+0xc6>
 8011124:	eeb6 7a00 	vmov.f32	s14, #96	@ 0x3f000000  0.5
 8011128:	ee77 7ac7 	vsub.f32	s15, s15, s14
 801112c:	ee20 0a07 	vmul.f32	s0, s0, s14
 8011130:	ee30 0a07 	vadd.f32	s0, s0, s14
 8011134:	ee87 7a80 	vdiv.f32	s14, s15, s0
 8011138:	ee27 6a07 	vmul.f32	s12, s14, s14
 801113c:	ee67 6a06 	vmul.f32	s13, s14, s12
 8011140:	eddf 7a21 	vldr	s15, [pc, #132]	@ 80111c8 <logarithm+0xfa>
 8011144:	ee66 6aa7 	vmul.f32	s13, s13, s15
 8011148:	eef7 7a00 	vmov.f32	s15, #112	@ 0x3f800000  1.0
 801114c:	ee76 7a27 	vadd.f32	s15, s12, s15
 8011150:	ee67 7a86 	vmul.f32	s15, s15, s12
 8011154:	ed9f 6a1d 	vldr	s12, [pc, #116]	@ 80111cc <logarithm+0xfe>
 8011158:	ee77 7ac6 	vsub.f32	s15, s15, s12
 801115c:	ee86 0aa7 	vdiv.f32	s0, s13, s15
 8011160:	ee30 0a07 	vadd.f32	s0, s0, s14
 8011164:	9b01      	ldr	r3, [sp, #4]
 8011166:	b17b      	cbz	r3, 8011188 <logarithm+0xba>
 8011168:	ee07 3a90 	vmov	s15, r3
 801116c:	eef8 7ae7 	vcvt.f32.s32	s15, s15
 8011170:	ed9f 7a17 	vldr	s14, [pc, #92]	@ 80111d0 <logarithm+0x102>
 8011174:	ee27 7a87 	vmul.f32	s14, s15, s14
 8011178:	ee37 0a00 	vadd.f32	s0, s14, s0
 801117c:	ed9f 7a15 	vldr	s14, [pc, #84]	@ 80111d4 <logarithm+0x106>
 8011180:	ee67 7a87 	vmul.f32	s15, s15, s14
 8011184:	ee30 0a27 	vadd.f32	s0, s0, s15
 8011188:	b1ac      	cbz	r4, 80111b6 <logarithm+0xe8>
 801118a:	eddf 7a13 	vldr	s15, [pc, #76]	@ 80111d8 <logarithm+0x10a>
 801118e:	ee20 0a27 	vmul.f32	s0, s0, s15
 8011192:	e010      	b.n	80111b6 <logarithm+0xe8>
 8011194:	9b01      	ldr	r3, [sp, #4]
 8011196:	3b01      	subs	r3, #1
 8011198:	9301      	str	r3, [sp, #4]
 801119a:	eeb6 7a00 	vmov.f32	s14, #96	@ 0x3f000000  0.5
 801119e:	ee67 6a87 	vmul.f32	s13, s15, s14
 80111a2:	ee76 6a87 	vadd.f32	s13, s13, s14
 80111a6:	ee87 7aa6 	vdiv.f32	s14, s15, s13
 80111aa:	e7c5      	b.n	8011138 <logarithm+0x6a>
 80111ac:	ed9f 0a0b 	vldr	s0, [pc, #44]	@ 80111dc <logarithm+0x10e>
 80111b0:	4770      	bx	lr
 80111b2:	ed9f 0a03 	vldr	s0, [pc, #12]	@ 80111c0 <logarithm+0xf2>
 80111b6:	b002      	add	sp, #8
 80111b8:	bd10      	pop	{r4, pc}
 80111ba:	ed9f 0a09 	vldr	s0, [pc, #36]	@ 80111e0 <logarithm+0x112>
 80111be:	e7fa      	b.n	80111b6 <logarithm+0xe8>
 80111c0:	4f7fd000 	.word	0x4f7fd000
 80111c4:	3f3504f3 	.word	0x3f3504f3
 80111c8:	bf0d7e3d 	.word	0xbf0d7e3d
 80111cc:	40d43f3a 	.word	0x40d43f3a
 80111d0:	35bfbe8e 	.word	0x35bfbe8e
 80111d4:	3f317200 	.word	0x3f317200
 80111d8:	3ede5bd9 	.word	0x3ede5bd9
 80111dc:	ceff0000 	.word	0xceff0000
 80111e0:	4eff0000 	.word	0x4eff0000

080111e4 <modff>:
 80111e4:	ee10 3a10 	vmov	r3, s0
 80111e8:	f3c3 52c7 	ubfx	r2, r3, #23, #8
 80111ec:	3a7f      	subs	r2, #127	@ 0x7f
 80111ee:	2a16      	cmp	r2, #22
 80111f0:	dc1c      	bgt.n	801122c <modff+0x48>
 80111f2:	2a00      	cmp	r2, #0
 80111f4:	db0e      	blt.n	8011214 <modff+0x30>
 80111f6:	b410      	push	{r4}
 80111f8:	4c10      	ldr	r4, [pc, #64]	@ (801123c <modff+0x58>)
 80111fa:	fa44 f202 	asr.w	r2, r4, r2
 80111fe:	4213      	tst	r3, r2
 8011200:	d10c      	bne.n	801121c <modff+0x38>
 8011202:	ed80 0a00 	vstr	s0, [r0]
 8011206:	f003 4300 	and.w	r3, r3, #2147483648	@ 0x80000000
 801120a:	ee00 3a10 	vmov	s0, r3
 801120e:	f85d 4b04 	ldr.w	r4, [sp], #4
 8011212:	4770      	bx	lr
 8011214:	f003 4100 	and.w	r1, r3, #2147483648	@ 0x80000000
 8011218:	6001      	str	r1, [r0, #0]
 801121a:	4770      	bx	lr
 801121c:	ea23 0102 	bic.w	r1, r3, r2
 8011220:	6001      	str	r1, [r0, #0]
 8011222:	ee07 1a10 	vmov	s14, r1
 8011226:	ee30 0a47 	vsub.f32	s0, s0, s14
 801122a:	e7f0      	b.n	801120e <modff+0x2a>
 801122c:	ed80 0a00 	vstr	s0, [r0]
 8011230:	f003 4300 	and.w	r3, r3, #2147483648	@ 0x80000000
 8011234:	ee00 3a10 	vmov	s0, r3
 8011238:	4770      	bx	lr
 801123a:	bf00      	nop
 801123c:	007fffff 	.word	0x007fffff

08011240 <floorf>:
 8011240:	b500      	push	{lr}
 8011242:	ed2d 8b02 	vpush	{d8}
 8011246:	b083      	sub	sp, #12
 8011248:	eeb0 8a40 	vmov.f32	s16, s0
 801124c:	eeff 7a00 	vmov.f32	s15, #240	@ 0xbf800000 -1.0
 8011250:	eeb4 0ae7 	vcmpe.f32	s0, s15
 8011254:	eef1 fa10 	vmrs	APSR_nzcv, fpscr
 8011258:	dd06      	ble.n	8011268 <floorf+0x28>
 801125a:	eef7 7a00 	vmov.f32	s15, #112	@ 0x3f800000  1.0
 801125e:	eeb4 0ae7 	vcmpe.f32	s0, s15
 8011262:	eef1 fa10 	vmrs	APSR_nzcv, fpscr
 8011266:	d415      	bmi.n	8011294 <floorf+0x54>
 8011268:	a801      	add	r0, sp, #4
 801126a:	eeb0 0a48 	vmov.f32	s0, s16
 801126e:	f7ff ffb9 	bl	80111e4 <modff>
 8011272:	eeb5 0a40 	vcmp.f32	s0, #0.0
 8011276:	eef1 fa10 	vmrs	APSR_nzcv, fpscr
 801127a:	d01d      	beq.n	80112b8 <floorf+0x78>
 801127c:	eeb5 8ac0 	vcmpe.f32	s16, #0.0
 8011280:	eef1 fa10 	vmrs	APSR_nzcv, fpscr
 8011284:	db11      	blt.n	80112aa <floorf+0x6a>
 8011286:	ed9d 0a01 	vldr	s0, [sp, #4]
 801128a:	b003      	add	sp, #12
 801128c:	ecbd 8b02 	vpop	{d8}
 8011290:	f85d fb04 	ldr.w	pc, [sp], #4
 8011294:	eeb5 0ac0 	vcmpe.f32	s0, #0.0
 8011298:	eef1 fa10 	vmrs	APSR_nzcv, fpscr
 801129c:	db02      	blt.n	80112a4 <floorf+0x64>
 801129e:	ed9f 0a08 	vldr	s0, [pc, #32]	@ 80112c0 <floorf+0x80>
 80112a2:	e7f2      	b.n	801128a <floorf+0x4a>
 80112a4:	eebf 0a00 	vmov.f32	s0, #240	@ 0xbf800000 -1.0
 80112a8:	e7ef      	b.n	801128a <floorf+0x4a>
 80112aa:	ed9d 0a01 	vldr	s0, [sp, #4]
 80112ae:	eef7 7a00 	vmov.f32	s15, #112	@ 0x3f800000  1.0
 80112b2:	ee30 0a67 	vsub.f32	s0, s0, s15
 80112b6:	e7e8      	b.n	801128a <floorf+0x4a>
 80112b8:	eeb0 0a48 	vmov.f32	s0, s16
 80112bc:	e7e5      	b.n	801128a <floorf+0x4a>
 80112be:	bf00      	nop
 80112c0:	00000000 	.word	0x00000000

080112c4 <ldexpf>:
 80112c4:	b538      	push	{r3, r4, r5, lr}
 80112c6:	ed2d 8b02 	vpush	{d8}
 80112ca:	eeb0 8a40 	vmov.f32	s16, s0
 80112ce:	4604      	mov	r4, r0
 80112d0:	ee10 5a10 	vmov	r5, s0
 80112d4:	eeb8 0ac0 	vcvt.f32.s32	s0, s0
 80112d8:	f7ff fed8 	bl	801108c <numtestf>
 80112dc:	2802      	cmp	r0, #2
 80112de:	d90f      	bls.n	8011300 <ldexpf+0x3c>
 80112e0:	f3c5 53c7 	ubfx	r3, r5, #23, #8
 80112e4:	1918      	adds	r0, r3, r4
 80112e6:	28ff      	cmp	r0, #255	@ 0xff
 80112e8:	dc08      	bgt.n	80112fc <ldexpf+0x38>
 80112ea:	2801      	cmp	r0, #1
 80112ec:	dd0d      	ble.n	801130a <ldexpf+0x46>
 80112ee:	f025 45ff 	bic.w	r5, r5, #2139095040	@ 0x7f800000
 80112f2:	ea45 53c0 	orr.w	r3, r5, r0, lsl #23
 80112f6:	ee08 3a10 	vmov	s16, r3
 80112fa:	e001      	b.n	8011300 <ldexpf+0x3c>
 80112fc:	ed9f 8a04 	vldr	s16, [pc, #16]	@ 8011310 <ldexpf+0x4c>
 8011300:	eeb0 0a48 	vmov.f32	s0, s16
 8011304:	ecbd 8b02 	vpop	{d8}
 8011308:	bd38      	pop	{r3, r4, r5, pc}
 801130a:	ed9f 8a02 	vldr	s16, [pc, #8]	@ 8011314 <ldexpf+0x50>
 801130e:	e7f7      	b.n	8011300 <ldexpf+0x3c>
 8011310:	4eff0000 	.word	0x4eff0000
 8011314:	ceff0000 	.word	0xceff0000

08011318 <expf>:
 8011318:	b508      	push	{r3, lr}
 801131a:	ed2d 8b02 	vpush	{d8}
 801131e:	eeb0 8a40 	vmov.f32	s16, s0
 8011322:	f7ff feb3 	bl	801108c <numtestf>
 8011326:	2801      	cmp	r0, #1
 8011328:	d056      	beq.n	80113d8 <expf+0xc0>
 801132a:	2802      	cmp	r0, #2
 801132c:	d066      	beq.n	80113fc <expf+0xe4>
 801132e:	2800      	cmp	r0, #0
 8011330:	d069      	beq.n	8011406 <expf+0xee>
 8011332:	eddf 7a3c 	vldr	s15, [pc, #240]	@ 8011424 <expf+0x10c>
 8011336:	eeb4 8ae7 	vcmpe.f32	s16, s15
 801133a:	eef1 fa10 	vmrs	APSR_nzcv, fpscr
 801133e:	dc68      	bgt.n	8011412 <expf+0xfa>
 8011340:	eddf 7a39 	vldr	s15, [pc, #228]	@ 8011428 <expf+0x110>
 8011344:	eeb4 8ae7 	vcmpe.f32	s16, s15
 8011348:	eef1 fa10 	vmrs	APSR_nzcv, fpscr
 801134c:	d464      	bmi.n	8011418 <expf+0x100>
 801134e:	eddf 7a37 	vldr	s15, [pc, #220]	@ 801142c <expf+0x114>
 8011352:	eeb4 8ae7 	vcmpe.f32	s16, s15
 8011356:	eef1 fa10 	vmrs	APSR_nzcv, fpscr
 801135a:	dd06      	ble.n	801136a <expf+0x52>
 801135c:	eddf 7a34 	vldr	s15, [pc, #208]	@ 8011430 <expf+0x118>
 8011360:	eeb4 8ae7 	vcmpe.f32	s16, s15
 8011364:	eef1 fa10 	vmrs	APSR_nzcv, fpscr
 8011368:	d459      	bmi.n	801141e <expf+0x106>
 801136a:	eeb5 8ac0 	vcmpe.f32	s16, #0.0
 801136e:	eef1 fa10 	vmrs	APSR_nzcv, fpscr
 8011372:	d438      	bmi.n	80113e6 <expf+0xce>
 8011374:	eddf 7a2f 	vldr	s15, [pc, #188]	@ 8011434 <expf+0x11c>
 8011378:	ee68 7a27 	vmul.f32	s15, s16, s15
 801137c:	eeb6 7a00 	vmov.f32	s14, #96	@ 0x3f000000  0.5
 8011380:	ee77 7a87 	vadd.f32	s15, s15, s14
 8011384:	eefd 7ae7 	vcvt.s32.f32	s15, s15
 8011388:	eeb8 6ae7 	vcvt.f32.s32	s12, s15
 801138c:	ed9f 7a2a 	vldr	s14, [pc, #168]	@ 8011438 <expf+0x120>
 8011390:	ee26 6a07 	vmul.f32	s12, s12, s14
 8011394:	ee38 6a46 	vsub.f32	s12, s16, s12
 8011398:	ee26 7a06 	vmul.f32	s14, s12, s12
 801139c:	eddf 6a27 	vldr	s13, [pc, #156]	@ 801143c <expf+0x124>
 80113a0:	ee67 6a26 	vmul.f32	s13, s14, s13
 80113a4:	eef5 5a00 	vmov.f32	s11, #80	@ 0x3e800000  0.250
 80113a8:	ee76 6aa5 	vadd.f32	s13, s13, s11
 80113ac:	ee66 6a86 	vmul.f32	s13, s13, s12
 80113b0:	ed9f 6a23 	vldr	s12, [pc, #140]	@ 8011440 <expf+0x128>
 80113b4:	ee27 7a06 	vmul.f32	s14, s14, s12
 80113b8:	eeb6 6a00 	vmov.f32	s12, #96	@ 0x3f000000  0.5
 80113bc:	ee37 7a06 	vadd.f32	s14, s14, s12
 80113c0:	ee37 7a66 	vsub.f32	s14, s14, s13
 80113c4:	ee86 0a87 	vdiv.f32	s0, s13, s14
 80113c8:	ee17 0a90 	vmov	r0, s15
 80113cc:	3001      	adds	r0, #1
 80113ce:	ee30 0a06 	vadd.f32	s0, s0, s12
 80113d2:	f7ff ff77 	bl	80112c4 <ldexpf>
 80113d6:	e013      	b.n	8011400 <expf+0xe8>
 80113d8:	ee18 3a10 	vmov	r3, s16
 80113dc:	2b00      	cmp	r3, #0
 80113de:	db15      	blt.n	801140c <expf+0xf4>
 80113e0:	ed9f 0a18 	vldr	s0, [pc, #96]	@ 8011444 <expf+0x12c>
 80113e4:	e00c      	b.n	8011400 <expf+0xe8>
 80113e6:	eddf 7a13 	vldr	s15, [pc, #76]	@ 8011434 <expf+0x11c>
 80113ea:	ee68 7a27 	vmul.f32	s15, s16, s15
 80113ee:	eeb6 7a00 	vmov.f32	s14, #96	@ 0x3f000000  0.5
 80113f2:	ee77 7ac7 	vsub.f32	s15, s15, s14
 80113f6:	eefd 7ae7 	vcvt.s32.f32	s15, s15
 80113fa:	e7c5      	b.n	8011388 <expf+0x70>
 80113fc:	eeb0 0a48 	vmov.f32	s0, s16
 8011400:	ecbd 8b02 	vpop	{d8}
 8011404:	bd08      	pop	{r3, pc}
 8011406:	eeb7 0a00 	vmov.f32	s0, #112	@ 0x3f800000  1.0
 801140a:	e7f9      	b.n	8011400 <expf+0xe8>
 801140c:	ed9f 0a0e 	vldr	s0, [pc, #56]	@ 8011448 <expf+0x130>
 8011410:	e7f6      	b.n	8011400 <expf+0xe8>
 8011412:	eeb0 0a48 	vmov.f32	s0, s16
 8011416:	e7f3      	b.n	8011400 <expf+0xe8>
 8011418:	eeb0 0a48 	vmov.f32	s0, s16
 801141c:	e7f0      	b.n	8011400 <expf+0xe8>
 801141e:	eeb7 0a00 	vmov.f32	s0, #112	@ 0x3f800000  1.0
 8011422:	e7ed      	b.n	8011400 <expf+0xe8>
 8011424:	44317218 	.word	0x44317218
 8011428:	c43a4887 	.word	0xc43a4887
 801142c:	b93504f3 	.word	0xb93504f3
 8011430:	393504f3 	.word	0x393504f3
 8011434:	3fb8aa3b 	.word	0x3fb8aa3b
 8011438:	3f317218 	.word	0x3f317218
 801143c:	3b885308 	.word	0x3b885308
 8011440:	3d4cbf5b 	.word	0x3d4cbf5b
 8011444:	4eff0000 	.word	0x4eff0000
 8011448:	00000000 	.word	0x00000000

0801144c <powf>:
 801144c:	b530      	push	{r4, r5, lr}
 801144e:	ed2d 8b04 	vpush	{d8-d9}
 8011452:	b083      	sub	sp, #12
 8011454:	eeb0 8a40 	vmov.f32	s16, s0
 8011458:	eef0 8a60 	vmov.f32	s17, s1
 801145c:	ee10 4a10 	vmov	r4, s0
 8011460:	a801      	add	r0, sp, #4
 8011462:	eeb0 0a60 	vmov.f32	s0, s1
 8011466:	f7ff febd 	bl	80111e4 <modff>
 801146a:	eeb0 9a40 	vmov.f32	s18, s0
 801146e:	eeb5 0a40 	vcmp.f32	s0, #0.0
 8011472:	eef1 fa10 	vmrs	APSR_nzcv, fpscr
 8011476:	d00b      	beq.n	8011490 <powf+0x44>
 8011478:	2500      	movs	r5, #0
 801147a:	eeb5 8a40 	vcmp.f32	s16, #0.0
 801147e:	eef1 fa10 	vmrs	APSR_nzcv, fpscr
 8011482:	d117      	bne.n	80114b4 <powf+0x68>
 8011484:	eeb0 0a48 	vmov.f32	s0, s16
 8011488:	b003      	add	sp, #12
 801148a:	ecbd 8b04 	vpop	{d8-d9}
 801148e:	bd30      	pop	{r4, r5, pc}
 8011490:	f04f 30ff 	mov.w	r0, #4294967295	@ 0xffffffff
 8011494:	eeb0 0a68 	vmov.f32	s0, s17
 8011498:	f7ff ff14 	bl	80112c4 <ldexpf>
 801149c:	4668      	mov	r0, sp
 801149e:	f7ff fea1 	bl	80111e4 <modff>
 80114a2:	eeb5 0a40 	vcmp.f32	s0, #0.0
 80114a6:	eef1 fa10 	vmrs	APSR_nzcv, fpscr
 80114aa:	d001      	beq.n	80114b0 <powf+0x64>
 80114ac:	2500      	movs	r5, #0
 80114ae:	e7e4      	b.n	801147a <powf+0x2e>
 80114b0:	2501      	movs	r5, #1
 80114b2:	e7e2      	b.n	801147a <powf+0x2e>
 80114b4:	eeb0 0a48 	vmov.f32	s0, s16
 80114b8:	f000 f8fd 	bl	80116b6 <fabsf>
 80114bc:	2000      	movs	r0, #0
 80114be:	f7ff fe06 	bl	80110ce <logarithm>
 80114c2:	ee20 0a28 	vmul.f32	s0, s0, s17
 80114c6:	ed8d 0a00 	vstr	s0, [sp]
 80114ca:	eddf 7a3a 	vldr	s15, [pc, #232]	@ 80115b4 <powf+0x168>
 80114ce:	eeb4 0ae7 	vcmpe.f32	s0, s15
 80114d2:	eef1 fa10 	vmrs	APSR_nzcv, fpscr
 80114d6:	db0e      	blt.n	80114f6 <powf+0xaa>
 80114d8:	2c00      	cmp	r4, #0
 80114da:	db02      	blt.n	80114e2 <powf+0x96>
 80114dc:	ed9f 8a36 	vldr	s16, [pc, #216]	@ 80115b8 <powf+0x16c>
 80114e0:	e7d0      	b.n	8011484 <powf+0x38>
 80114e2:	eeb5 9a40 	vcmp.f32	s18, #0.0
 80114e6:	eef1 fa10 	vmrs	APSR_nzcv, fpscr
 80114ea:	d15a      	bne.n	80115a2 <powf+0x156>
 80114ec:	2d00      	cmp	r5, #0
 80114ee:	d05b      	beq.n	80115a8 <powf+0x15c>
 80114f0:	ed9f 8a31 	vldr	s16, [pc, #196]	@ 80115b8 <powf+0x16c>
 80114f4:	e7c6      	b.n	8011484 <powf+0x38>
 80114f6:	eddf 7a31 	vldr	s15, [pc, #196]	@ 80115bc <powf+0x170>
 80114fa:	eeb4 0ae7 	vcmpe.f32	s0, s15
 80114fe:	eef1 fa10 	vmrs	APSR_nzcv, fpscr
 8011502:	d454      	bmi.n	80115ae <powf+0x162>
 8011504:	eeb5 9a40 	vcmp.f32	s18, #0.0
 8011508:	eef1 fa10 	vmrs	APSR_nzcv, fpscr
 801150c:	d012      	beq.n	8011534 <powf+0xe8>
 801150e:	2c00      	cmp	r4, #0
 8011510:	db3f      	blt.n	8011592 <powf+0x146>
 8011512:	ed9d 0a00 	vldr	s0, [sp]
 8011516:	f7ff feff 	bl	8011318 <expf>
 801151a:	eeb0 8a40 	vmov.f32	s16, s0
 801151e:	2d00      	cmp	r5, #0
 8011520:	d1b0      	bne.n	8011484 <powf+0x38>
 8011522:	2c00      	cmp	r4, #0
 8011524:	daae      	bge.n	8011484 <powf+0x38>
 8011526:	ee10 3a10 	vmov	r3, s0
 801152a:	f043 4300 	orr.w	r3, r3, #2147483648	@ 0x80000000
 801152e:	ee08 3a10 	vmov	s16, r3
 8011532:	e7a7      	b.n	8011484 <powf+0x38>
 8011534:	ed9d 0a01 	vldr	s0, [sp, #4]
 8011538:	f000 f8bd 	bl	80116b6 <fabsf>
 801153c:	eddf 7a20 	vldr	s15, [pc, #128]	@ 80115c0 <powf+0x174>
 8011540:	eeb4 0ae7 	vcmpe.f32	s0, s15
 8011544:	eef1 fa10 	vmrs	APSR_nzcv, fpscr
 8011548:	d8e1      	bhi.n	801150e <powf+0xc2>
 801154a:	eddd 7a01 	vldr	s15, [sp, #4]
 801154e:	eefd 7ae7 	vcvt.s32.f32	s15, s15
 8011552:	ee17 1a90 	vmov	r1, s15
 8011556:	2900      	cmp	r1, #0
 8011558:	db03      	blt.n	8011562 <powf+0x116>
 801155a:	460b      	mov	r3, r1
 801155c:	eef7 7a00 	vmov.f32	s15, #112	@ 0x3f800000  1.0
 8011560:	e004      	b.n	801156c <powf+0x120>
 8011562:	424b      	negs	r3, r1
 8011564:	e7fa      	b.n	801155c <powf+0x110>
 8011566:	ee28 8a08 	vmul.f32	s16, s16, s16
 801156a:	0853      	lsrs	r3, r2, #1
 801156c:	2b00      	cmp	r3, #0
 801156e:	dd06      	ble.n	801157e <powf+0x132>
 8011570:	461a      	mov	r2, r3
 8011572:	f013 0f01 	tst.w	r3, #1
 8011576:	d0f6      	beq.n	8011566 <powf+0x11a>
 8011578:	ee67 7a88 	vmul.f32	s15, s15, s16
 801157c:	e7f3      	b.n	8011566 <powf+0x11a>
 801157e:	2900      	cmp	r1, #0
 8011580:	db02      	blt.n	8011588 <powf+0x13c>
 8011582:	eeb0 8a67 	vmov.f32	s16, s15
 8011586:	e77d      	b.n	8011484 <powf+0x38>
 8011588:	eeb7 7a00 	vmov.f32	s14, #112	@ 0x3f800000  1.0
 801158c:	eec7 7a27 	vdiv.f32	s15, s14, s15
 8011590:	e7f7      	b.n	8011582 <powf+0x136>
 8011592:	eeb5 9a40 	vcmp.f32	s18, #0.0
 8011596:	eef1 fa10 	vmrs	APSR_nzcv, fpscr
 801159a:	d0ba      	beq.n	8011512 <powf+0xc6>
 801159c:	ed9f 8a09 	vldr	s16, [pc, #36]	@ 80115c4 <powf+0x178>
 80115a0:	e770      	b.n	8011484 <powf+0x38>
 80115a2:	ed9f 8a08 	vldr	s16, [pc, #32]	@ 80115c4 <powf+0x178>
 80115a6:	e76d      	b.n	8011484 <powf+0x38>
 80115a8:	ed9f 8a07 	vldr	s16, [pc, #28]	@ 80115c8 <powf+0x17c>
 80115ac:	e76a      	b.n	8011484 <powf+0x38>
 80115ae:	ed9f 8a05 	vldr	s16, [pc, #20]	@ 80115c4 <powf+0x178>
 80115b2:	e767      	b.n	8011484 <powf+0x38>
 80115b4:	44317218 	.word	0x44317218
 80115b8:	4eff0000 	.word	0x4eff0000
 80115bc:	c43a4887 	.word	0xc43a4887
 80115c0:	46fffe00 	.word	0x46fffe00
 80115c4:	00000000 	.word	0x00000000
 80115c8:	ceff0000 	.word	0xceff0000

080115cc <sqrtf>:
 80115cc:	b500      	push	{lr}
 80115ce:	ed2d 8b02 	vpush	{d8}
 80115d2:	b083      	sub	sp, #12
 80115d4:	eeb0 8a40 	vmov.f32	s16, s0
 80115d8:	f7ff fd58 	bl	801108c <numtestf>
 80115dc:	2801      	cmp	r0, #1
 80115de:	d023      	beq.n	8011628 <sqrtf+0x5c>
 80115e0:	2802      	cmp	r0, #2
 80115e2:	d027      	beq.n	8011634 <sqrtf+0x68>
 80115e4:	eeb5 8a40 	vcmp.f32	s16, #0.0
 80115e8:	eef1 fa10 	vmrs	APSR_nzcv, fpscr
 80115ec:	d046      	beq.n	801167c <sqrtf+0xb0>
 80115ee:	eeb5 8ac0 	vcmpe.f32	s16, #0.0
 80115f2:	eef1 fa10 	vmrs	APSR_nzcv, fpscr
 80115f6:	d444      	bmi.n	8011682 <sqrtf+0xb6>
 80115f8:	a801      	add	r0, sp, #4
 80115fa:	eeb0 0a48 	vmov.f32	s0, s16
 80115fe:	f7ff fd4e 	bl	801109e <frexpf>
 8011602:	eeb0 7a40 	vmov.f32	s14, s0
 8011606:	9a01      	ldr	r2, [sp, #4]
 8011608:	f002 0101 	and.w	r1, r2, #1
 801160c:	eddf 7a1e 	vldr	s15, [pc, #120]	@ 8011688 <sqrtf+0xbc>
 8011610:	ee60 7a27 	vmul.f32	s15, s0, s15
 8011614:	eddf 6a1d 	vldr	s13, [pc, #116]	@ 801168c <sqrtf+0xc0>
 8011618:	ee37 0aa6 	vadd.f32	s0, s15, s13
 801161c:	eef6 7a00 	vmov.f32	s15, #96	@ 0x3f000000  0.5
 8011620:	ee67 7a27 	vmul.f32	s15, s14, s15
 8011624:	2300      	movs	r3, #0
 8011626:	e015      	b.n	8011654 <sqrtf+0x88>
 8011628:	ee18 3a10 	vmov	r3, s16
 801162c:	2b00      	cmp	r3, #0
 801162e:	db22      	blt.n	8011676 <sqrtf+0xaa>
 8011630:	ed9f 8a17 	vldr	s16, [pc, #92]	@ 8011690 <sqrtf+0xc4>
 8011634:	eeb0 0a48 	vmov.f32	s0, s16
 8011638:	b003      	add	sp, #12
 801163a:	ecbd 8b02 	vpop	{d8}
 801163e:	f85d fb04 	ldr.w	pc, [sp], #4
 8011642:	eeb6 7a00 	vmov.f32	s14, #96	@ 0x3f000000  0.5
 8011646:	ee20 7a07 	vmul.f32	s14, s0, s14
 801164a:	eec7 6a80 	vdiv.f32	s13, s15, s0
 801164e:	ee37 0a26 	vadd.f32	s0, s14, s13
 8011652:	3301      	adds	r3, #1
 8011654:	2b01      	cmp	r3, #1
 8011656:	ddf4      	ble.n	8011642 <sqrtf+0x76>
 8011658:	b129      	cbz	r1, 8011666 <sqrtf+0x9a>
 801165a:	eddf 7a0e 	vldr	s15, [pc, #56]	@ 8011694 <sqrtf+0xc8>
 801165e:	ee20 0a27 	vmul.f32	s0, s0, s15
 8011662:	3201      	adds	r2, #1
 8011664:	9201      	str	r2, [sp, #4]
 8011666:	9801      	ldr	r0, [sp, #4]
 8011668:	1040      	asrs	r0, r0, #1
 801166a:	9001      	str	r0, [sp, #4]
 801166c:	f7ff fe2a 	bl	80112c4 <ldexpf>
 8011670:	eeb0 8a40 	vmov.f32	s16, s0
 8011674:	e7de      	b.n	8011634 <sqrtf+0x68>
 8011676:	ed9f 8a08 	vldr	s16, [pc, #32]	@ 8011698 <sqrtf+0xcc>
 801167a:	e7db      	b.n	8011634 <sqrtf+0x68>
 801167c:	ed9f 8a07 	vldr	s16, [pc, #28]	@ 801169c <sqrtf+0xd0>
 8011680:	e7d8      	b.n	8011634 <sqrtf+0x68>
 8011682:	ed9f 8a03 	vldr	s16, [pc, #12]	@ 8011690 <sqrtf+0xc4>
 8011686:	e7d5      	b.n	8011634 <sqrtf+0x68>
 8011688:	3f1714ba 	.word	0x3f1714ba
 801168c:	3ed5a9a8 	.word	0x3ed5a9a8
 8011690:	4f7fd000 	.word	0x4f7fd000
 8011694:	3f3504f3 	.word	0x3f3504f3
 8011698:	4eff0000 	.word	0x4eff0000
 801169c:	00000000 	.word	0x00000000

080116a0 <lowpass>:
 80116a0:	eef7 7a00 	vmov.f32	s15, #112	@ 0x3f800000  1.0
 80116a4:	ee77 7ac1 	vsub.f32	s15, s15, s2
 80116a8:	ee27 0a80 	vmul.f32	s0, s15, s0
 80116ac:	ee21 1a20 	vmul.f32	s2, s2, s1
 80116b0:	ee31 0a00 	vadd.f32	s0, s2, s0
 80116b4:	4770      	bx	lr

080116b6 <fabsf>:
 80116b6:	eeb5 0ac0 	vcmpe.f32	s0, #0.0
 80116ba:	eef1 fa10 	vmrs	APSR_nzcv, fpscr
 80116be:	dd00      	ble.n	80116c2 <fabsf+0xc>
 80116c0:	4770      	bx	lr
 80116c2:	eeb1 0a40 	vneg.f32	s0, s0
 80116c6:	e7fb      	b.n	80116c0 <fabsf+0xa>

080116c8 <pow>:
 80116c8:	4602      	mov	r2, r0
 80116ca:	b141      	cbz	r1, 80116de <pow+0x16>
 80116cc:	1e4b      	subs	r3, r1, #1
 80116ce:	e002      	b.n	80116d6 <pow+0xe>
 80116d0:	fb00 f202 	mul.w	r2, r0, r2
 80116d4:	3b01      	subs	r3, #1
 80116d6:	2b00      	cmp	r3, #0
 80116d8:	d1fa      	bne.n	80116d0 <pow+0x8>
 80116da:	4610      	mov	r0, r2
 80116dc:	4770      	bx	lr
 80116de:	2001      	movs	r0, #1
 80116e0:	4770      	bx	lr
	...

080116e4 <sinef>:
 80116e4:	b538      	push	{r3, r4, r5, lr}
 80116e6:	ed2d 8b02 	vpush	{d8}
 80116ea:	eeb0 8a40 	vmov.f32	s16, s0
 80116ee:	4604      	mov	r4, r0
 80116f0:	f7ff fccc 	bl	801108c <numtestf>
 80116f4:	2801      	cmp	r0, #1
 80116f6:	f000 8085 	beq.w	8011804 <sinef+0x120>
 80116fa:	2802      	cmp	r0, #2
 80116fc:	f000 8084 	beq.w	8011808 <sinef+0x124>
 8011700:	2c00      	cmp	r4, #0
 8011702:	d165      	bne.n	80117d0 <sinef+0xec>
 8011704:	eeb5 8ac0 	vcmpe.f32	s16, #0.0
 8011708:	eef1 fa10 	vmrs	APSR_nzcv, fpscr
 801170c:	d46a      	bmi.n	80117e4 <sinef+0x100>
 801170e:	eeb0 0a48 	vmov.f32	s0, s16
 8011712:	2501      	movs	r5, #1
 8011714:	eddf 7a3f 	vldr	s15, [pc, #252]	@ 8011814 <sinef+0x130>
 8011718:	eeb4 0ae7 	vcmpe.f32	s0, s15
 801171c:	eef1 fa10 	vmrs	APSR_nzcv, fpscr
 8011720:	dc72      	bgt.n	8011808 <sinef+0x124>
 8011722:	eeb5 0ac0 	vcmpe.f32	s0, #0.0
 8011726:	eef1 fa10 	vmrs	APSR_nzcv, fpscr
 801172a:	d460      	bmi.n	80117ee <sinef+0x10a>
 801172c:	eddf 7a3a 	vldr	s15, [pc, #232]	@ 8011818 <sinef+0x134>
 8011730:	ee20 0a27 	vmul.f32	s0, s0, s15
 8011734:	eef6 7a00 	vmov.f32	s15, #96	@ 0x3f000000  0.5
 8011738:	ee30 0a27 	vadd.f32	s0, s0, s15
 801173c:	eebd 0ac0 	vcvt.s32.f32	s0, s0
 8011740:	eef8 8ac0 	vcvt.f32.s32	s17, s0
 8011744:	ee10 3a10 	vmov	r3, s0
 8011748:	f013 0f01 	tst.w	r3, #1
 801174c:	d000      	beq.n	8011750 <sinef+0x6c>
 801174e:	426d      	negs	r5, r5
 8011750:	b11c      	cbz	r4, 801175a <sinef+0x76>
 8011752:	eef6 7a00 	vmov.f32	s15, #96	@ 0x3f000000  0.5
 8011756:	ee78 8ae7 	vsub.f32	s17, s17, s15
 801175a:	eeb0 0a48 	vmov.f32	s0, s16
 801175e:	f7ff ffaa 	bl	80116b6 <fabsf>
 8011762:	eddf 7a2e 	vldr	s15, [pc, #184]	@ 801181c <sinef+0x138>
 8011766:	ee68 8aa7 	vmul.f32	s17, s17, s15
 801176a:	ee30 8a68 	vsub.f32	s16, s0, s17
 801176e:	eddf 7a2c 	vldr	s15, [pc, #176]	@ 8011820 <sinef+0x13c>
 8011772:	eeb4 8ae7 	vcmpe.f32	s16, s15
 8011776:	eef1 fa10 	vmrs	APSR_nzcv, fpscr
 801177a:	dd06      	ble.n	801178a <sinef+0xa6>
 801177c:	eddf 7a29 	vldr	s15, [pc, #164]	@ 8011824 <sinef+0x140>
 8011780:	eeb4 8ae7 	vcmpe.f32	s16, s15
 8011784:	eef1 fa10 	vmrs	APSR_nzcv, fpscr
 8011788:	d41b      	bmi.n	80117c2 <sinef+0xde>
 801178a:	ee28 7a08 	vmul.f32	s14, s16, s16
 801178e:	eddf 7a26 	vldr	s15, [pc, #152]	@ 8011828 <sinef+0x144>
 8011792:	ee67 7a27 	vmul.f32	s15, s14, s15
 8011796:	eddf 6a25 	vldr	s13, [pc, #148]	@ 801182c <sinef+0x148>
 801179a:	ee77 7ae6 	vsub.f32	s15, s15, s13
 801179e:	ee67 7a87 	vmul.f32	s15, s15, s14
 80117a2:	eddf 6a23 	vldr	s13, [pc, #140]	@ 8011830 <sinef+0x14c>
 80117a6:	ee77 7aa6 	vadd.f32	s15, s15, s13
 80117aa:	ee67 7a87 	vmul.f32	s15, s15, s14
 80117ae:	eddf 6a21 	vldr	s13, [pc, #132]	@ 8011834 <sinef+0x150>
 80117b2:	ee77 7ae6 	vsub.f32	s15, s15, s13
 80117b6:	ee67 7a87 	vmul.f32	s15, s15, s14
 80117ba:	ee68 7a27 	vmul.f32	s15, s16, s15
 80117be:	ee38 8a27 	vadd.f32	s16, s16, s15
 80117c2:	ee07 5a90 	vmov	s15, r5
 80117c6:	eef8 7ae7 	vcvt.f32.s32	s15, s15
 80117ca:	ee27 8a88 	vmul.f32	s16, s15, s16
 80117ce:	e01b      	b.n	8011808 <sinef+0x124>
 80117d0:	eeb0 0a48 	vmov.f32	s0, s16
 80117d4:	f7ff ff6f 	bl	80116b6 <fabsf>
 80117d8:	eddf 7a17 	vldr	s15, [pc, #92]	@ 8011838 <sinef+0x154>
 80117dc:	ee30 0a27 	vadd.f32	s0, s0, s15
 80117e0:	2501      	movs	r5, #1
 80117e2:	e797      	b.n	8011714 <sinef+0x30>
 80117e4:	eeb1 0a48 	vneg.f32	s0, s16
 80117e8:	f04f 35ff 	mov.w	r5, #4294967295	@ 0xffffffff
 80117ec:	e792      	b.n	8011714 <sinef+0x30>
 80117ee:	eddf 7a0a 	vldr	s15, [pc, #40]	@ 8011818 <sinef+0x134>
 80117f2:	ee20 0a27 	vmul.f32	s0, s0, s15
 80117f6:	eef6 7a00 	vmov.f32	s15, #96	@ 0x3f000000  0.5
 80117fa:	ee30 0a67 	vsub.f32	s0, s0, s15
 80117fe:	eebd 0ac0 	vcvt.s32.f32	s0, s0
 8011802:	e79d      	b.n	8011740 <sinef+0x5c>
 8011804:	ed9f 8a0d 	vldr	s16, [pc, #52]	@ 801183c <sinef+0x158>
 8011808:	eeb0 0a48 	vmov.f32	s0, s16
 801180c:	ecbd 8b02 	vpop	{d8}
 8011810:	bd38      	pop	{r3, r4, r5, pc}
 8011812:	bf00      	nop
 8011814:	4d490fdb 	.word	0x4d490fdb
 8011818:	3ea2f983 	.word	0x3ea2f983
 801181c:	40490fdb 	.word	0x40490fdb
 8011820:	b93504f3 	.word	0xb93504f3
 8011824:	393504f3 	.word	0x393504f3
 8011828:	362e9c5b 	.word	0x362e9c5b
 801182c:	394fb222 	.word	0x394fb222
 8011830:	3c08873e 	.word	0x3c08873e
 8011834:	3e2aaaa4 	.word	0x3e2aaaa4
 8011838:	3fc90fdb 	.word	0x3fc90fdb
 801183c:	4f7fd000 	.word	0x4f7fd000

08011840 <asinef>:
 8011840:	b538      	push	{r3, r4, r5, lr}
 8011842:	ed2d 8b02 	vpush	{d8}
 8011846:	eeb0 8a40 	vmov.f32	s16, s0
 801184a:	4604      	mov	r4, r0
 801184c:	f7ff fc1e 	bl	801108c <numtestf>
 8011850:	1e43      	subs	r3, r0, #1
 8011852:	2b01      	cmp	r3, #1
 8011854:	d809      	bhi.n	801186a <asinef+0x2a>
 8011856:	2802      	cmp	r0, #2
 8011858:	d004      	beq.n	8011864 <asinef+0x24>
 801185a:	ed9f 0a49 	vldr	s0, [pc, #292]	@ 8011980 <asinef+0x140>
 801185e:	ecbd 8b02 	vpop	{d8}
 8011862:	bd38      	pop	{r3, r4, r5, pc}
 8011864:	eeb0 0a48 	vmov.f32	s0, s16
 8011868:	e7f9      	b.n	801185e <asinef+0x1e>
 801186a:	eeb0 0a48 	vmov.f32	s0, s16
 801186e:	f7ff ff22 	bl	80116b6 <fabsf>
 8011872:	eef6 7a00 	vmov.f32	s15, #96	@ 0x3f000000  0.5
 8011876:	eeb4 0ae7 	vcmpe.f32	s0, s15
 801187a:	eef1 fa10 	vmrs	APSR_nzcv, fpscr
 801187e:	dd1d      	ble.n	80118bc <asinef+0x7c>
 8011880:	f1c4 0501 	rsb	r5, r4, #1
 8011884:	eef7 7a00 	vmov.f32	s15, #112	@ 0x3f800000  1.0
 8011888:	eeb4 0ae7 	vcmpe.f32	s0, s15
 801188c:	eef1 fa10 	vmrs	APSR_nzcv, fpscr
 8011890:	dd02      	ble.n	8011898 <asinef+0x58>
 8011892:	ed9f 0a3c 	vldr	s0, [pc, #240]	@ 8011984 <asinef+0x144>
 8011896:	e7e2      	b.n	801185e <asinef+0x1e>
 8011898:	ee77 8ac0 	vsub.f32	s17, s15, s0
 801189c:	eef6 7a00 	vmov.f32	s15, #96	@ 0x3f000000  0.5
 80118a0:	ee68 8aa7 	vmul.f32	s17, s17, s15
 80118a4:	eeb0 0a68 	vmov.f32	s0, s17
 80118a8:	f7ff fe90 	bl	80115cc <sqrtf>
 80118ac:	eef8 7a00 	vmov.f32	s15, #128	@ 0xc0000000 -2.0
 80118b0:	ee20 0a27 	vmul.f32	s0, s0, s15
 80118b4:	ed9f 7a34 	vldr	s14, [pc, #208]	@ 8011988 <asinef+0x148>
 80118b8:	2301      	movs	r3, #1
 80118ba:	e00c      	b.n	80118d6 <asinef+0x96>
 80118bc:	eddf 7a33 	vldr	s15, [pc, #204]	@ 801198c <asinef+0x14c>
 80118c0:	eeb4 0ae7 	vcmpe.f32	s0, s15
 80118c4:	eef1 fa10 	vmrs	APSR_nzcv, fpscr
 80118c8:	d439      	bmi.n	801193e <asinef+0xfe>
 80118ca:	ee60 8a00 	vmul.f32	s17, s0, s0
 80118ce:	4625      	mov	r5, r4
 80118d0:	ed9f 7a2d 	vldr	s14, [pc, #180]	@ 8011988 <asinef+0x148>
 80118d4:	2300      	movs	r3, #0
 80118d6:	eddf 7a2d 	vldr	s15, [pc, #180]	@ 801198c <asinef+0x14c>
 80118da:	eeb4 0ae7 	vcmpe.f32	s0, s15
 80118de:	eef1 fa10 	vmrs	APSR_nzcv, fpscr
 80118e2:	da00      	bge.n	80118e6 <asinef+0xa6>
 80118e4:	b1cb      	cbz	r3, 801191a <asinef+0xda>
 80118e6:	eddf 6a2a 	vldr	s13, [pc, #168]	@ 8011990 <asinef+0x150>
 80118ea:	ee68 6aa6 	vmul.f32	s13, s17, s13
 80118ee:	eddf 7a29 	vldr	s15, [pc, #164]	@ 8011994 <asinef+0x154>
 80118f2:	ee76 6aa7 	vadd.f32	s13, s13, s15
 80118f6:	ee66 6aa8 	vmul.f32	s13, s13, s17
 80118fa:	eddf 7a27 	vldr	s15, [pc, #156]	@ 8011998 <asinef+0x158>
 80118fe:	ee78 7ae7 	vsub.f32	s15, s17, s15
 8011902:	ee67 7aa8 	vmul.f32	s15, s15, s17
 8011906:	ed9f 7a25 	vldr	s14, [pc, #148]	@ 801199c <asinef+0x15c>
 801190a:	ee77 7a87 	vadd.f32	s15, s15, s14
 801190e:	ee86 7aa7 	vdiv.f32	s14, s13, s15
 8011912:	ee20 7a07 	vmul.f32	s14, s0, s14
 8011916:	ee37 7a00 	vadd.f32	s14, s14, s0
 801191a:	b9bc      	cbnz	r4, 801194c <asinef+0x10c>
 801191c:	4b20      	ldr	r3, [pc, #128]	@ (80119a0 <asinef+0x160>)
 801191e:	eb03 0385 	add.w	r3, r3, r5, lsl #2
 8011922:	edd3 7a00 	vldr	s15, [r3]
 8011926:	ee37 7a87 	vadd.f32	s14, s15, s14
 801192a:	ee37 0a87 	vadd.f32	s0, s15, s14
 801192e:	eeb5 8ac0 	vcmpe.f32	s16, #0.0
 8011932:	eef1 fa10 	vmrs	APSR_nzcv, fpscr
 8011936:	d592      	bpl.n	801185e <asinef+0x1e>
 8011938:	eeb1 0a40 	vneg.f32	s0, s0
 801193c:	e78f      	b.n	801185e <asinef+0x1e>
 801193e:	eeb0 7a40 	vmov.f32	s14, s0
 8011942:	4625      	mov	r5, r4
 8011944:	eddf 8a10 	vldr	s17, [pc, #64]	@ 8011988 <asinef+0x148>
 8011948:	2300      	movs	r3, #0
 801194a:	e7c4      	b.n	80118d6 <asinef+0x96>
 801194c:	eeb5 8ac0 	vcmpe.f32	s16, #0.0
 8011950:	eef1 fa10 	vmrs	APSR_nzcv, fpscr
 8011954:	d409      	bmi.n	801196a <asinef+0x12a>
 8011956:	4b12      	ldr	r3, [pc, #72]	@ (80119a0 <asinef+0x160>)
 8011958:	eb03 0385 	add.w	r3, r3, r5, lsl #2
 801195c:	ed93 0a00 	vldr	s0, [r3]
 8011960:	ee30 7a47 	vsub.f32	s14, s0, s14
 8011964:	ee30 0a07 	vadd.f32	s0, s0, s14
 8011968:	e779      	b.n	801185e <asinef+0x1e>
 801196a:	4b0d      	ldr	r3, [pc, #52]	@ (80119a0 <asinef+0x160>)
 801196c:	eb03 0385 	add.w	r3, r3, r5, lsl #2
 8011970:	ed93 0a02 	vldr	s0, [r3, #8]
 8011974:	ee30 7a07 	vadd.f32	s14, s0, s14
 8011978:	ee30 0a07 	vadd.f32	s0, s0, s14
 801197c:	e76f      	b.n	801185e <asinef+0x1e>
 801197e:	bf00      	nop
 8011980:	4eff0000 	.word	0x4eff0000
 8011984:	4f7fd000 	.word	0x4f7fd000
 8011988:	00000000 	.word	0x00000000
 801198c:	393504f3 	.word	0x393504f3
 8011990:	bf012065 	.word	0xbf012065
 8011994:	3f6f166b 	.word	0x3f6f166b
 8011998:	40b18d0b 	.word	0x40b18d0b
 801199c:	40b350f0 	.word	0x40b350f0
 80119a0:	08019af4 	.word	0x08019af4

080119a4 <tanf>:
 80119a4:	b508      	push	{r3, lr}
 80119a6:	ed2d 8b02 	vpush	{d8}
 80119aa:	eeb0 8a40 	vmov.f32	s16, s0
 80119ae:	f7ff fb6d 	bl	801108c <numtestf>
 80119b2:	2801      	cmp	r0, #1
 80119b4:	d064      	beq.n	8011a80 <tanf+0xdc>
 80119b6:	2802      	cmp	r0, #2
 80119b8:	d064      	beq.n	8011a84 <tanf+0xe0>
 80119ba:	eeb0 0a48 	vmov.f32	s0, s16
 80119be:	f7ff fe7a 	bl	80116b6 <fabsf>
 80119c2:	eddf 7a34 	vldr	s15, [pc, #208]	@ 8011a94 <tanf+0xf0>
 80119c6:	eeb4 0ae7 	vcmpe.f32	s0, s15
 80119ca:	eef1 fa10 	vmrs	APSR_nzcv, fpscr
 80119ce:	dc5e      	bgt.n	8011a8e <tanf+0xea>
 80119d0:	eeb5 8ac0 	vcmpe.f32	s16, #0.0
 80119d4:	eef1 fa10 	vmrs	APSR_nzcv, fpscr
 80119d8:	d441      	bmi.n	8011a5e <tanf+0xba>
 80119da:	eddf 6a2f 	vldr	s13, [pc, #188]	@ 8011a98 <tanf+0xf4>
 80119de:	ee68 6a26 	vmul.f32	s13, s16, s13
 80119e2:	eef6 7a00 	vmov.f32	s15, #96	@ 0x3f000000  0.5
 80119e6:	ee76 6aa7 	vadd.f32	s13, s13, s15
 80119ea:	eefd 6ae6 	vcvt.s32.f32	s13, s13
 80119ee:	eef8 7ae6 	vcvt.f32.s32	s15, s13
 80119f2:	ed9f 7a2a 	vldr	s14, [pc, #168]	@ 8011a9c <tanf+0xf8>
 80119f6:	ee67 7a87 	vmul.f32	s15, s15, s14
 80119fa:	ee78 7a67 	vsub.f32	s15, s16, s15
 80119fe:	ed9f 7a28 	vldr	s14, [pc, #160]	@ 8011aa0 <tanf+0xfc>
 8011a02:	eef4 7ac7 	vcmpe.f32	s15, s14
 8011a06:	eef1 fa10 	vmrs	APSR_nzcv, fpscr
 8011a0a:	dd06      	ble.n	8011a1a <tanf+0x76>
 8011a0c:	ed9f 7a25 	vldr	s14, [pc, #148]	@ 8011aa4 <tanf+0x100>
 8011a10:	eef4 7ac7 	vcmpe.f32	s15, s14
 8011a14:	eef1 fa10 	vmrs	APSR_nzcv, fpscr
 8011a18:	d42c      	bmi.n	8011a74 <tanf+0xd0>
 8011a1a:	ee27 6aa7 	vmul.f32	s12, s15, s15
 8011a1e:	ed9f 7a22 	vldr	s14, [pc, #136]	@ 8011aa8 <tanf+0x104>
 8011a22:	ee26 7a07 	vmul.f32	s14, s12, s14
 8011a26:	ee27 7a27 	vmul.f32	s14, s14, s15
 8011a2a:	ee77 7a87 	vadd.f32	s15, s15, s14
 8011a2e:	ed9f 7a1f 	vldr	s14, [pc, #124]	@ 8011aac <tanf+0x108>
 8011a32:	ee26 7a07 	vmul.f32	s14, s12, s14
 8011a36:	eddf 5a1e 	vldr	s11, [pc, #120]	@ 8011ab0 <tanf+0x10c>
 8011a3a:	ee37 7a65 	vsub.f32	s14, s14, s11
 8011a3e:	ee27 7a06 	vmul.f32	s14, s14, s12
 8011a42:	eeb7 6a00 	vmov.f32	s12, #112	@ 0x3f800000  1.0
 8011a46:	ee37 7a06 	vadd.f32	s14, s14, s12
 8011a4a:	ee16 3a90 	vmov	r3, s13
 8011a4e:	f013 0f01 	tst.w	r3, #1
 8011a52:	d012      	beq.n	8011a7a <tanf+0xd6>
 8011a54:	eeb1 7a47 	vneg.f32	s14, s14
 8011a58:	ee87 8a27 	vdiv.f32	s16, s14, s15
 8011a5c:	e012      	b.n	8011a84 <tanf+0xe0>
 8011a5e:	eddf 6a0e 	vldr	s13, [pc, #56]	@ 8011a98 <tanf+0xf4>
 8011a62:	ee68 6a26 	vmul.f32	s13, s16, s13
 8011a66:	eef6 7a00 	vmov.f32	s15, #96	@ 0x3f000000  0.5
 8011a6a:	ee76 6ae7 	vsub.f32	s13, s13, s15
 8011a6e:	eefd 6ae6 	vcvt.s32.f32	s13, s13
 8011a72:	e7bc      	b.n	80119ee <tanf+0x4a>
 8011a74:	eeb7 7a00 	vmov.f32	s14, #112	@ 0x3f800000  1.0
 8011a78:	e7e7      	b.n	8011a4a <tanf+0xa6>
 8011a7a:	ee87 8a87 	vdiv.f32	s16, s15, s14
 8011a7e:	e001      	b.n	8011a84 <tanf+0xe0>
 8011a80:	ed9f 8a0c 	vldr	s16, [pc, #48]	@ 8011ab4 <tanf+0x110>
 8011a84:	eeb0 0a48 	vmov.f32	s0, s16
 8011a88:	ecbd 8b02 	vpop	{d8}
 8011a8c:	bd08      	pop	{r3, pc}
 8011a8e:	eeb0 8a40 	vmov.f32	s16, s0
 8011a92:	e7f7      	b.n	8011a84 <tanf+0xe0>
 8011a94:	4cc90fdb 	.word	0x4cc90fdb
 8011a98:	3f22f983 	.word	0x3f22f983
 8011a9c:	3fc90fdb 	.word	0x3fc90fdb
 8011aa0:	b93504f3 	.word	0xb93504f3
 8011aa4:	393504f3 	.word	0x393504f3
 8011aa8:	bdc433b8 	.word	0xbdc433b8
 8011aac:	3c1f3375 	.word	0x3c1f3375
 8011ab0:	3edbb7af 	.word	0x3edbb7af
 8011ab4:	4f7fd000 	.word	0x4f7fd000

08011ab8 <sprntf>:
 8011ab8:	4603      	mov	r3, r0
 8011aba:	b2c8      	uxtb	r0, r1
 8011abc:	681a      	ldr	r2, [r3, #0]
 8011abe:	1c51      	adds	r1, r2, #1
 8011ac0:	6019      	str	r1, [r3, #0]
 8011ac2:	7010      	strb	r0, [r2, #0]
 8011ac4:	4770      	bx	lr

08011ac6 <skip_atoi>:
 8011ac6:	4601      	mov	r1, r0
 8011ac8:	2000      	movs	r0, #0
 8011aca:	e008      	b.n	8011ade <skip_atoi+0x18>
 8011acc:	eb00 0080 	add.w	r0, r0, r0, lsl #2
 8011ad0:	1c53      	adds	r3, r2, #1
 8011ad2:	600b      	str	r3, [r1, #0]
 8011ad4:	7813      	ldrb	r3, [r2, #0]
 8011ad6:	eb03 0340 	add.w	r3, r3, r0, lsl #1
 8011ada:	f1a3 0030 	sub.w	r0, r3, #48	@ 0x30
 8011ade:	680a      	ldr	r2, [r1, #0]
 8011ae0:	7813      	ldrb	r3, [r2, #0]
 8011ae2:	3b30      	subs	r3, #48	@ 0x30
 8011ae4:	b2db      	uxtb	r3, r3
 8011ae6:	2b09      	cmp	r3, #9
 8011ae8:	d9f0      	bls.n	8011acc <skip_atoi+0x6>
 8011aea:	4770      	bx	lr

08011aec <number>:
 8011aec:	e92d 47f0 	stmdb	sp!, {r4, r5, r6, r7, r8, r9, sl, lr}
 8011af0:	b092      	sub	sp, #72	@ 0x48
 8011af2:	9c1a      	ldr	r4, [sp, #104]	@ 0x68
 8011af4:	9d1b      	ldr	r5, [sp, #108]	@ 0x6c
 8011af6:	f015 0f40 	tst.w	r5, #64	@ 0x40
 8011afa:	d119      	bne.n	8011b30 <number+0x44>
 8011afc:	f8df a148 	ldr.w	sl, [pc, #328]	@ 8011c48 <number+0x15c>
 8011b00:	f015 0f10 	tst.w	r5, #16
 8011b04:	d001      	beq.n	8011b0a <number+0x1e>
 8011b06:	f025 0501 	bic.w	r5, r5, #1
 8011b0a:	1e96      	subs	r6, r2, #2
 8011b0c:	2e22      	cmp	r6, #34	@ 0x22
 8011b0e:	f200 8098 	bhi.w	8011c42 <number+0x156>
 8011b12:	f015 0f01 	tst.w	r5, #1
 8011b16:	d00e      	beq.n	8011b36 <number+0x4a>
 8011b18:	2630      	movs	r6, #48	@ 0x30
 8011b1a:	f015 0f02 	tst.w	r5, #2
 8011b1e:	d016      	beq.n	8011b4e <number+0x62>
 8011b20:	2900      	cmp	r1, #0
 8011b22:	db0a      	blt.n	8011b3a <number+0x4e>
 8011b24:	f015 0f04 	tst.w	r5, #4
 8011b28:	d00b      	beq.n	8011b42 <number+0x56>
 8011b2a:	3b01      	subs	r3, #1
 8011b2c:	272b      	movs	r7, #43	@ 0x2b
 8011b2e:	e00f      	b.n	8011b50 <number+0x64>
 8011b30:	f8df a118 	ldr.w	sl, [pc, #280]	@ 8011c4c <number+0x160>
 8011b34:	e7e4      	b.n	8011b00 <number+0x14>
 8011b36:	2620      	movs	r6, #32
 8011b38:	e7ef      	b.n	8011b1a <number+0x2e>
 8011b3a:	4249      	negs	r1, r1
 8011b3c:	3b01      	subs	r3, #1
 8011b3e:	272d      	movs	r7, #45	@ 0x2d
 8011b40:	e006      	b.n	8011b50 <number+0x64>
 8011b42:	f015 0f08 	tst.w	r5, #8
 8011b46:	d026      	beq.n	8011b96 <number+0xaa>
 8011b48:	3b01      	subs	r3, #1
 8011b4a:	2720      	movs	r7, #32
 8011b4c:	e000      	b.n	8011b50 <number+0x64>
 8011b4e:	2700      	movs	r7, #0
 8011b50:	f015 0820 	ands.w	r8, r5, #32
 8011b54:	d003      	beq.n	8011b5e <number+0x72>
 8011b56:	2a10      	cmp	r2, #16
 8011b58:	d01f      	beq.n	8011b9a <number+0xae>
 8011b5a:	2a08      	cmp	r2, #8
 8011b5c:	d01f      	beq.n	8011b9e <number+0xb2>
 8011b5e:	bb89      	cbnz	r1, 8011bc4 <number+0xd8>
 8011b60:	2130      	movs	r1, #48	@ 0x30
 8011b62:	f88d 1004 	strb.w	r1, [sp, #4]
 8011b66:	f04f 0c01 	mov.w	ip, #1
 8011b6a:	45a4      	cmp	ip, r4
 8011b6c:	dd00      	ble.n	8011b70 <number+0x84>
 8011b6e:	4664      	mov	r4, ip
 8011b70:	1b1b      	subs	r3, r3, r4
 8011b72:	f015 0f11 	tst.w	r5, #17
 8011b76:	d02c      	beq.n	8011bd2 <number+0xe6>
 8011b78:	b10f      	cbz	r7, 8011b7e <number+0x92>
 8011b7a:	f800 7b01 	strb.w	r7, [r0], #1
 8011b7e:	f1b8 0f00 	cmp.w	r8, #0
 8011b82:	d003      	beq.n	8011b8c <number+0xa0>
 8011b84:	2a08      	cmp	r2, #8
 8011b86:	d029      	beq.n	8011bdc <number+0xf0>
 8011b88:	2a10      	cmp	r2, #16
 8011b8a:	d02b      	beq.n	8011be4 <number+0xf8>
 8011b8c:	f015 0f10 	tst.w	r5, #16
 8011b90:	d033      	beq.n	8011bfa <number+0x10e>
 8011b92:	4619      	mov	r1, r3
 8011b94:	e039      	b.n	8011c0a <number+0x11e>
 8011b96:	2700      	movs	r7, #0
 8011b98:	e7da      	b.n	8011b50 <number+0x64>
 8011b9a:	3b02      	subs	r3, #2
 8011b9c:	e7df      	b.n	8011b5e <number+0x72>
 8011b9e:	3b01      	subs	r3, #1
 8011ba0:	e7dd      	b.n	8011b5e <number+0x72>
 8011ba2:	fbb1 fef2 	udiv	lr, r1, r2
 8011ba6:	fb02 111e 	mls	r1, r2, lr, r1
 8011baa:	f81a 9001 	ldrb.w	r9, [sl, r1]
 8011bae:	f10c 0148 	add.w	r1, ip, #72	@ 0x48
 8011bb2:	4469      	add	r1, sp
 8011bb4:	f801 9c44 	strb.w	r9, [r1, #-68]
 8011bb8:	4671      	mov	r1, lr
 8011bba:	f10c 0c01 	add.w	ip, ip, #1
 8011bbe:	2900      	cmp	r1, #0
 8011bc0:	d1ef      	bne.n	8011ba2 <number+0xb6>
 8011bc2:	e7d2      	b.n	8011b6a <number+0x7e>
 8011bc4:	f04f 0c00 	mov.w	ip, #0
 8011bc8:	e7f9      	b.n	8011bbe <number+0xd2>
 8011bca:	2320      	movs	r3, #32
 8011bcc:	f800 3b01 	strb.w	r3, [r0], #1
 8011bd0:	460b      	mov	r3, r1
 8011bd2:	1e59      	subs	r1, r3, #1
 8011bd4:	2b00      	cmp	r3, #0
 8011bd6:	dcf8      	bgt.n	8011bca <number+0xde>
 8011bd8:	460b      	mov	r3, r1
 8011bda:	e7cd      	b.n	8011b78 <number+0x8c>
 8011bdc:	2230      	movs	r2, #48	@ 0x30
 8011bde:	f800 2b01 	strb.w	r2, [r0], #1
 8011be2:	e7d3      	b.n	8011b8c <number+0xa0>
 8011be4:	4602      	mov	r2, r0
 8011be6:	2130      	movs	r1, #48	@ 0x30
 8011be8:	f802 1b02 	strb.w	r1, [r2], #2
 8011bec:	2178      	movs	r1, #120	@ 0x78
 8011bee:	7041      	strb	r1, [r0, #1]
 8011bf0:	4610      	mov	r0, r2
 8011bf2:	e7cb      	b.n	8011b8c <number+0xa0>
 8011bf4:	f800 6b01 	strb.w	r6, [r0], #1
 8011bf8:	460b      	mov	r3, r1
 8011bfa:	1e59      	subs	r1, r3, #1
 8011bfc:	2b00      	cmp	r3, #0
 8011bfe:	dcf9      	bgt.n	8011bf4 <number+0x108>
 8011c00:	e003      	b.n	8011c0a <number+0x11e>
 8011c02:	2230      	movs	r2, #48	@ 0x30
 8011c04:	f800 2b01 	strb.w	r2, [r0], #1
 8011c08:	461c      	mov	r4, r3
 8011c0a:	1e63      	subs	r3, r4, #1
 8011c0c:	4564      	cmp	r4, ip
 8011c0e:	dcf8      	bgt.n	8011c02 <number+0x116>
 8011c10:	e007      	b.n	8011c22 <number+0x136>
 8011c12:	f103 0248 	add.w	r2, r3, #72	@ 0x48
 8011c16:	446a      	add	r2, sp
 8011c18:	f812 2c44 	ldrb.w	r2, [r2, #-68]
 8011c1c:	f800 2b01 	strb.w	r2, [r0], #1
 8011c20:	469c      	mov	ip, r3
 8011c22:	f10c 33ff 	add.w	r3, ip, #4294967295	@ 0xffffffff
 8011c26:	f1bc 0f00 	cmp.w	ip, #0
 8011c2a:	dcf2      	bgt.n	8011c12 <number+0x126>
 8011c2c:	e003      	b.n	8011c36 <number+0x14a>
 8011c2e:	2220      	movs	r2, #32
 8011c30:	f800 2b01 	strb.w	r2, [r0], #1
 8011c34:	4619      	mov	r1, r3
 8011c36:	1e4b      	subs	r3, r1, #1
 8011c38:	2900      	cmp	r1, #0
 8011c3a:	dcf8      	bgt.n	8011c2e <number+0x142>
 8011c3c:	b012      	add	sp, #72	@ 0x48
 8011c3e:	e8bd 87f0 	ldmia.w	sp!, {r4, r5, r6, r7, r8, r9, sl, pc}
 8011c42:	2000      	movs	r0, #0
 8011c44:	e7fa      	b.n	8011c3c <number+0x150>
 8011c46:	bf00      	nop
 8011c48:	08019f34 	.word	0x08019f34
 8011c4c:	08019f5c 	.word	0x08019f5c

08011c50 <eaddr>:
 8011c50:	e92d 41f0 	stmdb	sp!, {r4, r5, r6, r7, r8, lr}
 8011c54:	b086      	sub	sp, #24
 8011c56:	9f0c      	ldr	r7, [sp, #48]	@ 0x30
 8011c58:	f017 0f40 	tst.w	r7, #64	@ 0x40
 8011c5c:	d104      	bne.n	8011c68 <eaddr+0x18>
 8011c5e:	4d27      	ldr	r5, [pc, #156]	@ (8011cfc <eaddr+0xac>)
 8011c60:	f04f 0c00 	mov.w	ip, #0
 8011c64:	4664      	mov	r4, ip
 8011c66:	e018      	b.n	8011c9a <eaddr+0x4a>
 8011c68:	4d25      	ldr	r5, [pc, #148]	@ (8011d00 <eaddr+0xb0>)
 8011c6a:	e7f9      	b.n	8011c60 <eaddr+0x10>
 8011c6c:	f811 e004 	ldrb.w	lr, [r1, r4]
 8011c70:	ea4f 161e 	mov.w	r6, lr, lsr #4
 8011c74:	f815 8006 	ldrb.w	r8, [r5, r6]
 8011c78:	f10c 0618 	add.w	r6, ip, #24
 8011c7c:	446e      	add	r6, sp
 8011c7e:	f806 8c18 	strb.w	r8, [r6, #-24]
 8011c82:	f00e 0e0f 	and.w	lr, lr, #15
 8011c86:	f815 e00e 	ldrb.w	lr, [r5, lr]
 8011c8a:	f10c 0319 	add.w	r3, ip, #25
 8011c8e:	446b      	add	r3, sp
 8011c90:	f10c 0c02 	add.w	ip, ip, #2
 8011c94:	f803 ec18 	strb.w	lr, [r3, #-24]
 8011c98:	3401      	adds	r4, #1
 8011c9a:	2c05      	cmp	r4, #5
 8011c9c:	dc0a      	bgt.n	8011cb4 <eaddr+0x64>
 8011c9e:	2c00      	cmp	r4, #0
 8011ca0:	d0e4      	beq.n	8011c6c <eaddr+0x1c>
 8011ca2:	f10c 0318 	add.w	r3, ip, #24
 8011ca6:	446b      	add	r3, sp
 8011ca8:	263a      	movs	r6, #58	@ 0x3a
 8011caa:	f803 6c18 	strb.w	r6, [r3, #-24]
 8011cae:	f10c 0c01 	add.w	ip, ip, #1
 8011cb2:	e7db      	b.n	8011c6c <eaddr+0x1c>
 8011cb4:	f017 0f10 	tst.w	r7, #16
 8011cb8:	d001      	beq.n	8011cbe <eaddr+0x6e>
 8011cba:	2300      	movs	r3, #0
 8011cbc:	e011      	b.n	8011ce2 <eaddr+0x92>
 8011cbe:	1e53      	subs	r3, r2, #1
 8011cc0:	4562      	cmp	r2, ip
 8011cc2:	dd04      	ble.n	8011cce <eaddr+0x7e>
 8011cc4:	2220      	movs	r2, #32
 8011cc6:	f800 2b01 	strb.w	r2, [r0], #1
 8011cca:	461a      	mov	r2, r3
 8011ccc:	e7f7      	b.n	8011cbe <eaddr+0x6e>
 8011cce:	461a      	mov	r2, r3
 8011cd0:	e7f3      	b.n	8011cba <eaddr+0x6a>
 8011cd2:	f103 0118 	add.w	r1, r3, #24
 8011cd6:	4469      	add	r1, sp
 8011cd8:	f811 1c18 	ldrb.w	r1, [r1, #-24]
 8011cdc:	f800 1b01 	strb.w	r1, [r0], #1
 8011ce0:	3301      	adds	r3, #1
 8011ce2:	4563      	cmp	r3, ip
 8011ce4:	dbf5      	blt.n	8011cd2 <eaddr+0x82>
 8011ce6:	e003      	b.n	8011cf0 <eaddr+0xa0>
 8011ce8:	2220      	movs	r2, #32
 8011cea:	f800 2b01 	strb.w	r2, [r0], #1
 8011cee:	461a      	mov	r2, r3
 8011cf0:	1e53      	subs	r3, r2, #1
 8011cf2:	4562      	cmp	r2, ip
 8011cf4:	dcf8      	bgt.n	8011ce8 <eaddr+0x98>
 8011cf6:	b006      	add	sp, #24
 8011cf8:	e8bd 81f0 	ldmia.w	sp!, {r4, r5, r6, r7, r8, pc}
 8011cfc:	08019f34 	.word	0x08019f34
 8011d00:	08019f5c 	.word	0x08019f5c

08011d04 <iaddr>:
 8011d04:	e92d 41f0 	stmdb	sp!, {r4, r5, r6, r7, r8, lr}
 8011d08:	b086      	sub	sp, #24
 8011d0a:	f04f 0c00 	mov.w	ip, #0
 8011d0e:	4665      	mov	r5, ip
 8011d10:	e034      	b.n	8011d7c <iaddr+0x78>
 8011d12:	2b63      	cmp	r3, #99	@ 0x63
 8011d14:	dd49      	ble.n	8011daa <iaddr+0xa6>
 8011d16:	4c43      	ldr	r4, [pc, #268]	@ (8011e24 <iaddr+0x120>)
 8011d18:	fb84 6403 	smull	r6, r4, r4, r3
 8011d1c:	ea4f 7ee3 	mov.w	lr, r3, asr #31
 8011d20:	ebce 1e64 	rsb	lr, lr, r4, asr #5
 8011d24:	f10c 0701 	add.w	r7, ip, #1
 8011d28:	f8df 8100 	ldr.w	r8, [pc, #256]	@ 8011e2c <iaddr+0x128>
 8011d2c:	f818 600e 	ldrb.w	r6, [r8, lr]
 8011d30:	f10c 0418 	add.w	r4, ip, #24
 8011d34:	446c      	add	r4, sp
 8011d36:	f804 6c18 	strb.w	r6, [r4, #-24]
 8011d3a:	2464      	movs	r4, #100	@ 0x64
 8011d3c:	fb04 3e1e 	mls	lr, r4, lr, r3
 8011d40:	4b39      	ldr	r3, [pc, #228]	@ (8011e28 <iaddr+0x124>)
 8011d42:	fb83 430e 	smull	r4, r3, r3, lr
 8011d46:	ea4f 74ee 	mov.w	r4, lr, asr #31
 8011d4a:	ebc4 04a3 	rsb	r4, r4, r3, asr #2
 8011d4e:	f10c 0602 	add.w	r6, ip, #2
 8011d52:	f818 c004 	ldrb.w	ip, [r8, r4]
 8011d56:	f107 0318 	add.w	r3, r7, #24
 8011d5a:	446b      	add	r3, sp
 8011d5c:	f803 cc18 	strb.w	ip, [r3, #-24]
 8011d60:	eb04 0484 	add.w	r4, r4, r4, lsl #2
 8011d64:	ebae 0344 	sub.w	r3, lr, r4, lsl #1
 8011d68:	f106 0c01 	add.w	ip, r6, #1
 8011d6c:	4c2f      	ldr	r4, [pc, #188]	@ (8011e2c <iaddr+0x128>)
 8011d6e:	5ce4      	ldrb	r4, [r4, r3]
 8011d70:	f106 0318 	add.w	r3, r6, #24
 8011d74:	446b      	add	r3, sp
 8011d76:	f803 4c18 	strb.w	r4, [r3, #-24]
 8011d7a:	3501      	adds	r5, #1
 8011d7c:	2d03      	cmp	r5, #3
 8011d7e:	dc2c      	bgt.n	8011dda <iaddr+0xd6>
 8011d80:	b13d      	cbz	r5, 8011d92 <iaddr+0x8e>
 8011d82:	f10c 0318 	add.w	r3, ip, #24
 8011d86:	446b      	add	r3, sp
 8011d88:	242e      	movs	r4, #46	@ 0x2e
 8011d8a:	f803 4c18 	strb.w	r4, [r3, #-24]
 8011d8e:	f10c 0c01 	add.w	ip, ip, #1
 8011d92:	5d4b      	ldrb	r3, [r1, r5]
 8011d94:	2b00      	cmp	r3, #0
 8011d96:	d1bc      	bne.n	8011d12 <iaddr+0xe>
 8011d98:	f10c 0318 	add.w	r3, ip, #24
 8011d9c:	446b      	add	r3, sp
 8011d9e:	2430      	movs	r4, #48	@ 0x30
 8011da0:	f803 4c18 	strb.w	r4, [r3, #-24]
 8011da4:	f10c 0c01 	add.w	ip, ip, #1
 8011da8:	e7e7      	b.n	8011d7a <iaddr+0x76>
 8011daa:	2b09      	cmp	r3, #9
 8011dac:	dd13      	ble.n	8011dd6 <iaddr+0xd2>
 8011dae:	4e1e      	ldr	r6, [pc, #120]	@ (8011e28 <iaddr+0x124>)
 8011db0:	fb86 4603 	smull	r4, r6, r6, r3
 8011db4:	17dc      	asrs	r4, r3, #31
 8011db6:	ebc4 04a6 	rsb	r4, r4, r6, asr #2
 8011dba:	f10c 0601 	add.w	r6, ip, #1
 8011dbe:	4f1b      	ldr	r7, [pc, #108]	@ (8011e2c <iaddr+0x128>)
 8011dc0:	5d3f      	ldrb	r7, [r7, r4]
 8011dc2:	f10c 0c18 	add.w	ip, ip, #24
 8011dc6:	44ec      	add	ip, sp
 8011dc8:	f80c 7c18 	strb.w	r7, [ip, #-24]
 8011dcc:	eb04 0484 	add.w	r4, r4, r4, lsl #2
 8011dd0:	eba3 0344 	sub.w	r3, r3, r4, lsl #1
 8011dd4:	e7c8      	b.n	8011d68 <iaddr+0x64>
 8011dd6:	4666      	mov	r6, ip
 8011dd8:	e7c6      	b.n	8011d68 <iaddr+0x64>
 8011dda:	9b0c      	ldr	r3, [sp, #48]	@ 0x30
 8011ddc:	f013 0f10 	tst.w	r3, #16
 8011de0:	d001      	beq.n	8011de6 <iaddr+0xe2>
 8011de2:	2300      	movs	r3, #0
 8011de4:	e011      	b.n	8011e0a <iaddr+0x106>
 8011de6:	1e53      	subs	r3, r2, #1
 8011de8:	4562      	cmp	r2, ip
 8011dea:	dd04      	ble.n	8011df6 <iaddr+0xf2>
 8011dec:	2220      	movs	r2, #32
 8011dee:	f800 2b01 	strb.w	r2, [r0], #1
 8011df2:	461a      	mov	r2, r3
 8011df4:	e7f7      	b.n	8011de6 <iaddr+0xe2>
 8011df6:	461a      	mov	r2, r3
 8011df8:	e7f3      	b.n	8011de2 <iaddr+0xde>
 8011dfa:	f103 0118 	add.w	r1, r3, #24
 8011dfe:	4469      	add	r1, sp
 8011e00:	f811 1c18 	ldrb.w	r1, [r1, #-24]
 8011e04:	f800 1b01 	strb.w	r1, [r0], #1
 8011e08:	3301      	adds	r3, #1
 8011e0a:	4563      	cmp	r3, ip
 8011e0c:	dbf5      	blt.n	8011dfa <iaddr+0xf6>
 8011e0e:	e003      	b.n	8011e18 <iaddr+0x114>
 8011e10:	2220      	movs	r2, #32
 8011e12:	f800 2b01 	strb.w	r2, [r0], #1
 8011e16:	461a      	mov	r2, r3
 8011e18:	1e53      	subs	r3, r2, #1
 8011e1a:	4562      	cmp	r2, ip
 8011e1c:	dcf8      	bgt.n	8011e10 <iaddr+0x10c>
 8011e1e:	b006      	add	sp, #24
 8011e20:	e8bd 81f0 	ldmia.w	sp!, {r4, r5, r6, r7, r8, pc}
 8011e24:	51eb851f 	.word	0x51eb851f
 8011e28:	66666667 	.word	0x66666667
 8011e2c:	08019f34 	.word	0x08019f34

08011e30 <sprintf>:
 8011e30:	b40e      	push	{r1, r2, r3}
 8011e32:	b510      	push	{r4, lr}
 8011e34:	b083      	sub	sp, #12
 8011e36:	4604      	mov	r4, r0
 8011e38:	a905      	add	r1, sp, #20
 8011e3a:	f851 0b04 	ldr.w	r0, [r1], #4
 8011e3e:	9400      	str	r4, [sp, #0]
 8011e40:	9101      	str	r1, [sp, #4]
 8011e42:	466b      	mov	r3, sp
 8011e44:	4a06      	ldr	r2, [pc, #24]	@ (8011e60 <sprintf+0x30>)
 8011e46:	f7fe facb 	bl	80103e0 <_fdoprnt>
 8011e4a:	9b00      	ldr	r3, [sp, #0]
 8011e4c:	1c5a      	adds	r2, r3, #1
 8011e4e:	9200      	str	r2, [sp, #0]
 8011e50:	2200      	movs	r2, #0
 8011e52:	701a      	strb	r2, [r3, #0]
 8011e54:	4620      	mov	r0, r4
 8011e56:	b003      	add	sp, #12
 8011e58:	e8bd 4010 	ldmia.w	sp!, {r4, lr}
 8011e5c:	b003      	add	sp, #12
 8011e5e:	4770      	bx	lr
 8011e60:	08011ab9 	.word	0x08011ab9

08011e64 <vsprintf>:
 8011e64:	e92d 41f0 	stmdb	sp!, {r4, r5, r6, r7, r8, lr}
 8011e68:	b084      	sub	sp, #16
 8011e6a:	4605      	mov	r5, r0
 8011e6c:	9103      	str	r1, [sp, #12]
 8011e6e:	9202      	str	r2, [sp, #8]
 8011e70:	4604      	mov	r4, r0
 8011e72:	e149      	b.n	8012108 <vsprintf+0x2a4>
 8011e74:	2600      	movs	r6, #0
 8011e76:	9b03      	ldr	r3, [sp, #12]
 8011e78:	1c5a      	adds	r2, r3, #1
 8011e7a:	9203      	str	r2, [sp, #12]
 8011e7c:	7859      	ldrb	r1, [r3, #1]
 8011e7e:	f1a1 0220 	sub.w	r2, r1, #32
 8011e82:	2a10      	cmp	r2, #16
 8011e84:	d819      	bhi.n	8011eba <vsprintf+0x56>
 8011e86:	e8df f002 	tbb	[pc, r2]
 8011e8a:	180f      	.short	0x180f
 8011e8c:	18181218 	.word	0x18181218
 8011e90:	18181818 	.word	0x18181818
 8011e94:	09180c18 	.word	0x09180c18
 8011e98:	1818      	.short	0x1818
 8011e9a:	15          	.byte	0x15
 8011e9b:	00          	.byte	0x00
 8011e9c:	f046 0610 	orr.w	r6, r6, #16
 8011ea0:	e7e9      	b.n	8011e76 <vsprintf+0x12>
 8011ea2:	f046 0604 	orr.w	r6, r6, #4
 8011ea6:	e7e6      	b.n	8011e76 <vsprintf+0x12>
 8011ea8:	f046 0608 	orr.w	r6, r6, #8
 8011eac:	e7e3      	b.n	8011e76 <vsprintf+0x12>
 8011eae:	f046 0620 	orr.w	r6, r6, #32
 8011eb2:	e7e0      	b.n	8011e76 <vsprintf+0x12>
 8011eb4:	f046 0601 	orr.w	r6, r6, #1
 8011eb8:	e7dd      	b.n	8011e76 <vsprintf+0x12>
 8011eba:	f1a1 0230 	sub.w	r2, r1, #48	@ 0x30
 8011ebe:	b2d2      	uxtb	r2, r2
 8011ec0:	2a09      	cmp	r2, #9
 8011ec2:	d914      	bls.n	8011eee <vsprintf+0x8a>
 8011ec4:	292a      	cmp	r1, #42	@ 0x2a
 8011ec6:	d017      	beq.n	8011ef8 <vsprintf+0x94>
 8011ec8:	f04f 37ff 	mov.w	r7, #4294967295	@ 0xffffffff
 8011ecc:	9b03      	ldr	r3, [sp, #12]
 8011ece:	781a      	ldrb	r2, [r3, #0]
 8011ed0:	2a2e      	cmp	r2, #46	@ 0x2e
 8011ed2:	d01d      	beq.n	8011f10 <vsprintf+0xac>
 8011ed4:	f04f 33ff 	mov.w	r3, #4294967295	@ 0xffffffff
 8011ed8:	9803      	ldr	r0, [sp, #12]
 8011eda:	7802      	ldrb	r2, [r0, #0]
 8011edc:	2a68      	cmp	r2, #104	@ 0x68
 8011ede:	d032      	beq.n	8011f46 <vsprintf+0xe2>
 8011ee0:	2a6c      	cmp	r2, #108	@ 0x6c
 8011ee2:	d030      	beq.n	8011f46 <vsprintf+0xe2>
 8011ee4:	2a4c      	cmp	r2, #76	@ 0x4c
 8011ee6:	d02e      	beq.n	8011f46 <vsprintf+0xe2>
 8011ee8:	f04f 31ff 	mov.w	r1, #4294967295	@ 0xffffffff
 8011eec:	e02e      	b.n	8011f4c <vsprintf+0xe8>
 8011eee:	a803      	add	r0, sp, #12
 8011ef0:	f7ff fde9 	bl	8011ac6 <skip_atoi>
 8011ef4:	4607      	mov	r7, r0
 8011ef6:	e7e9      	b.n	8011ecc <vsprintf+0x68>
 8011ef8:	3302      	adds	r3, #2
 8011efa:	9303      	str	r3, [sp, #12]
 8011efc:	9b02      	ldr	r3, [sp, #8]
 8011efe:	1d1a      	adds	r2, r3, #4
 8011f00:	9202      	str	r2, [sp, #8]
 8011f02:	681f      	ldr	r7, [r3, #0]
 8011f04:	2f00      	cmp	r7, #0
 8011f06:	dae1      	bge.n	8011ecc <vsprintf+0x68>
 8011f08:	427f      	negs	r7, r7
 8011f0a:	f046 0610 	orr.w	r6, r6, #16
 8011f0e:	e7dd      	b.n	8011ecc <vsprintf+0x68>
 8011f10:	1c5a      	adds	r2, r3, #1
 8011f12:	9203      	str	r2, [sp, #12]
 8011f14:	7859      	ldrb	r1, [r3, #1]
 8011f16:	f1a1 0230 	sub.w	r2, r1, #48	@ 0x30
 8011f1a:	b2d2      	uxtb	r2, r2
 8011f1c:	2a09      	cmp	r2, #9
 8011f1e:	d903      	bls.n	8011f28 <vsprintf+0xc4>
 8011f20:	292a      	cmp	r1, #42	@ 0x2a
 8011f22:	d009      	beq.n	8011f38 <vsprintf+0xd4>
 8011f24:	2300      	movs	r3, #0
 8011f26:	e7d7      	b.n	8011ed8 <vsprintf+0x74>
 8011f28:	a803      	add	r0, sp, #12
 8011f2a:	f7ff fdcc 	bl	8011ac6 <skip_atoi>
 8011f2e:	4603      	mov	r3, r0
 8011f30:	2b00      	cmp	r3, #0
 8011f32:	dad1      	bge.n	8011ed8 <vsprintf+0x74>
 8011f34:	2300      	movs	r3, #0
 8011f36:	e7cf      	b.n	8011ed8 <vsprintf+0x74>
 8011f38:	3302      	adds	r3, #2
 8011f3a:	9303      	str	r3, [sp, #12]
 8011f3c:	9b02      	ldr	r3, [sp, #8]
 8011f3e:	1d1a      	adds	r2, r3, #4
 8011f40:	9202      	str	r2, [sp, #8]
 8011f42:	681b      	ldr	r3, [r3, #0]
 8011f44:	e7f4      	b.n	8011f30 <vsprintf+0xcc>
 8011f46:	4611      	mov	r1, r2
 8011f48:	3001      	adds	r0, #1
 8011f4a:	9003      	str	r0, [sp, #12]
 8011f4c:	9a03      	ldr	r2, [sp, #12]
 8011f4e:	7810      	ldrb	r0, [r2, #0]
 8011f50:	f1a0 0241 	sub.w	r2, r0, #65	@ 0x41
 8011f54:	2a37      	cmp	r2, #55	@ 0x37
 8011f56:	f200 80b7 	bhi.w	80120c8 <vsprintf+0x264>
 8011f5a:	e8df f002 	tbb	[pc, r2]
 8011f5e:	b586      	.short	0xb586
 8011f60:	b5b5b5b5 	.word	0xb5b5b5b5
 8011f64:	b5b5b5b5 	.word	0xb5b5b5b5
 8011f68:	b5b5b5b5 	.word	0xb5b5b5b5
 8011f6c:	b5b5b5b5 	.word	0xb5b5b5b5
 8011f70:	b5b5b5b5 	.word	0xb5b5b5b5
 8011f74:	b5b5adb5 	.word	0xb5b5adb5
 8011f78:	b5b5b5b5 	.word	0xb5b5b5b5
 8011f7c:	b588b5b5 	.word	0xb588b5b5
 8011f80:	b5b5b11c 	.word	0xb5b5b11c
 8011f84:	b5b1b5b5 	.word	0xb5b1b5b5
 8011f88:	76b5b5b5 	.word	0x76b5b5b5
 8011f8c:	b5b562a0 	.word	0xb5b562a0
 8011f90:	b5c3b534 	.word	0xb5c3b534
 8011f94:	c5b5      	.short	0xc5b5
 8011f96:	f016 0f10 	tst.w	r6, #16
 8011f9a:	d009      	beq.n	8011fb0 <vsprintf+0x14c>
 8011f9c:	9b02      	ldr	r3, [sp, #8]
 8011f9e:	1d1a      	adds	r2, r3, #4
 8011fa0:	9202      	str	r2, [sp, #8]
 8011fa2:	781b      	ldrb	r3, [r3, #0]
 8011fa4:	f804 3b01 	strb.w	r3, [r4], #1
 8011fa8:	e009      	b.n	8011fbe <vsprintf+0x15a>
 8011faa:	2320      	movs	r3, #32
 8011fac:	f804 3b01 	strb.w	r3, [r4], #1
 8011fb0:	3f01      	subs	r7, #1
 8011fb2:	2f00      	cmp	r7, #0
 8011fb4:	dcf9      	bgt.n	8011faa <vsprintf+0x146>
 8011fb6:	e7f1      	b.n	8011f9c <vsprintf+0x138>
 8011fb8:	2320      	movs	r3, #32
 8011fba:	f804 3b01 	strb.w	r3, [r4], #1
 8011fbe:	3f01      	subs	r7, #1
 8011fc0:	2f00      	cmp	r7, #0
 8011fc2:	dcf9      	bgt.n	8011fb8 <vsprintf+0x154>
 8011fc4:	e09d      	b.n	8012102 <vsprintf+0x29e>
 8011fc6:	9b02      	ldr	r3, [sp, #8]
 8011fc8:	1d1a      	adds	r2, r3, #4
 8011fca:	9202      	str	r2, [sp, #8]
 8011fcc:	f8d3 8000 	ldr.w	r8, [r3]
 8011fd0:	f1b8 0f00 	cmp.w	r8, #0
 8011fd4:	d007      	beq.n	8011fe6 <vsprintf+0x182>
 8011fd6:	4640      	mov	r0, r8
 8011fd8:	f000 fb13 	bl	8012602 <strlen>
 8011fdc:	f016 0f10 	tst.w	r6, #16
 8011fe0:	d008      	beq.n	8011ff4 <vsprintf+0x190>
 8011fe2:	2200      	movs	r2, #0
 8011fe4:	e012      	b.n	801200c <vsprintf+0x1a8>
 8011fe6:	f8df 8150 	ldr.w	r8, [pc, #336]	@ 8012138 <vsprintf+0x2d4>
 8011fea:	e7f4      	b.n	8011fd6 <vsprintf+0x172>
 8011fec:	2220      	movs	r2, #32
 8011fee:	f804 2b01 	strb.w	r2, [r4], #1
 8011ff2:	461f      	mov	r7, r3
 8011ff4:	1e7b      	subs	r3, r7, #1
 8011ff6:	4287      	cmp	r7, r0
 8011ff8:	dcf8      	bgt.n	8011fec <vsprintf+0x188>
 8011ffa:	461f      	mov	r7, r3
 8011ffc:	e7f1      	b.n	8011fe2 <vsprintf+0x17e>
 8011ffe:	4643      	mov	r3, r8
 8012000:	f813 1b01 	ldrb.w	r1, [r3], #1
 8012004:	f804 1b01 	strb.w	r1, [r4], #1
 8012008:	3201      	adds	r2, #1
 801200a:	4698      	mov	r8, r3
 801200c:	4282      	cmp	r2, r0
 801200e:	dbf6      	blt.n	8011ffe <vsprintf+0x19a>
 8012010:	e003      	b.n	801201a <vsprintf+0x1b6>
 8012012:	2220      	movs	r2, #32
 8012014:	f804 2b01 	strb.w	r2, [r4], #1
 8012018:	461f      	mov	r7, r3
 801201a:	1e7b      	subs	r3, r7, #1
 801201c:	4287      	cmp	r7, r0
 801201e:	dcf8      	bgt.n	8012012 <vsprintf+0x1ae>
 8012020:	e06f      	b.n	8012102 <vsprintf+0x29e>
 8012022:	f1b7 3fff 	cmp.w	r7, #4294967295	@ 0xffffffff
 8012026:	d00c      	beq.n	8012042 <vsprintf+0x1de>
 8012028:	9a02      	ldr	r2, [sp, #8]
 801202a:	1d11      	adds	r1, r2, #4
 801202c:	9102      	str	r1, [sp, #8]
 801202e:	6811      	ldr	r1, [r2, #0]
 8012030:	9601      	str	r6, [sp, #4]
 8012032:	9300      	str	r3, [sp, #0]
 8012034:	463b      	mov	r3, r7
 8012036:	2210      	movs	r2, #16
 8012038:	4620      	mov	r0, r4
 801203a:	f7ff fd57 	bl	8011aec <number>
 801203e:	4604      	mov	r4, r0
 8012040:	e05f      	b.n	8012102 <vsprintf+0x29e>
 8012042:	f046 0601 	orr.w	r6, r6, #1
 8012046:	2708      	movs	r7, #8
 8012048:	e7ee      	b.n	8012028 <vsprintf+0x1c4>
 801204a:	296c      	cmp	r1, #108	@ 0x6c
 801204c:	d006      	beq.n	801205c <vsprintf+0x1f8>
 801204e:	9b02      	ldr	r3, [sp, #8]
 8012050:	1d1a      	adds	r2, r3, #4
 8012052:	9202      	str	r2, [sp, #8]
 8012054:	681b      	ldr	r3, [r3, #0]
 8012056:	1b62      	subs	r2, r4, r5
 8012058:	601a      	str	r2, [r3, #0]
 801205a:	e052      	b.n	8012102 <vsprintf+0x29e>
 801205c:	9b02      	ldr	r3, [sp, #8]
 801205e:	1d1a      	adds	r2, r3, #4
 8012060:	9202      	str	r2, [sp, #8]
 8012062:	681b      	ldr	r3, [r3, #0]
 8012064:	1b62      	subs	r2, r4, r5
 8012066:	601a      	str	r2, [r3, #0]
 8012068:	e04b      	b.n	8012102 <vsprintf+0x29e>
 801206a:	f046 0640 	orr.w	r6, r6, #64	@ 0x40
 801206e:	296c      	cmp	r1, #108	@ 0x6c
 8012070:	d00a      	beq.n	8012088 <vsprintf+0x224>
 8012072:	9a02      	ldr	r2, [sp, #8]
 8012074:	1d11      	adds	r1, r2, #4
 8012076:	9102      	str	r1, [sp, #8]
 8012078:	6811      	ldr	r1, [r2, #0]
 801207a:	9600      	str	r6, [sp, #0]
 801207c:	463a      	mov	r2, r7
 801207e:	4620      	mov	r0, r4
 8012080:	f7ff fe40 	bl	8011d04 <iaddr>
 8012084:	4604      	mov	r4, r0
 8012086:	e03c      	b.n	8012102 <vsprintf+0x29e>
 8012088:	9a02      	ldr	r2, [sp, #8]
 801208a:	1d11      	adds	r1, r2, #4
 801208c:	9102      	str	r1, [sp, #8]
 801208e:	6811      	ldr	r1, [r2, #0]
 8012090:	9600      	str	r6, [sp, #0]
 8012092:	463a      	mov	r2, r7
 8012094:	4620      	mov	r0, r4
 8012096:	f7ff fddb 	bl	8011c50 <eaddr>
 801209a:	4604      	mov	r4, r0
 801209c:	e031      	b.n	8012102 <vsprintf+0x29e>
 801209e:	2208      	movs	r2, #8
 80120a0:	296c      	cmp	r1, #108	@ 0x6c
 80120a2:	d023      	beq.n	80120ec <vsprintf+0x288>
 80120a4:	2968      	cmp	r1, #104	@ 0x68
 80120a6:	d038      	beq.n	801211a <vsprintf+0x2b6>
 80120a8:	f016 0f02 	tst.w	r6, #2
 80120ac:	d03a      	beq.n	8012124 <vsprintf+0x2c0>
 80120ae:	9902      	ldr	r1, [sp, #8]
 80120b0:	1d08      	adds	r0, r1, #4
 80120b2:	9002      	str	r0, [sp, #8]
 80120b4:	6809      	ldr	r1, [r1, #0]
 80120b6:	e01d      	b.n	80120f4 <vsprintf+0x290>
 80120b8:	f046 0640 	orr.w	r6, r6, #64	@ 0x40
 80120bc:	2210      	movs	r2, #16
 80120be:	e7ef      	b.n	80120a0 <vsprintf+0x23c>
 80120c0:	f046 0602 	orr.w	r6, r6, #2
 80120c4:	220a      	movs	r2, #10
 80120c6:	e7eb      	b.n	80120a0 <vsprintf+0x23c>
 80120c8:	2825      	cmp	r0, #37	@ 0x25
 80120ca:	d002      	beq.n	80120d2 <vsprintf+0x26e>
 80120cc:	2325      	movs	r3, #37	@ 0x25
 80120ce:	f804 3b01 	strb.w	r3, [r4], #1
 80120d2:	9b03      	ldr	r3, [sp, #12]
 80120d4:	781a      	ldrb	r2, [r3, #0]
 80120d6:	b112      	cbz	r2, 80120de <vsprintf+0x27a>
 80120d8:	f804 2b01 	strb.w	r2, [r4], #1
 80120dc:	e011      	b.n	8012102 <vsprintf+0x29e>
 80120de:	3b01      	subs	r3, #1
 80120e0:	9303      	str	r3, [sp, #12]
 80120e2:	e00e      	b.n	8012102 <vsprintf+0x29e>
 80120e4:	220a      	movs	r2, #10
 80120e6:	e7db      	b.n	80120a0 <vsprintf+0x23c>
 80120e8:	2210      	movs	r2, #16
 80120ea:	e7d9      	b.n	80120a0 <vsprintf+0x23c>
 80120ec:	9902      	ldr	r1, [sp, #8]
 80120ee:	1d08      	adds	r0, r1, #4
 80120f0:	9002      	str	r0, [sp, #8]
 80120f2:	6809      	ldr	r1, [r1, #0]
 80120f4:	9601      	str	r6, [sp, #4]
 80120f6:	9300      	str	r3, [sp, #0]
 80120f8:	463b      	mov	r3, r7
 80120fa:	4620      	mov	r0, r4
 80120fc:	f7ff fcf6 	bl	8011aec <number>
 8012100:	4604      	mov	r4, r0
 8012102:	9b03      	ldr	r3, [sp, #12]
 8012104:	3301      	adds	r3, #1
 8012106:	9303      	str	r3, [sp, #12]
 8012108:	9b03      	ldr	r3, [sp, #12]
 801210a:	781b      	ldrb	r3, [r3, #0]
 801210c:	b17b      	cbz	r3, 801212e <vsprintf+0x2ca>
 801210e:	2b25      	cmp	r3, #37	@ 0x25
 8012110:	f43f aeb0 	beq.w	8011e74 <vsprintf+0x10>
 8012114:	f804 3b01 	strb.w	r3, [r4], #1
 8012118:	e7f3      	b.n	8012102 <vsprintf+0x29e>
 801211a:	f016 0f02 	tst.w	r6, #2
 801211e:	d000      	beq.n	8012122 <vsprintf+0x2be>
 8012120:	deff      	udf	#255	@ 0xff
 8012122:	deff      	udf	#255	@ 0xff
 8012124:	9902      	ldr	r1, [sp, #8]
 8012126:	1d08      	adds	r0, r1, #4
 8012128:	9002      	str	r0, [sp, #8]
 801212a:	6809      	ldr	r1, [r1, #0]
 801212c:	e7e2      	b.n	80120f4 <vsprintf+0x290>
 801212e:	7023      	strb	r3, [r4, #0]
 8012130:	1b60      	subs	r0, r4, r5
 8012132:	b004      	add	sp, #16
 8012134:	e8bd 81f0 	ldmia.w	sp!, {r4, r5, r6, r7, r8, pc}
 8012138:	08019f84 	.word	0x08019f84

0801213c <sprintf2>:
 801213c:	b40e      	push	{r1, r2, r3}
 801213e:	b510      	push	{r4, lr}
 8012140:	b083      	sub	sp, #12
 8012142:	4604      	mov	r4, r0
 8012144:	aa05      	add	r2, sp, #20
 8012146:	f852 1b04 	ldr.w	r1, [r2], #4
 801214a:	9201      	str	r2, [sp, #4]
 801214c:	f7ff fe8a 	bl	8011e64 <vsprintf>
 8012150:	4620      	mov	r0, r4
 8012152:	b003      	add	sp, #12
 8012154:	e8bd 4010 	ldmia.w	sp!, {r4, lr}
 8012158:	b003      	add	sp, #12
 801215a:	4770      	bx	lr

0801215c <printf>:
 801215c:	b40f      	push	{r0, r1, r2, r3}
 801215e:	b500      	push	{lr}
 8012160:	b0b5      	sub	sp, #212	@ 0xd4
 8012162:	aa36      	add	r2, sp, #216	@ 0xd8
 8012164:	f852 1b04 	ldr.w	r1, [r2], #4
 8012168:	9233      	str	r2, [sp, #204]	@ 0xcc
 801216a:	a801      	add	r0, sp, #4
 801216c:	f7ff fe7a 	bl	8011e64 <vsprintf>
 8012170:	4601      	mov	r1, r0
 8012172:	a801      	add	r0, sp, #4
 8012174:	f7fe fd7e 	bl	8010c74 <lib_puts>
 8012178:	2001      	movs	r0, #1
 801217a:	b035      	add	sp, #212	@ 0xd4
 801217c:	f85d eb04 	ldr.w	lr, [sp], #4
 8012180:	b004      	add	sp, #16
 8012182:	4770      	bx	lr

08012184 <hexDump2>:
 8012184:	e92d 41f0 	stmdb	sp!, {r4, r5, r6, r7, r8, lr}
 8012188:	b086      	sub	sp, #24
 801218a:	4607      	mov	r7, r0
 801218c:	460d      	mov	r5, r1
 801218e:	4616      	mov	r6, r2
 8012190:	2400      	movs	r4, #0
 8012192:	e02b      	b.n	80121ec <hexDump2+0x68>
 8012194:	eb08 0107 	add.w	r1, r8, r7
 8012198:	4828      	ldr	r0, [pc, #160]	@ (801223c <hexDump2+0xb8>)
 801219a:	f7ff ffdf 	bl	801215c <printf>
 801219e:	f815 1008 	ldrb.w	r1, [r5, r8]
 80121a2:	4827      	ldr	r0, [pc, #156]	@ (8012240 <hexDump2+0xbc>)
 80121a4:	f7ff ffda 	bl	801215c <printf>
 80121a8:	f815 2008 	ldrb.w	r2, [r5, r8]
 80121ac:	f1a2 0320 	sub.w	r3, r2, #32
 80121b0:	b2db      	uxtb	r3, r3
 80121b2:	2b5e      	cmp	r3, #94	@ 0x5e
 80121b4:	d927      	bls.n	8012206 <hexDump2+0x82>
 80121b6:	4262      	negs	r2, r4
 80121b8:	f004 030f 	and.w	r3, r4, #15
 80121bc:	f002 020f 	and.w	r2, r2, #15
 80121c0:	bf58      	it	pl
 80121c2:	4253      	negpl	r3, r2
 80121c4:	3318      	adds	r3, #24
 80121c6:	446b      	add	r3, sp
 80121c8:	222e      	movs	r2, #46	@ 0x2e
 80121ca:	f803 2c14 	strb.w	r2, [r3, #-20]
 80121ce:	f1d4 0c00 	rsbs	ip, r4, #0
 80121d2:	f004 030f 	and.w	r3, r4, #15
 80121d6:	f00c 0c0f 	and.w	ip, ip, #15
 80121da:	bf58      	it	pl
 80121dc:	f1cc 0300 	rsbpl	r3, ip, #0
 80121e0:	3319      	adds	r3, #25
 80121e2:	446b      	add	r3, sp
 80121e4:	2200      	movs	r2, #0
 80121e6:	f803 2c14 	strb.w	r2, [r3, #-20]
 80121ea:	3401      	adds	r4, #1
 80121ec:	42b4      	cmp	r4, r6
 80121ee:	da1a      	bge.n	8012226 <hexDump2+0xa2>
 80121f0:	46a0      	mov	r8, r4
 80121f2:	f014 0f0f 	tst.w	r4, #15
 80121f6:	d1d2      	bne.n	801219e <hexDump2+0x1a>
 80121f8:	2c00      	cmp	r4, #0
 80121fa:	d0cb      	beq.n	8012194 <hexDump2+0x10>
 80121fc:	a901      	add	r1, sp, #4
 80121fe:	4811      	ldr	r0, [pc, #68]	@ (8012244 <hexDump2+0xc0>)
 8012200:	f7ff ffac 	bl	801215c <printf>
 8012204:	e7c6      	b.n	8012194 <hexDump2+0x10>
 8012206:	4261      	negs	r1, r4
 8012208:	f004 030f 	and.w	r3, r4, #15
 801220c:	f001 010f 	and.w	r1, r1, #15
 8012210:	bf58      	it	pl
 8012212:	424b      	negpl	r3, r1
 8012214:	3318      	adds	r3, #24
 8012216:	446b      	add	r3, sp
 8012218:	f803 2c14 	strb.w	r2, [r3, #-20]
 801221c:	e7d7      	b.n	80121ce <hexDump2+0x4a>
 801221e:	480a      	ldr	r0, [pc, #40]	@ (8012248 <hexDump2+0xc4>)
 8012220:	f7ff ff9c 	bl	801215c <printf>
 8012224:	3401      	adds	r4, #1
 8012226:	f014 0f0f 	tst.w	r4, #15
 801222a:	d1f8      	bne.n	801221e <hexDump2+0x9a>
 801222c:	a901      	add	r1, sp, #4
 801222e:	4805      	ldr	r0, [pc, #20]	@ (8012244 <hexDump2+0xc0>)
 8012230:	f7ff ff94 	bl	801215c <printf>
 8012234:	b006      	add	sp, #24
 8012236:	e8bd 81f0 	ldmia.w	sp!, {r4, r5, r6, r7, r8, pc}
 801223a:	bf00      	nop
 801223c:	08019f94 	.word	0x08019f94
 8012240:	08019f9c 	.word	0x08019f9c
 8012244:	08019f8c 	.word	0x08019f8c
 8012248:	08019fa4 	.word	0x08019fa4

0801224c <int_abs>:
 801224c:	2800      	cmp	r0, #0
 801224e:	dd00      	ble.n	8012252 <int_abs+0x6>
 8012250:	4770      	bx	lr
 8012252:	4240      	negs	r0, r0
 8012254:	e7fc      	b.n	8012250 <int_abs+0x4>

08012256 <strndup>:
 8012256:	b570      	push	{r4, r5, r6, lr}
 8012258:	4605      	mov	r5, r0
 801225a:	f000 fabc 	bl	80127d6 <strnlen>
 801225e:	4604      	mov	r4, r0
 8012260:	3001      	adds	r0, #1
 8012262:	f7fe fde1 	bl	8010e28 <malloc>
 8012266:	4606      	mov	r6, r0
 8012268:	b128      	cbz	r0, 8012276 <strndup+0x20>
 801226a:	4622      	mov	r2, r4
 801226c:	4629      	mov	r1, r5
 801226e:	f000 fa14 	bl	801269a <strncpy>
 8012272:	2300      	movs	r3, #0
 8012274:	5533      	strb	r3, [r6, r4]
 8012276:	4630      	mov	r0, r6
 8012278:	bd70      	pop	{r4, r5, r6, pc}

0801227a <strdup>:
 801227a:	b510      	push	{r4, lr}
 801227c:	4604      	mov	r4, r0
 801227e:	f000 f9c0 	bl	8012602 <strlen>
 8012282:	4601      	mov	r1, r0
 8012284:	4620      	mov	r0, r4
 8012286:	f7ff ffe6 	bl	8012256 <strndup>
 801228a:	bd10      	pop	{r4, pc}

0801228c <atoi>:
 801228c:	b538      	push	{r3, r4, r5, lr}
 801228e:	4605      	mov	r5, r0
 8012290:	2400      	movs	r4, #0
 8012292:	e000      	b.n	8012296 <atoi+0xa>
 8012294:	3401      	adds	r4, #1
 8012296:	4912      	ldr	r1, [pc, #72]	@ (80122e0 <atoi+0x54>)
 8012298:	5d28      	ldrb	r0, [r5, r4]
 801229a:	f000 fa17 	bl	80126cc <chrnlst>
 801229e:	4603      	mov	r3, r0
 80122a0:	2800      	cmp	r0, #0
 80122a2:	d1f7      	bne.n	8012294 <atoi+0x8>
 80122a4:	5d2a      	ldrb	r2, [r5, r4]
 80122a6:	2a2d      	cmp	r2, #45	@ 0x2d
 80122a8:	d003      	beq.n	80122b2 <atoi+0x26>
 80122aa:	2a2b      	cmp	r2, #43	@ 0x2b
 80122ac:	d10a      	bne.n	80122c4 <atoi+0x38>
 80122ae:	3401      	adds	r4, #1
 80122b0:	e008      	b.n	80122c4 <atoi+0x38>
 80122b2:	3401      	adds	r4, #1
 80122b4:	2001      	movs	r0, #1
 80122b6:	e005      	b.n	80122c4 <atoi+0x38>
 80122b8:	eb03 0383 	add.w	r3, r3, r3, lsl #2
 80122bc:	3a30      	subs	r2, #48	@ 0x30
 80122be:	eb02 0343 	add.w	r3, r2, r3, lsl #1
 80122c2:	3401      	adds	r4, #1
 80122c4:	5d2a      	ldrb	r2, [r5, r4]
 80122c6:	f1a2 0130 	sub.w	r1, r2, #48	@ 0x30
 80122ca:	b2c9      	uxtb	r1, r1
 80122cc:	2909      	cmp	r1, #9
 80122ce:	d9f3      	bls.n	80122b8 <atoi+0x2c>
 80122d0:	b120      	cbz	r0, 80122dc <atoi+0x50>
 80122d2:	f04f 30ff 	mov.w	r0, #4294967295	@ 0xffffffff
 80122d6:	fb03 f000 	mul.w	r0, r3, r0
 80122da:	bd38      	pop	{r3, r4, r5, pc}
 80122dc:	2001      	movs	r0, #1
 80122de:	e7fa      	b.n	80122d6 <atoi+0x4a>
 80122e0:	08019fa8 	.word	0x08019fa8

080122e4 <uitoa>:
 80122e4:	b5f0      	push	{r4, r5, r6, r7, lr}
 80122e6:	b08b      	sub	sp, #44	@ 0x2c
 80122e8:	4684      	mov	ip, r0
 80122ea:	460c      	mov	r4, r1
 80122ec:	4617      	mov	r7, r2
 80122ee:	469e      	mov	lr, r3
 80122f0:	ad01      	add	r5, sp, #4
 80122f2:	4e17      	ldr	r6, [pc, #92]	@ (8012350 <uitoa+0x6c>)
 80122f4:	ce0f      	ldmia	r6!, {r0, r1, r2, r3}
 80122f6:	c50f      	stmia	r5!, {r0, r1, r2, r3}
 80122f8:	ce0f      	ldmia	r6!, {r0, r1, r2, r3}
 80122fa:	c50f      	stmia	r5!, {r0, r1, r2, r3}
 80122fc:	6833      	ldr	r3, [r6, #0]
 80122fe:	602b      	str	r3, [r5, #0]
 8012300:	b307      	cbz	r7, 8012344 <uitoa+0x60>
 8012302:	4639      	mov	r1, r7
 8012304:	f1ae 0302 	sub.w	r3, lr, #2
 8012308:	2b22      	cmp	r3, #34	@ 0x22
 801230a:	d81d      	bhi.n	8012348 <uitoa+0x64>
 801230c:	2000      	movs	r0, #0
 801230e:	e000      	b.n	8012312 <uitoa+0x2e>
 8012310:	469c      	mov	ip, r3
 8012312:	fbbc f2fe 	udiv	r2, ip, lr
 8012316:	fb0e c212 	mls	r2, lr, r2, ip
 801231a:	3228      	adds	r2, #40	@ 0x28
 801231c:	446a      	add	r2, sp
 801231e:	f812 2c24 	ldrb.w	r2, [r2, #-36]
 8012322:	5422      	strb	r2, [r4, r0]
 8012324:	3001      	adds	r0, #1
 8012326:	3901      	subs	r1, #1
 8012328:	d003      	beq.n	8012332 <uitoa+0x4e>
 801232a:	fbbc f3fe 	udiv	r3, ip, lr
 801232e:	45f4      	cmp	ip, lr
 8012330:	d2ee      	bcs.n	8012310 <uitoa+0x2c>
 8012332:	b159      	cbz	r1, 801234c <uitoa+0x68>
 8012334:	2300      	movs	r3, #0
 8012336:	5423      	strb	r3, [r4, r0]
 8012338:	4620      	mov	r0, r4
 801233a:	f000 f96b 	bl	8012614 <strreverse>
 801233e:	4620      	mov	r0, r4
 8012340:	b00b      	add	sp, #44	@ 0x2c
 8012342:	bdf0      	pop	{r4, r5, r6, r7, pc}
 8012344:	2000      	movs	r0, #0
 8012346:	e7fb      	b.n	8012340 <uitoa+0x5c>
 8012348:	2000      	movs	r0, #0
 801234a:	e7f9      	b.n	8012340 <uitoa+0x5c>
 801234c:	2000      	movs	r0, #0
 801234e:	e7f7      	b.n	8012340 <uitoa+0x5c>
 8012350:	08019fb0 	.word	0x08019fb0

08012354 <itoa>:
 8012354:	b1b2      	cbz	r2, 8012384 <itoa+0x30>
 8012356:	b5f8      	push	{r3, r4, r5, r6, r7, lr}
 8012358:	460e      	mov	r6, r1
 801235a:	461c      	mov	r4, r3
 801235c:	4615      	mov	r5, r2
 801235e:	3b02      	subs	r3, #2
 8012360:	2b22      	cmp	r3, #34	@ 0x22
 8012362:	d811      	bhi.n	8012388 <itoa+0x34>
 8012364:	2800      	cmp	r0, #0
 8012366:	db08      	blt.n	801237a <itoa+0x26>
 8012368:	2700      	movs	r7, #0
 801236a:	f7ff ff6f 	bl	801224c <int_abs>
 801236e:	4623      	mov	r3, r4
 8012370:	462a      	mov	r2, r5
 8012372:	19f1      	adds	r1, r6, r7
 8012374:	f7ff ffb6 	bl	80122e4 <uitoa>
 8012378:	bdf8      	pop	{r3, r4, r5, r6, r7, pc}
 801237a:	232d      	movs	r3, #45	@ 0x2d
 801237c:	700b      	strb	r3, [r1, #0]
 801237e:	1e55      	subs	r5, r2, #1
 8012380:	2701      	movs	r7, #1
 8012382:	e7f2      	b.n	801236a <itoa+0x16>
 8012384:	2000      	movs	r0, #0
 8012386:	4770      	bx	lr
 8012388:	2000      	movs	r0, #0
 801238a:	e7f5      	b.n	8012378 <itoa+0x24>

0801238c <ftoa>:
 801238c:	b570      	push	{r4, r5, r6, lr}
 801238e:	ed2d 8b04 	vpush	{d8-d9}
 8012392:	4606      	mov	r6, r0
 8012394:	460d      	mov	r5, r1
 8012396:	ee10 2a10 	vmov	r2, s0
 801239a:	f022 4300 	bic.w	r3, r2, #2147483648	@ 0x80000000
 801239e:	f1b3 4fff 	cmp.w	r3, #2139095040	@ 0x7f800000
 80123a2:	d81e      	bhi.n	80123e2 <ftoa+0x56>
 80123a4:	eeb0 8a40 	vmov.f32	s16, s0
 80123a8:	eeb0 9a60 	vmov.f32	s18, s1
 80123ac:	f1b3 4fff 	cmp.w	r3, #2139095040	@ 0x7f800000
 80123b0:	d034      	beq.n	801241c <ftoa+0x90>
 80123b2:	eeb5 0ac0 	vcmpe.f32	s0, #0.0
 80123b6:	eef1 fa10 	vmrs	APSR_nzcv, fpscr
 80123ba:	d476      	bmi.n	80124aa <ftoa+0x11e>
 80123bc:	2001      	movs	r0, #1
 80123be:	eeb0 0a48 	vmov.f32	s0, s16
 80123c2:	f7fe fe84 	bl	80110ce <logarithm>
 80123c6:	eefd 7ac0 	vcvt.s32.f32	s15, s0
 80123ca:	ee17 4a90 	vmov	r4, s15
 80123ce:	2c00      	cmp	r4, #0
 80123d0:	da75      	bge.n	80124be <ftoa+0x132>
 80123d2:	4633      	mov	r3, r6
 80123d4:	2230      	movs	r2, #48	@ 0x30
 80123d6:	f803 2b02 	strb.w	r2, [r3], #2
 80123da:	222e      	movs	r2, #46	@ 0x2e
 80123dc:	7072      	strb	r2, [r6, #1]
 80123de:	461e      	mov	r6, r3
 80123e0:	e06d      	b.n	80124be <ftoa+0x132>
 80123e2:	226e      	movs	r2, #110	@ 0x6e
 80123e4:	7002      	strb	r2, [r0, #0]
 80123e6:	2301      	movs	r3, #1
 80123e8:	fbb3 f3f1 	udiv	r3, r3, r1
 80123ec:	fb01 f303 	mul.w	r3, r1, r3
 80123f0:	f1c3 0301 	rsb	r3, r3, #1
 80123f4:	2161      	movs	r1, #97	@ 0x61
 80123f6:	54c1      	strb	r1, [r0, r3]
 80123f8:	2302      	movs	r3, #2
 80123fa:	fbb3 f3f5 	udiv	r3, r3, r5
 80123fe:	fb05 f303 	mul.w	r3, r5, r3
 8012402:	f1c3 0302 	rsb	r3, r3, #2
 8012406:	54c2      	strb	r2, [r0, r3]
 8012408:	2303      	movs	r3, #3
 801240a:	fbb3 f3f5 	udiv	r3, r3, r5
 801240e:	fb05 f303 	mul.w	r3, r5, r3
 8012412:	f1c3 0303 	rsb	r3, r3, #3
 8012416:	2200      	movs	r2, #0
 8012418:	54c2      	strb	r2, [r0, r3]
 801241a:	e089      	b.n	8012530 <ftoa+0x1a4>
 801241c:	2a00      	cmp	r2, #0
 801241e:	db1d      	blt.n	801245c <ftoa+0xd0>
 8012420:	2369      	movs	r3, #105	@ 0x69
 8012422:	7003      	strb	r3, [r0, #0]
 8012424:	2301      	movs	r3, #1
 8012426:	fbb3 f3f1 	udiv	r3, r3, r1
 801242a:	fb01 f303 	mul.w	r3, r1, r3
 801242e:	f1c3 0301 	rsb	r3, r3, #1
 8012432:	226e      	movs	r2, #110	@ 0x6e
 8012434:	54c2      	strb	r2, [r0, r3]
 8012436:	2302      	movs	r3, #2
 8012438:	fbb3 f3f1 	udiv	r3, r3, r1
 801243c:	fb01 f303 	mul.w	r3, r1, r3
 8012440:	f1c3 0302 	rsb	r3, r3, #2
 8012444:	2266      	movs	r2, #102	@ 0x66
 8012446:	54c2      	strb	r2, [r0, r3]
 8012448:	2303      	movs	r3, #3
 801244a:	fbb3 f3f1 	udiv	r3, r3, r1
 801244e:	fb01 f303 	mul.w	r3, r1, r3
 8012452:	f1c3 0303 	rsb	r3, r3, #3
 8012456:	2200      	movs	r2, #0
 8012458:	54c2      	strb	r2, [r0, r3]
 801245a:	e069      	b.n	8012530 <ftoa+0x1a4>
 801245c:	232d      	movs	r3, #45	@ 0x2d
 801245e:	7003      	strb	r3, [r0, #0]
 8012460:	2301      	movs	r3, #1
 8012462:	fbb3 f3f1 	udiv	r3, r3, r1
 8012466:	fb01 f303 	mul.w	r3, r1, r3
 801246a:	f1c3 0301 	rsb	r3, r3, #1
 801246e:	2269      	movs	r2, #105	@ 0x69
 8012470:	54c2      	strb	r2, [r0, r3]
 8012472:	2302      	movs	r3, #2
 8012474:	fbb3 f3f1 	udiv	r3, r3, r1
 8012478:	fb01 f303 	mul.w	r3, r1, r3
 801247c:	f1c3 0302 	rsb	r3, r3, #2
 8012480:	226e      	movs	r2, #110	@ 0x6e
 8012482:	54c2      	strb	r2, [r0, r3]
 8012484:	2303      	movs	r3, #3
 8012486:	fbb3 f3f1 	udiv	r3, r3, r1
 801248a:	fb01 f303 	mul.w	r3, r1, r3
 801248e:	f1c3 0303 	rsb	r3, r3, #3
 8012492:	2266      	movs	r2, #102	@ 0x66
 8012494:	54c2      	strb	r2, [r0, r3]
 8012496:	2304      	movs	r3, #4
 8012498:	fbb3 f3f1 	udiv	r3, r3, r1
 801249c:	fb01 f303 	mul.w	r3, r1, r3
 80124a0:	f1c3 0304 	rsb	r3, r3, #4
 80124a4:	2200      	movs	r2, #0
 80124a6:	54c2      	strb	r2, [r0, r3]
 80124a8:	e042      	b.n	8012530 <ftoa+0x1a4>
 80124aa:	232d      	movs	r3, #45	@ 0x2d
 80124ac:	f806 3b01 	strb.w	r3, [r6], #1
 80124b0:	1e4d      	subs	r5, r1, #1
 80124b2:	eeb1 8a40 	vneg.f32	s16, s0
 80124b6:	e781      	b.n	80123bc <ftoa+0x30>
 80124b8:	3c01      	subs	r4, #1
 80124ba:	461d      	mov	r5, r3
 80124bc:	4616      	mov	r6, r2
 80124be:	eddf 7a21 	vldr	s15, [pc, #132]	@ 8012544 <ftoa+0x1b8>
 80124c2:	ee79 7a27 	vadd.f32	s15, s18, s15
 80124c6:	eef4 7ac8 	vcmpe.f32	s15, s16
 80124ca:	eef1 fa10 	vmrs	APSR_nzcv, fpscr
 80124ce:	d401      	bmi.n	80124d4 <ftoa+0x148>
 80124d0:	2c00      	cmp	r4, #0
 80124d2:	db27      	blt.n	8012524 <ftoa+0x198>
 80124d4:	2d01      	cmp	r5, #1
 80124d6:	d925      	bls.n	8012524 <ftoa+0x198>
 80124d8:	ee07 4a90 	vmov	s15, r4
 80124dc:	eef8 0ae7 	vcvt.f32.s32	s1, s15
 80124e0:	eeb2 0a04 	vmov.f32	s0, #36	@ 0x41200000  10.0
 80124e4:	f7fe ffb2 	bl	801144c <powf>
 80124e8:	eef0 8a40 	vmov.f32	s17, s0
 80124ec:	ee88 0a28 	vdiv.f32	s0, s16, s17
 80124f0:	f7fe fea6 	bl	8011240 <floorf>
 80124f4:	eefd 7ac0 	vcvt.s32.f32	s15, s0
 80124f8:	eeb8 7ae7 	vcvt.f32.s32	s14, s15
 80124fc:	ee27 7a28 	vmul.f32	s14, s14, s17
 8012500:	ee38 8a47 	vsub.f32	s16, s16, s14
 8012504:	4632      	mov	r2, r6
 8012506:	ee17 3a90 	vmov	r3, s15
 801250a:	3330      	adds	r3, #48	@ 0x30
 801250c:	f802 3b01 	strb.w	r3, [r2], #1
 8012510:	1e6b      	subs	r3, r5, #1
 8012512:	2c00      	cmp	r4, #0
 8012514:	d1d0      	bne.n	80124b8 <ftoa+0x12c>
 8012516:	2b01      	cmp	r3, #1
 8012518:	d9ce      	bls.n	80124b8 <ftoa+0x12c>
 801251a:	1cb2      	adds	r2, r6, #2
 801251c:	232e      	movs	r3, #46	@ 0x2e
 801251e:	7073      	strb	r3, [r6, #1]
 8012520:	1eab      	subs	r3, r5, #2
 8012522:	e7c9      	b.n	80124b8 <ftoa+0x12c>
 8012524:	f816 3c01 	ldrb.w	r3, [r6, #-1]
 8012528:	2b2e      	cmp	r3, #46	@ 0x2e
 801252a:	d004      	beq.n	8012536 <ftoa+0x1aa>
 801252c:	2300      	movs	r3, #0
 801252e:	7033      	strb	r3, [r6, #0]
 8012530:	ecbd 8b04 	vpop	{d8-d9}
 8012534:	bd70      	pop	{r4, r5, r6, pc}
 8012536:	2d01      	cmp	r5, #1
 8012538:	d9f8      	bls.n	801252c <ftoa+0x1a0>
 801253a:	2330      	movs	r3, #48	@ 0x30
 801253c:	f806 3b01 	strb.w	r3, [r6], #1
 8012540:	e7f4      	b.n	801252c <ftoa+0x1a0>
 8012542:	bf00      	nop
 8012544:	00000000 	.word	0x00000000

08012548 <bzero>:
 8012548:	2900      	cmp	r1, #0
 801254a:	dd04      	ble.n	8012556 <bzero+0xe>
 801254c:	2200      	movs	r2, #0
 801254e:	7002      	strb	r2, [r0, #0]
 8012550:	3001      	adds	r0, #1
 8012552:	3901      	subs	r1, #1
 8012554:	d1fa      	bne.n	801254c <bzero+0x4>
 8012556:	4770      	bx	lr

08012558 <memchr>:
 8012558:	e001      	b.n	801255e <memchr+0x6>
 801255a:	3001      	adds	r0, #1
 801255c:	461a      	mov	r2, r3
 801255e:	1e53      	subs	r3, r2, #1
 8012560:	b11a      	cbz	r2, 801256a <memchr+0x12>
 8012562:	7802      	ldrb	r2, [r0, #0]
 8012564:	428a      	cmp	r2, r1
 8012566:	d1f8      	bne.n	801255a <memchr+0x2>
 8012568:	e000      	b.n	801256c <memchr+0x14>
 801256a:	2000      	movs	r0, #0
 801256c:	4770      	bx	lr

0801256e <memcmp>:
 801256e:	4603      	mov	r3, r0
 8012570:	4610      	mov	r0, r2
 8012572:	e002      	b.n	801257a <memcmp+0xc>
 8012574:	3301      	adds	r3, #1
 8012576:	3101      	adds	r1, #1
 8012578:	4660      	mov	r0, ip
 801257a:	f100 3cff 	add.w	ip, r0, #4294967295	@ 0xffffffff
 801257e:	b130      	cbz	r0, 801258e <memcmp+0x20>
 8012580:	7818      	ldrb	r0, [r3, #0]
 8012582:	780a      	ldrb	r2, [r1, #0]
 8012584:	4290      	cmp	r0, r2
 8012586:	d0f5      	beq.n	8012574 <memcmp+0x6>
 8012588:	d902      	bls.n	8012590 <memcmp+0x22>
 801258a:	2001      	movs	r0, #1
 801258c:	4770      	bx	lr
 801258e:	4770      	bx	lr
 8012590:	f04f 30ff 	mov.w	r0, #4294967295	@ 0xffffffff
 8012594:	4770      	bx	lr

08012596 <memset>:
 8012596:	4402      	add	r2, r0
 8012598:	e001      	b.n	801259e <memset+0x8>
 801259a:	f800 1b01 	strb.w	r1, [r0], #1
 801259e:	4290      	cmp	r0, r2
 80125a0:	d3fb      	bcc.n	801259a <memset+0x4>
 80125a2:	4770      	bx	lr

080125a4 <memcpy>:
 80125a4:	4603      	mov	r3, r0
 80125a6:	f04f 0c00 	mov.w	ip, #0
 80125aa:	4594      	cmp	ip, r2
 80125ac:	da0a      	bge.n	80125c4 <memcpy+0x20>
 80125ae:	b500      	push	{lr}
 80125b0:	f811 eb01 	ldrb.w	lr, [r1], #1
 80125b4:	f803 eb01 	strb.w	lr, [r3], #1
 80125b8:	f10c 0c01 	add.w	ip, ip, #1
 80125bc:	4594      	cmp	ip, r2
 80125be:	dbf7      	blt.n	80125b0 <memcpy+0xc>
 80125c0:	f85d fb04 	ldr.w	pc, [sp], #4
 80125c4:	4770      	bx	lr

080125c6 <memmove>:
 80125c6:	4281      	cmp	r1, r0
 80125c8:	d303      	bcc.n	80125d2 <memmove+0xc>
 80125ca:	e00b      	b.n	80125e4 <memmove+0x1e>
 80125cc:	5cca      	ldrb	r2, [r1, r3]
 80125ce:	54c2      	strb	r2, [r0, r3]
 80125d0:	461a      	mov	r2, r3
 80125d2:	1e53      	subs	r3, r2, #1
 80125d4:	2a00      	cmp	r2, #0
 80125d6:	d1f9      	bne.n	80125cc <memmove+0x6>
 80125d8:	4770      	bx	lr
 80125da:	f811 2b01 	ldrb.w	r2, [r1], #1
 80125de:	f800 2b01 	strb.w	r2, [r0], #1
 80125e2:	461a      	mov	r2, r3
 80125e4:	1e53      	subs	r3, r2, #1
 80125e6:	2a00      	cmp	r2, #0
 80125e8:	d1f7      	bne.n	80125da <memmove+0x14>
 80125ea:	4770      	bx	lr

080125ec <strchr>:
 80125ec:	e000      	b.n	80125f0 <strchr+0x4>
 80125ee:	3001      	adds	r0, #1
 80125f0:	7803      	ldrb	r3, [r0, #0]
 80125f2:	428b      	cmp	r3, r1
 80125f4:	d001      	beq.n	80125fa <strchr+0xe>
 80125f6:	2b00      	cmp	r3, #0
 80125f8:	d1f9      	bne.n	80125ee <strchr+0x2>
 80125fa:	428b      	cmp	r3, r1
 80125fc:	d000      	beq.n	8012600 <strchr+0x14>
 80125fe:	2000      	movs	r0, #0
 8012600:	4770      	bx	lr

08012602 <strlen>:
 8012602:	4603      	mov	r3, r0
 8012604:	2000      	movs	r0, #0
 8012606:	e000      	b.n	801260a <strlen+0x8>
 8012608:	3001      	adds	r0, #1
 801260a:	f813 2b01 	ldrb.w	r2, [r3], #1
 801260e:	2a00      	cmp	r2, #0
 8012610:	d1fa      	bne.n	8012608 <strlen+0x6>
 8012612:	4770      	bx	lr

08012614 <strreverse>:
 8012614:	4602      	mov	r2, r0
 8012616:	b180      	cbz	r0, 801263a <strreverse+0x26>
 8012618:	7803      	ldrb	r3, [r0, #0]
 801261a:	b173      	cbz	r3, 801263a <strreverse+0x26>
 801261c:	4601      	mov	r1, r0
 801261e:	460b      	mov	r3, r1
 8012620:	f811 0f01 	ldrb.w	r0, [r1, #1]!
 8012624:	2800      	cmp	r0, #0
 8012626:	d1fa      	bne.n	801261e <strreverse+0xa>
 8012628:	e005      	b.n	8012636 <strreverse+0x22>
 801262a:	7811      	ldrb	r1, [r2, #0]
 801262c:	7818      	ldrb	r0, [r3, #0]
 801262e:	f802 0b01 	strb.w	r0, [r2], #1
 8012632:	f803 1901 	strb.w	r1, [r3], #-1
 8012636:	4293      	cmp	r3, r2
 8012638:	d8f7      	bhi.n	801262a <strreverse+0x16>
 801263a:	4770      	bx	lr

0801263c <strcmp>:
 801263c:	e001      	b.n	8012642 <strcmp+0x6>
 801263e:	3001      	adds	r0, #1
 8012640:	3101      	adds	r1, #1
 8012642:	7803      	ldrb	r3, [r0, #0]
 8012644:	780a      	ldrb	r2, [r1, #0]
 8012646:	4293      	cmp	r3, r2
 8012648:	d102      	bne.n	8012650 <strcmp+0x14>
 801264a:	b10b      	cbz	r3, 8012650 <strcmp+0x14>
 801264c:	2a00      	cmp	r2, #0
 801264e:	d1f6      	bne.n	801263e <strcmp+0x2>
 8012650:	4293      	cmp	r3, r2
 8012652:	d002      	beq.n	801265a <strcmp+0x1e>
 8012654:	d903      	bls.n	801265e <strcmp+0x22>
 8012656:	2001      	movs	r0, #1
 8012658:	4770      	bx	lr
 801265a:	2000      	movs	r0, #0
 801265c:	4770      	bx	lr
 801265e:	f04f 30ff 	mov.w	r0, #4294967295	@ 0xffffffff
 8012662:	4770      	bx	lr

08012664 <strncmp>:
 8012664:	b410      	push	{r4}
 8012666:	7803      	ldrb	r3, [r0, #0]
 8012668:	780c      	ldrb	r4, [r1, #0]
 801266a:	42a3      	cmp	r3, r4
 801266c:	d106      	bne.n	801267c <strncmp+0x18>
 801266e:	b12b      	cbz	r3, 801267c <strncmp+0x18>
 8012670:	b124      	cbz	r4, 801267c <strncmp+0x18>
 8012672:	b11a      	cbz	r2, 801267c <strncmp+0x18>
 8012674:	3001      	adds	r0, #1
 8012676:	3101      	adds	r1, #1
 8012678:	3a01      	subs	r2, #1
 801267a:	e7f4      	b.n	8012666 <strncmp+0x2>
 801267c:	b122      	cbz	r2, 8012688 <strncmp+0x24>
 801267e:	42a3      	cmp	r3, r4
 8012680:	d006      	beq.n	8012690 <strncmp+0x2c>
 8012682:	d907      	bls.n	8012694 <strncmp+0x30>
 8012684:	2001      	movs	r0, #1
 8012686:	e000      	b.n	801268a <strncmp+0x26>
 8012688:	4610      	mov	r0, r2
 801268a:	f85d 4b04 	ldr.w	r4, [sp], #4
 801268e:	4770      	bx	lr
 8012690:	2000      	movs	r0, #0
 8012692:	e7fa      	b.n	801268a <strncmp+0x26>
 8012694:	f04f 30ff 	mov.w	r0, #4294967295	@ 0xffffffff
 8012698:	e7f7      	b.n	801268a <strncmp+0x26>

0801269a <strncpy>:
 801269a:	b410      	push	{r4}
 801269c:	4603      	mov	r3, r0
 801269e:	e003      	b.n	80126a8 <strncpy+0xe>
 80126a0:	3101      	adds	r1, #1
 80126a2:	f803 4b01 	strb.w	r4, [r3], #1
 80126a6:	4662      	mov	r2, ip
 80126a8:	780c      	ldrb	r4, [r1, #0]
 80126aa:	b124      	cbz	r4, 80126b6 <strncpy+0x1c>
 80126ac:	f102 3cff 	add.w	ip, r2, #4294967295	@ 0xffffffff
 80126b0:	2a00      	cmp	r2, #0
 80126b2:	dcf5      	bgt.n	80126a0 <strncpy+0x6>
 80126b4:	4662      	mov	r2, ip
 80126b6:	1e51      	subs	r1, r2, #1
 80126b8:	2a00      	cmp	r2, #0
 80126ba:	dd04      	ble.n	80126c6 <strncpy+0x2c>
 80126bc:	2200      	movs	r2, #0
 80126be:	f803 2b01 	strb.w	r2, [r3], #1
 80126c2:	460a      	mov	r2, r1
 80126c4:	e7f7      	b.n	80126b6 <strncpy+0x1c>
 80126c6:	f85d 4b04 	ldr.w	r4, [sp], #4
 80126ca:	4770      	bx	lr

080126cc <chrnlst>:
 80126cc:	2200      	movs	r2, #0
 80126ce:	e000      	b.n	80126d2 <chrnlst+0x6>
 80126d0:	3201      	adds	r2, #1
 80126d2:	5c8b      	ldrb	r3, [r1, r2]
 80126d4:	b11b      	cbz	r3, 80126de <chrnlst+0x12>
 80126d6:	4283      	cmp	r3, r0
 80126d8:	d1fa      	bne.n	80126d0 <chrnlst+0x4>
 80126da:	2001      	movs	r0, #1
 80126dc:	4770      	bx	lr
 80126de:	2000      	movs	r0, #0
 80126e0:	4770      	bx	lr

080126e2 <strncat>:
 80126e2:	b510      	push	{r4, lr}
 80126e4:	4684      	mov	ip, r0
 80126e6:	4663      	mov	r3, ip
 80126e8:	f10c 0c01 	add.w	ip, ip, #1
 80126ec:	781c      	ldrb	r4, [r3, #0]
 80126ee:	2c00      	cmp	r4, #0
 80126f0:	d1f9      	bne.n	80126e6 <strncat+0x4>
 80126f2:	468e      	mov	lr, r1
 80126f4:	780c      	ldrb	r4, [r1, #0]
 80126f6:	3101      	adds	r1, #1
 80126f8:	701c      	strb	r4, [r3, #0]
 80126fa:	3301      	adds	r3, #1
 80126fc:	b124      	cbz	r4, 8012708 <strncat+0x26>
 80126fe:	3a01      	subs	r2, #1
 8012700:	d5f7      	bpl.n	80126f2 <strncat+0x10>
 8012702:	2200      	movs	r2, #0
 8012704:	f803 2c01 	strb.w	r2, [r3, #-1]
 8012708:	bd10      	pop	{r4, pc}

0801270a <strstr>:
 801270a:	7803      	ldrb	r3, [r0, #0]
 801270c:	b33b      	cbz	r3, 801275e <strstr+0x54>
 801270e:	780a      	ldrb	r2, [r1, #0]
 8012710:	429a      	cmp	r2, r3
 8012712:	d01a      	beq.n	801274a <strstr+0x40>
 8012714:	3001      	adds	r0, #1
 8012716:	e7f8      	b.n	801270a <strstr>
 8012718:	f10c 0c01 	add.w	ip, ip, #1
 801271c:	3301      	adds	r3, #1
 801271e:	f89c 2000 	ldrb.w	r2, [ip]
 8012722:	b11a      	cbz	r2, 801272c <strstr+0x22>
 8012724:	781c      	ldrb	r4, [r3, #0]
 8012726:	b10c      	cbz	r4, 801272c <strstr+0x22>
 8012728:	42a2      	cmp	r2, r4
 801272a:	d0f5      	beq.n	8012718 <strstr+0xe>
 801272c:	781b      	ldrb	r3, [r3, #0]
 801272e:	b14b      	cbz	r3, 8012744 <strstr+0x3a>
 8012730:	3001      	adds	r0, #1
 8012732:	7803      	ldrb	r3, [r0, #0]
 8012734:	b12b      	cbz	r3, 8012742 <strstr+0x38>
 8012736:	780a      	ldrb	r2, [r1, #0]
 8012738:	429a      	cmp	r2, r3
 801273a:	d1f9      	bne.n	8012730 <strstr+0x26>
 801273c:	460b      	mov	r3, r1
 801273e:	4684      	mov	ip, r0
 8012740:	e7ed      	b.n	801271e <strstr+0x14>
 8012742:	2000      	movs	r0, #0
 8012744:	f85d 4b04 	ldr.w	r4, [sp], #4
 8012748:	4770      	bx	lr
 801274a:	460b      	mov	r3, r1
 801274c:	4684      	mov	ip, r0
 801274e:	7802      	ldrb	r2, [r0, #0]
 8012750:	b10a      	cbz	r2, 8012756 <strstr+0x4c>
 8012752:	b410      	push	{r4}
 8012754:	e7e6      	b.n	8012724 <strstr+0x1a>
 8012756:	780b      	ldrb	r3, [r1, #0]
 8012758:	2b00      	cmp	r3, #0
 801275a:	d1db      	bne.n	8012714 <strstr+0xa>
 801275c:	4770      	bx	lr
 801275e:	2000      	movs	r0, #0
 8012760:	4770      	bx	lr

08012762 <strcpy>:
 8012762:	780a      	ldrb	r2, [r1, #0]
 8012764:	3101      	adds	r1, #1
 8012766:	7002      	strb	r2, [r0, #0]
 8012768:	3001      	adds	r0, #1
 801276a:	2a00      	cmp	r2, #0
 801276c:	d1f9      	bne.n	8012762 <strcpy>
 801276e:	2000      	movs	r0, #0
 8012770:	4770      	bx	lr

08012772 <strspn>:
 8012772:	b500      	push	{lr}
 8012774:	468e      	mov	lr, r1
 8012776:	4684      	mov	ip, r0
 8012778:	e002      	b.n	8012780 <strspn+0xe>
 801277a:	b163      	cbz	r3, 8012796 <strspn+0x24>
 801277c:	f10c 0c01 	add.w	ip, ip, #1
 8012780:	f89c 1000 	ldrb.w	r1, [ip]
 8012784:	b139      	cbz	r1, 8012796 <strspn+0x24>
 8012786:	4672      	mov	r2, lr
 8012788:	7813      	ldrb	r3, [r2, #0]
 801278a:	2b00      	cmp	r3, #0
 801278c:	d0f5      	beq.n	801277a <strspn+0x8>
 801278e:	428b      	cmp	r3, r1
 8012790:	d0f3      	beq.n	801277a <strspn+0x8>
 8012792:	3201      	adds	r2, #1
 8012794:	e7f8      	b.n	8012788 <strspn+0x16>
 8012796:	ebac 0000 	sub.w	r0, ip, r0
 801279a:	f85d fb04 	ldr.w	pc, [sp], #4

0801279e <strcat>:
 801279e:	b538      	push	{r3, r4, r5, lr}
 80127a0:	4604      	mov	r4, r0
 80127a2:	460d      	mov	r5, r1
 80127a4:	f7ff ff2d 	bl	8012602 <strlen>
 80127a8:	4629      	mov	r1, r5
 80127aa:	4420      	add	r0, r4
 80127ac:	f7ff ffd9 	bl	8012762 <strcpy>
 80127b0:	4620      	mov	r0, r4
 80127b2:	bd38      	pop	{r3, r4, r5, pc}

080127b4 <strcspn>:
 80127b4:	b510      	push	{r4, lr}
 80127b6:	4686      	mov	lr, r0
 80127b8:	4674      	mov	r4, lr
 80127ba:	f814 cb01 	ldrb.w	ip, [r4], #1
 80127be:	460a      	mov	r2, r1
 80127c0:	7813      	ldrb	r3, [r2, #0]
 80127c2:	3201      	adds	r2, #1
 80127c4:	459c      	cmp	ip, r3
 80127c6:	d003      	beq.n	80127d0 <strcspn+0x1c>
 80127c8:	2b00      	cmp	r3, #0
 80127ca:	d1f9      	bne.n	80127c0 <strcspn+0xc>
 80127cc:	46a6      	mov	lr, r4
 80127ce:	e7f3      	b.n	80127b8 <strcspn+0x4>
 80127d0:	ebae 0000 	sub.w	r0, lr, r0
 80127d4:	bd10      	pop	{r4, pc}

080127d6 <strnlen>:
 80127d6:	4603      	mov	r3, r0
 80127d8:	2000      	movs	r0, #0
 80127da:	e000      	b.n	80127de <strnlen+0x8>
 80127dc:	3001      	adds	r0, #1
 80127de:	f813 2b01 	ldrb.w	r2, [r3], #1
 80127e2:	b10a      	cbz	r2, 80127e8 <strnlen+0x12>
 80127e4:	4288      	cmp	r0, r1
 80127e6:	dbf9      	blt.n	80127dc <strnlen+0x6>
 80127e8:	4770      	bx	lr

080127ea <strtok>:
 80127ea:	b430      	push	{r4, r5}
 80127ec:	4605      	mov	r5, r0
 80127ee:	b928      	cbnz	r0, 80127fc <strtok+0x12>
 80127f0:	4b15      	ldr	r3, [pc, #84]	@ (8012848 <strtok+0x5e>)
 80127f2:	681d      	ldr	r5, [r3, #0]
 80127f4:	b915      	cbnz	r5, 80127fc <strtok+0x12>
 80127f6:	4628      	mov	r0, r5
 80127f8:	e024      	b.n	8012844 <strtok+0x5a>
 80127fa:	4665      	mov	r5, ip
 80127fc:	46ac      	mov	ip, r5
 80127fe:	f81c 4b01 	ldrb.w	r4, [ip], #1
 8012802:	460a      	mov	r2, r1
 8012804:	7813      	ldrb	r3, [r2, #0]
 8012806:	3201      	adds	r2, #1
 8012808:	b113      	cbz	r3, 8012810 <strtok+0x26>
 801280a:	429c      	cmp	r4, r3
 801280c:	d1fa      	bne.n	8012804 <strtok+0x1a>
 801280e:	e7f4      	b.n	80127fa <strtok+0x10>
 8012810:	b14c      	cbz	r4, 8012826 <strtok+0x3c>
 8012812:	f81c 4b01 	ldrb.w	r4, [ip], #1
 8012816:	460a      	mov	r2, r1
 8012818:	7813      	ldrb	r3, [r2, #0]
 801281a:	3201      	adds	r2, #1
 801281c:	429c      	cmp	r4, r3
 801281e:	d006      	beq.n	801282e <strtok+0x44>
 8012820:	2b00      	cmp	r3, #0
 8012822:	d1f9      	bne.n	8012818 <strtok+0x2e>
 8012824:	e7f5      	b.n	8012812 <strtok+0x28>
 8012826:	2000      	movs	r0, #0
 8012828:	4b07      	ldr	r3, [pc, #28]	@ (8012848 <strtok+0x5e>)
 801282a:	6018      	str	r0, [r3, #0]
 801282c:	e00a      	b.n	8012844 <strtok+0x5a>
 801282e:	b11c      	cbz	r4, 8012838 <strtok+0x4e>
 8012830:	2300      	movs	r3, #0
 8012832:	f80c 3c01 	strb.w	r3, [ip, #-1]
 8012836:	e001      	b.n	801283c <strtok+0x52>
 8012838:	f04f 0c00 	mov.w	ip, #0
 801283c:	4b02      	ldr	r3, [pc, #8]	@ (8012848 <strtok+0x5e>)
 801283e:	f8c3 c000 	str.w	ip, [r3]
 8012842:	4628      	mov	r0, r5
 8012844:	bc30      	pop	{r4, r5}
 8012846:	4770      	bx	lr
 8012848:	20000130 	.word	0x20000130

0801284c <strrchr>:
 801284c:	4603      	mov	r3, r0
 801284e:	2000      	movs	r0, #0
 8012850:	e000      	b.n	8012854 <strrchr+0x8>
 8012852:	3301      	adds	r3, #1
 8012854:	781a      	ldrb	r2, [r3, #0]
 8012856:	b12a      	cbz	r2, 8012864 <strrchr+0x18>
 8012858:	fa5f fc81 	uxtb.w	ip, r1
 801285c:	4594      	cmp	ip, r2
 801285e:	d1f8      	bne.n	8012852 <strrchr+0x6>
 8012860:	4618      	mov	r0, r3
 8012862:	e7f6      	b.n	8012852 <strrchr+0x6>
 8012864:	b2c9      	uxtb	r1, r1
 8012866:	428a      	cmp	r2, r1
 8012868:	d000      	beq.n	801286c <strrchr+0x20>
 801286a:	4770      	bx	lr
 801286c:	4618      	mov	r0, r3
 801286e:	e7fc      	b.n	801286a <strrchr+0x1e>

08012870 <hw_cfg_pin>:
 8012870:	e92d 41f0 	stmdb	sp!, {r4, r5, r6, r7, r8, lr}
 8012874:	4604      	mov	r4, r0
 8012876:	460e      	mov	r6, r1
 8012878:	4615      	mov	r5, r2
 801287a:	004f      	lsls	r7, r1, #1
 801287c:	b2ff      	uxtb	r7, r7
 801287e:	f8df 8080 	ldr.w	r8, [pc, #128]	@ 8012900 <hw_cfg_pin+0x90>
 8012882:	4640      	mov	r0, r8
 8012884:	f006 f823 	bl	80188ce <sem_wait>
 8012888:	08f2      	lsrs	r2, r6, #3
 801288a:	3208      	adds	r2, #8
 801288c:	f854 3022 	ldr.w	r3, [r4, r2, lsl #2]
 8012890:	f006 0107 	and.w	r1, r6, #7
 8012894:	0089      	lsls	r1, r1, #2
 8012896:	200f      	movs	r0, #15
 8012898:	4088      	lsls	r0, r1
 801289a:	ea23 0300 	bic.w	r3, r3, r0
 801289e:	f005 000f 	and.w	r0, r5, #15
 80128a2:	fa00 f101 	lsl.w	r1, r0, r1
 80128a6:	430b      	orrs	r3, r1
 80128a8:	f844 3022 	str.w	r3, [r4, r2, lsl #2]
 80128ac:	6823      	ldr	r3, [r4, #0]
 80128ae:	2203      	movs	r2, #3
 80128b0:	40ba      	lsls	r2, r7
 80128b2:	ea23 0302 	bic.w	r3, r3, r2
 80128b6:	f3c5 1101 	ubfx	r1, r5, #4, #2
 80128ba:	40b9      	lsls	r1, r7
 80128bc:	430b      	orrs	r3, r1
 80128be:	6023      	str	r3, [r4, #0]
 80128c0:	68a3      	ldr	r3, [r4, #8]
 80128c2:	ea23 0302 	bic.w	r3, r3, r2
 80128c6:	f3c5 11c1 	ubfx	r1, r5, #7, #2
 80128ca:	40b9      	lsls	r1, r7
 80128cc:	430b      	orrs	r3, r1
 80128ce:	60a3      	str	r3, [r4, #8]
 80128d0:	6863      	ldr	r3, [r4, #4]
 80128d2:	2101      	movs	r1, #1
 80128d4:	40b1      	lsls	r1, r6
 80128d6:	ea23 0301 	bic.w	r3, r3, r1
 80128da:	f3c5 1180 	ubfx	r1, r5, #6, #1
 80128de:	40b1      	lsls	r1, r6
 80128e0:	430b      	orrs	r3, r1
 80128e2:	6063      	str	r3, [r4, #4]
 80128e4:	68e3      	ldr	r3, [r4, #12]
 80128e6:	ea23 0302 	bic.w	r3, r3, r2
 80128ea:	f3c5 2541 	ubfx	r5, r5, #9, #2
 80128ee:	40bd      	lsls	r5, r7
 80128f0:	432b      	orrs	r3, r5
 80128f2:	60e3      	str	r3, [r4, #12]
 80128f4:	4640      	mov	r0, r8
 80128f6:	f006 f80b 	bl	8018910 <sem_signal>
 80128fa:	e8bd 81f0 	ldmia.w	sp!, {r4, r5, r6, r7, r8, pc}
 80128fe:	bf00      	nop
 8012900:	20000134 	.word	0x20000134

08012904 <hw_set_pin>:
 8012904:	b5f8      	push	{r3, r4, r5, r6, r7, lr}
 8012906:	4605      	mov	r5, r0
 8012908:	460f      	mov	r7, r1
 801290a:	4614      	mov	r4, r2
 801290c:	4e09      	ldr	r6, [pc, #36]	@ (8012934 <hw_set_pin+0x30>)
 801290e:	4630      	mov	r0, r6
 8012910:	f005 ffdd 	bl	80188ce <sem_wait>
 8012914:	696b      	ldr	r3, [r5, #20]
 8012916:	2201      	movs	r2, #1
 8012918:	40ba      	lsls	r2, r7
 801291a:	ea23 0302 	bic.w	r3, r3, r2
 801291e:	f004 0401 	and.w	r4, r4, #1
 8012922:	fa04 f107 	lsl.w	r1, r4, r7
 8012926:	430b      	orrs	r3, r1
 8012928:	616b      	str	r3, [r5, #20]
 801292a:	4630      	mov	r0, r6
 801292c:	f005 fff0 	bl	8018910 <sem_signal>
 8012930:	bdf8      	pop	{r3, r4, r5, r6, r7, pc}
 8012932:	bf00      	nop
 8012934:	20000134 	.word	0x20000134

08012938 <hw_toggle_pin>:
 8012938:	b570      	push	{r4, r5, r6, lr}
 801293a:	4604      	mov	r4, r0
 801293c:	460e      	mov	r6, r1
 801293e:	4d08      	ldr	r5, [pc, #32]	@ (8012960 <hw_toggle_pin+0x28>)
 8012940:	4628      	mov	r0, r5
 8012942:	f005 ffc4 	bl	80188ce <sem_wait>
 8012946:	6961      	ldr	r1, [r4, #20]
 8012948:	2301      	movs	r3, #1
 801294a:	40b3      	lsls	r3, r6
 801294c:	ea21 0103 	bic.w	r1, r1, r3
 8012950:	4319      	orrs	r1, r3
 8012952:	6963      	ldr	r3, [r4, #20]
 8012954:	404b      	eors	r3, r1
 8012956:	6163      	str	r3, [r4, #20]
 8012958:	4628      	mov	r0, r5
 801295a:	f005 ffd9 	bl	8018910 <sem_signal>
 801295e:	bd70      	pop	{r4, r5, r6, pc}
 8012960:	20000134 	.word	0x20000134

08012964 <hw_get_pin>:
 8012964:	b570      	push	{r4, r5, r6, lr}
 8012966:	4604      	mov	r4, r0
 8012968:	460d      	mov	r5, r1
 801296a:	4e07      	ldr	r6, [pc, #28]	@ (8012988 <hw_get_pin+0x24>)
 801296c:	4630      	mov	r0, r6
 801296e:	f005 ffae 	bl	80188ce <sem_wait>
 8012972:	6924      	ldr	r4, [r4, #16]
 8012974:	2301      	movs	r3, #1
 8012976:	40ab      	lsls	r3, r5
 8012978:	401c      	ands	r4, r3
 801297a:	40ec      	lsrs	r4, r5
 801297c:	b2e4      	uxtb	r4, r4
 801297e:	4630      	mov	r0, r6
 8012980:	f005 ffc6 	bl	8018910 <sem_signal>
 8012984:	4620      	mov	r0, r4
 8012986:	bd70      	pop	{r4, r5, r6, pc}
 8012988:	20000134 	.word	0x20000134

0801298c <lexan>:
 801298c:	b5f0      	push	{r4, r5, r6, r7, lr}
 801298e:	4696      	mov	lr, r2
 8012990:	461e      	mov	r6, r3
 8012992:	9d05      	ldr	r5, [sp, #20]
 8012994:	9c06      	ldr	r4, [sp, #24]
 8012996:	2300      	movs	r3, #0
 8012998:	469c      	mov	ip, r3
 801299a:	7802      	ldrb	r2, [r0, #0]
 801299c:	2a00      	cmp	r2, #0
 801299e:	f000 8081 	beq.w	8012aa4 <lexan+0x118>
 80129a2:	2a0a      	cmp	r2, #10
 80129a4:	d07e      	beq.n	8012aa4 <lexan+0x118>
 80129a6:	f1bc 0f05 	cmp.w	ip, #5
 80129aa:	d903      	bls.n	80129b4 <lexan+0x28>
 80129ac:	f04f 30ff 	mov.w	r0, #4294967295	@ 0xffffffff
 80129b0:	bdf0      	pop	{r4, r5, r6, r7, pc}
 80129b2:	3001      	adds	r0, #1
 80129b4:	7801      	ldrb	r1, [r0, #0]
 80129b6:	2920      	cmp	r1, #32
 80129b8:	d0fb      	beq.n	80129b2 <lexan+0x26>
 80129ba:	2909      	cmp	r1, #9
 80129bc:	d0f9      	beq.n	80129b2 <lexan+0x26>
 80129be:	290a      	cmp	r1, #10
 80129c0:	d02e      	beq.n	8012a20 <lexan+0x94>
 80129c2:	b369      	cbz	r1, 8012a20 <lexan+0x94>
 80129c4:	ea4f 028c 	mov.w	r2, ip, lsl #2
 80129c8:	f845 302c 	str.w	r3, [r5, ip, lsl #2]
 80129cc:	2926      	cmp	r1, #38	@ 0x26
 80129ce:	d02a      	beq.n	8012a26 <lexan+0x9a>
 80129d0:	293c      	cmp	r1, #60	@ 0x3c
 80129d2:	d035      	beq.n	8012a40 <lexan+0xb4>
 80129d4:	2703      	movs	r7, #3
 80129d6:	50a7      	str	r7, [r4, r2]
 80129d8:	2927      	cmp	r1, #39	@ 0x27
 80129da:	d03d      	beq.n	8012a58 <lexan+0xcc>
 80129dc:	2922      	cmp	r1, #34	@ 0x22
 80129de:	d03b      	beq.n	8012a58 <lexan+0xcc>
 80129e0:	1c5f      	adds	r7, r3, #1
 80129e2:	f80e 1003 	strb.w	r1, [lr, r3]
 80129e6:	3001      	adds	r0, #1
 80129e8:	7802      	ldrb	r2, [r0, #0]
 80129ea:	2a0a      	cmp	r2, #10
 80129ec:	d04a      	beq.n	8012a84 <lexan+0xf8>
 80129ee:	2a00      	cmp	r2, #0
 80129f0:	d048      	beq.n	8012a84 <lexan+0xf8>
 80129f2:	2a09      	cmp	r2, #9
 80129f4:	d046      	beq.n	8012a84 <lexan+0xf8>
 80129f6:	d30e      	bcc.n	8012a16 <lexan+0x8a>
 80129f8:	2a3e      	cmp	r2, #62	@ 0x3e
 80129fa:	d80c      	bhi.n	8012a16 <lexan+0x8a>
 80129fc:	2a20      	cmp	r2, #32
 80129fe:	d30a      	bcc.n	8012a16 <lexan+0x8a>
 8012a00:	f1a2 0120 	sub.w	r1, r2, #32
 8012a04:	b2c9      	uxtb	r1, r1
 8012a06:	2301      	movs	r3, #1
 8012a08:	408b      	lsls	r3, r1
 8012a0a:	492c      	ldr	r1, [pc, #176]	@ (8012abc <lexan+0x130>)
 8012a0c:	420b      	tst	r3, r1
 8012a0e:	d139      	bne.n	8012a84 <lexan+0xf8>
 8012a10:	f013 0f80 	tst.w	r3, #128	@ 0x80
 8012a14:	d14c      	bne.n	8012ab0 <lexan+0x124>
 8012a16:	f80e 2007 	strb.w	r2, [lr, r7]
 8012a1a:	3001      	adds	r0, #1
 8012a1c:	3701      	adds	r7, #1
 8012a1e:	e7e3      	b.n	80129e8 <lexan+0x5c>
 8012a20:	6033      	str	r3, [r6, #0]
 8012a22:	4660      	mov	r0, ip
 8012a24:	e7c4      	b.n	80129b0 <lexan+0x24>
 8012a26:	2700      	movs	r7, #0
 8012a28:	f844 702c 	str.w	r7, [r4, ip, lsl #2]
 8012a2c:	1c5a      	adds	r2, r3, #1
 8012a2e:	f80e 1003 	strb.w	r1, [lr, r3]
 8012a32:	f80e 7002 	strb.w	r7, [lr, r2]
 8012a36:	3302      	adds	r3, #2
 8012a38:	f10c 0c01 	add.w	ip, ip, #1
 8012a3c:	3001      	adds	r0, #1
 8012a3e:	e7ac      	b.n	801299a <lexan+0xe>
 8012a40:	2701      	movs	r7, #1
 8012a42:	50a7      	str	r7, [r4, r2]
 8012a44:	19da      	adds	r2, r3, r7
 8012a46:	f80e 1003 	strb.w	r1, [lr, r3]
 8012a4a:	2100      	movs	r1, #0
 8012a4c:	f80e 1002 	strb.w	r1, [lr, r2]
 8012a50:	3302      	adds	r3, #2
 8012a52:	44bc      	add	ip, r7
 8012a54:	4438      	add	r0, r7
 8012a56:	e7a0      	b.n	801299a <lexan+0xe>
 8012a58:	3001      	adds	r0, #1
 8012a5a:	e002      	b.n	8012a62 <lexan+0xd6>
 8012a5c:	f80e 2003 	strb.w	r2, [lr, r3]
 8012a60:	3301      	adds	r3, #1
 8012a62:	f810 2b01 	ldrb.w	r2, [r0], #1
 8012a66:	4291      	cmp	r1, r2
 8012a68:	d003      	beq.n	8012a72 <lexan+0xe6>
 8012a6a:	2a0a      	cmp	r2, #10
 8012a6c:	d001      	beq.n	8012a72 <lexan+0xe6>
 8012a6e:	2a00      	cmp	r2, #0
 8012a70:	d1f4      	bne.n	8012a5c <lexan+0xd0>
 8012a72:	4291      	cmp	r1, r2
 8012a74:	d119      	bne.n	8012aaa <lexan+0x11e>
 8012a76:	2200      	movs	r2, #0
 8012a78:	f80e 2003 	strb.w	r2, [lr, r3]
 8012a7c:	f10c 0c01 	add.w	ip, ip, #1
 8012a80:	3301      	adds	r3, #1
 8012a82:	e78a      	b.n	801299a <lexan+0xe>
 8012a84:	3a22      	subs	r2, #34	@ 0x22
 8012a86:	b2d2      	uxtb	r2, r2
 8012a88:	2a1c      	cmp	r2, #28
 8012a8a:	d804      	bhi.n	8012a96 <lexan+0x10a>
 8012a8c:	4b0c      	ldr	r3, [pc, #48]	@ (8012ac0 <lexan+0x134>)
 8012a8e:	40d3      	lsrs	r3, r2
 8012a90:	f013 0f01 	tst.w	r3, #1
 8012a94:	d10f      	bne.n	8012ab6 <lexan+0x12a>
 8012a96:	1c7b      	adds	r3, r7, #1
 8012a98:	2200      	movs	r2, #0
 8012a9a:	f80e 2007 	strb.w	r2, [lr, r7]
 8012a9e:	f10c 0c01 	add.w	ip, ip, #1
 8012aa2:	e77a      	b.n	801299a <lexan+0xe>
 8012aa4:	6033      	str	r3, [r6, #0]
 8012aa6:	4660      	mov	r0, ip
 8012aa8:	e782      	b.n	80129b0 <lexan+0x24>
 8012aaa:	f04f 30ff 	mov.w	r0, #4294967295	@ 0xffffffff
 8012aae:	e77f      	b.n	80129b0 <lexan+0x24>
 8012ab0:	f04f 30ff 	mov.w	r0, #4294967295	@ 0xffffffff
 8012ab4:	e77c      	b.n	80129b0 <lexan+0x24>
 8012ab6:	f04f 30ff 	mov.w	r0, #4294967295	@ 0xffffffff
 8012aba:	e779      	b.n	80129b0 <lexan+0x24>
 8012abc:	50000045 	.word	0x50000045
 8012ac0:	14000021 	.word	0x14000021

08012ac4 <formatp>:
 8012ac4:	b508      	push	{r3, lr}
 8012ac6:	4906      	ldr	r1, [pc, #24]	@ (8012ae0 <formatp+0x1c>)
 8012ac8:	f647 2012 	movw	r0, #31250	@ 0x7a12
 8012acc:	f003 fbb4 	bl	8016238 <fl_format>
 8012ad0:	b908      	cbnz	r0, 8012ad6 <formatp+0x12>
 8012ad2:	2000      	movs	r0, #0
 8012ad4:	bd08      	pop	{r3, pc}
 8012ad6:	4803      	ldr	r0, [pc, #12]	@ (8012ae4 <formatp+0x20>)
 8012ad8:	f7ff fb40 	bl	801215c <printf>
 8012adc:	e7f9      	b.n	8012ad2 <formatp+0xe>
 8012ade:	bf00      	nop
 8012ae0:	08019fac 	.word	0x08019fac
 8012ae4:	08019fd4 	.word	0x08019fd4

08012ae8 <ps>:
 8012ae8:	b570      	push	{r4, r5, r6, lr}
 8012aea:	b08c      	sub	sp, #48	@ 0x30
 8012aec:	ac05      	add	r4, sp, #20
 8012aee:	4d1d      	ldr	r5, [pc, #116]	@ (8012b64 <ps+0x7c>)
 8012af0:	cd0f      	ldmia	r5!, {r0, r1, r2, r3}
 8012af2:	c40f      	stmia	r4!, {r0, r1, r2, r3}
 8012af4:	e895 0007 	ldmia.w	r5, {r0, r1, r2}
 8012af8:	e884 0007 	stmia.w	r4, {r0, r1, r2}
 8012afc:	4b1a      	ldr	r3, [pc, #104]	@ (8012b68 <ps+0x80>)
 8012afe:	9302      	str	r3, [sp, #8]
 8012b00:	4b1a      	ldr	r3, [pc, #104]	@ (8012b6c <ps+0x84>)
 8012b02:	9301      	str	r3, [sp, #4]
 8012b04:	4b1a      	ldr	r3, [pc, #104]	@ (8012b70 <ps+0x88>)
 8012b06:	9300      	str	r3, [sp, #0]
 8012b08:	4b1a      	ldr	r3, [pc, #104]	@ (8012b74 <ps+0x8c>)
 8012b0a:	4a1b      	ldr	r2, [pc, #108]	@ (8012b78 <ps+0x90>)
 8012b0c:	491b      	ldr	r1, [pc, #108]	@ (8012b7c <ps+0x94>)
 8012b0e:	481c      	ldr	r0, [pc, #112]	@ (8012b80 <ps+0x98>)
 8012b10:	f7ff fb24 	bl	801215c <printf>
 8012b14:	2400      	movs	r4, #0
 8012b16:	e000      	b.n	8012b1a <ps+0x32>
 8012b18:	3401      	adds	r4, #1
 8012b1a:	2c0b      	cmp	r4, #11
 8012b1c:	dc1f      	bgt.n	8012b5e <ps+0x76>
 8012b1e:	4b19      	ldr	r3, [pc, #100]	@ (8012b84 <ps+0x9c>)
 8012b20:	eb03 1384 	add.w	r3, r3, r4, lsl #6
 8012b24:	7f9b      	ldrb	r3, [r3, #30]
 8012b26:	2b00      	cmp	r3, #0
 8012b28:	d0f6      	beq.n	8012b18 <ps+0x30>
 8012b2a:	01a1      	lsls	r1, r4, #6
 8012b2c:	f101 0220 	add.w	r2, r1, #32
 8012b30:	4814      	ldr	r0, [pc, #80]	@ (8012b84 <ps+0x9c>)
 8012b32:	4402      	add	r2, r0
 8012b34:	eb00 0c01 	add.w	ip, r0, r1
 8012b38:	f8dc 5004 	ldr.w	r5, [ip, #4]
 8012b3c:	ae0c      	add	r6, sp, #48	@ 0x30
 8012b3e:	eb06 0383 	add.w	r3, r6, r3, lsl #2
 8012b42:	f8dc 6008 	ldr.w	r6, [ip, #8]
 8012b46:	9602      	str	r6, [sp, #8]
 8012b48:	9501      	str	r5, [sp, #4]
 8012b4a:	5841      	ldr	r1, [r0, r1]
 8012b4c:	9100      	str	r1, [sp, #0]
 8012b4e:	f853 3c1c 	ldr.w	r3, [r3, #-28]
 8012b52:	3204      	adds	r2, #4
 8012b54:	4621      	mov	r1, r4
 8012b56:	480c      	ldr	r0, [pc, #48]	@ (8012b88 <ps+0xa0>)
 8012b58:	f7ff fb00 	bl	801215c <printf>
 8012b5c:	e7dc      	b.n	8012b18 <ps+0x30>
 8012b5e:	2000      	movs	r0, #0
 8012b60:	b00c      	add	sp, #48	@ 0x30
 8012b62:	bd70      	pop	{r4, r5, r6, pc}
 8012b64:	08019b04 	.word	0x08019b04
 8012b68:	0801a014 	.word	0x0801a014
 8012b6c:	0801a020 	.word	0x0801a020
 8012b70:	0801a02c 	.word	0x0801a02c
 8012b74:	08019fe0 	.word	0x08019fe0
 8012b78:	08019fe8 	.word	0x08019fe8
 8012b7c:	08019ff0 	.word	0x08019ff0
 8012b80:	08019ff4 	.word	0x08019ff4
 8012b84:	2000248c 	.word	0x2000248c
 8012b88:	0801a038 	.word	0x0801a038

08012b8c <echo>:
 8012b8c:	b570      	push	{r4, r5, r6, lr}
 8012b8e:	4605      	mov	r5, r0
 8012b90:	460e      	mov	r6, r1
 8012b92:	2401      	movs	r4, #1
 8012b94:	e005      	b.n	8012ba2 <echo+0x16>
 8012b96:	f856 1024 	ldr.w	r1, [r6, r4, lsl #2]
 8012b9a:	4805      	ldr	r0, [pc, #20]	@ (8012bb0 <echo+0x24>)
 8012b9c:	f7ff fade 	bl	801215c <printf>
 8012ba0:	3401      	adds	r4, #1
 8012ba2:	42ac      	cmp	r4, r5
 8012ba4:	dbf7      	blt.n	8012b96 <echo+0xa>
 8012ba6:	4803      	ldr	r0, [pc, #12]	@ (8012bb4 <echo+0x28>)
 8012ba8:	f7ff fad8 	bl	801215c <printf>
 8012bac:	2000      	movs	r0, #0
 8012bae:	bd70      	pop	{r4, r5, r6, pc}
 8012bb0:	0801a05c 	.word	0x0801a05c
 8012bb4:	0801a31c 	.word	0x0801a31c

08012bb8 <help>:
 8012bb8:	b510      	push	{r4, lr}
 8012bba:	2400      	movs	r4, #0
 8012bbc:	e008      	b.n	8012bd0 <help+0x18>
 8012bbe:	eb04 0244 	add.w	r2, r4, r4, lsl #1
 8012bc2:	00d3      	lsls	r3, r2, #3
 8012bc4:	4905      	ldr	r1, [pc, #20]	@ (8012bdc <help+0x24>)
 8012bc6:	4419      	add	r1, r3
 8012bc8:	4805      	ldr	r0, [pc, #20]	@ (8012be0 <help+0x28>)
 8012bca:	f7ff fac7 	bl	801215c <printf>
 8012bce:	3401      	adds	r4, #1
 8012bd0:	4b04      	ldr	r3, [pc, #16]	@ (8012be4 <help+0x2c>)
 8012bd2:	681b      	ldr	r3, [r3, #0]
 8012bd4:	429c      	cmp	r4, r3
 8012bd6:	d3f2      	bcc.n	8012bbe <help+0x6>
 8012bd8:	2000      	movs	r0, #0
 8012bda:	bd10      	pop	{r4, pc}
 8012bdc:	08019b20 	.word	0x08019b20
 8012be0:	0801a060 	.word	0x0801a060
 8012be4:	20000000 	.word	0x20000000

08012be8 <mem>:
 8012be8:	b508      	push	{r3, lr}
 8012bea:	f7fe f873 	bl	8010cd4 <heap_free>
 8012bee:	4601      	mov	r1, r0
 8012bf0:	4802      	ldr	r0, [pc, #8]	@ (8012bfc <mem+0x14>)
 8012bf2:	f7ff fab3 	bl	801215c <printf>
 8012bf6:	2000      	movs	r0, #0
 8012bf8:	bd08      	pop	{r3, pc}
 8012bfa:	bf00      	nop
 8012bfc:	0801a064 	.word	0x0801a064

08012c00 <killp>:
 8012c00:	b570      	push	{r4, r5, r6, lr}
 8012c02:	2801      	cmp	r0, #1
 8012c04:	dd03      	ble.n	8012c0e <killp+0xe>
 8012c06:	4605      	mov	r5, r0
 8012c08:	460e      	mov	r6, r1
 8012c0a:	2401      	movs	r4, #1
 8012c0c:	e00c      	b.n	8012c28 <killp+0x28>
 8012c0e:	4808      	ldr	r0, [pc, #32]	@ (8012c30 <killp+0x30>)
 8012c10:	f7ff faa4 	bl	801215c <printf>
 8012c14:	f04f 30ff 	mov.w	r0, #4294967295	@ 0xffffffff
 8012c18:	e009      	b.n	8012c2e <killp+0x2e>
 8012c1a:	f856 0024 	ldr.w	r0, [r6, r4, lsl #2]
 8012c1e:	f7ff fb35 	bl	801228c <atoi>
 8012c22:	f005 fc5f 	bl	80184e4 <kill>
 8012c26:	3401      	adds	r4, #1
 8012c28:	42ac      	cmp	r4, r5
 8012c2a:	dbf6      	blt.n	8012c1a <killp+0x1a>
 8012c2c:	2000      	movs	r0, #0
 8012c2e:	bd70      	pop	{r4, r5, r6, pc}
 8012c30:	0801a074 	.word	0x0801a074

08012c34 <update_path>:
 8012c34:	b508      	push	{r3, lr}
 8012c36:	4902      	ldr	r1, [pc, #8]	@ (8012c40 <update_path+0xc>)
 8012c38:	4802      	ldr	r0, [pc, #8]	@ (8012c44 <update_path+0x10>)
 8012c3a:	f7ff fd92 	bl	8012762 <strcpy>
 8012c3e:	bd08      	pop	{r3, pc}
 8012c40:	20000004 	.word	0x20000004
 8012c44:	20000140 	.word	0x20000140

08012c48 <full_path>:
 8012c48:	b538      	push	{r3, r4, r5, lr}
 8012c4a:	4604      	mov	r4, r0
 8012c4c:	b1a8      	cbz	r0, 8012c7a <full_path+0x32>
 8012c4e:	7803      	ldrb	r3, [r0, #0]
 8012c50:	2b2f      	cmp	r3, #47	@ 0x2f
 8012c52:	d013      	beq.n	8012c7c <full_path+0x34>
 8012c54:	2202      	movs	r2, #2
 8012c56:	491b      	ldr	r1, [pc, #108]	@ (8012cc4 <full_path+0x7c>)
 8012c58:	f7ff fd04 	bl	8012664 <strncmp>
 8012c5c:	b900      	cbnz	r0, 8012c60 <full_path+0x18>
 8012c5e:	3402      	adds	r4, #2
 8012c60:	4919      	ldr	r1, [pc, #100]	@ (8012cc8 <full_path+0x80>)
 8012c62:	481a      	ldr	r0, [pc, #104]	@ (8012ccc <full_path+0x84>)
 8012c64:	f7ff fd7d 	bl	8012762 <strcpy>
 8012c68:	2203      	movs	r2, #3
 8012c6a:	4919      	ldr	r1, [pc, #100]	@ (8012cd0 <full_path+0x88>)
 8012c6c:	4620      	mov	r0, r4
 8012c6e:	f7ff fcf9 	bl	8012664 <strncmp>
 8012c72:	b188      	cbz	r0, 8012c98 <full_path+0x50>
 8012c74:	7823      	ldrb	r3, [r4, #0]
 8012c76:	b943      	cbnz	r3, 8012c8a <full_path+0x42>
 8012c78:	4814      	ldr	r0, [pc, #80]	@ (8012ccc <full_path+0x84>)
 8012c7a:	bd38      	pop	{r3, r4, r5, pc}
 8012c7c:	4d13      	ldr	r5, [pc, #76]	@ (8012ccc <full_path+0x84>)
 8012c7e:	4601      	mov	r1, r0
 8012c80:	4628      	mov	r0, r5
 8012c82:	f7ff fd6e 	bl	8012762 <strcpy>
 8012c86:	4628      	mov	r0, r5
 8012c88:	e7f7      	b.n	8012c7a <full_path+0x32>
 8012c8a:	4d10      	ldr	r5, [pc, #64]	@ (8012ccc <full_path+0x84>)
 8012c8c:	4621      	mov	r1, r4
 8012c8e:	4628      	mov	r0, r5
 8012c90:	f7ff fd85 	bl	801279e <strcat>
 8012c94:	4628      	mov	r0, r5
 8012c96:	e7f0      	b.n	8012c7a <full_path+0x32>
 8012c98:	3403      	adds	r4, #3
 8012c9a:	212f      	movs	r1, #47	@ 0x2f
 8012c9c:	480b      	ldr	r0, [pc, #44]	@ (8012ccc <full_path+0x84>)
 8012c9e:	f7ff fdd5 	bl	801284c <strrchr>
 8012ca2:	b108      	cbz	r0, 8012ca8 <full_path+0x60>
 8012ca4:	2200      	movs	r2, #0
 8012ca6:	7002      	strb	r2, [r0, #0]
 8012ca8:	212f      	movs	r1, #47	@ 0x2f
 8012caa:	4808      	ldr	r0, [pc, #32]	@ (8012ccc <full_path+0x84>)
 8012cac:	f7ff fdce 	bl	801284c <strrchr>
 8012cb0:	b108      	cbz	r0, 8012cb6 <full_path+0x6e>
 8012cb2:	2200      	movs	r2, #0
 8012cb4:	7042      	strb	r2, [r0, #1]
 8012cb6:	4d05      	ldr	r5, [pc, #20]	@ (8012ccc <full_path+0x84>)
 8012cb8:	4621      	mov	r1, r4
 8012cba:	4628      	mov	r0, r5
 8012cbc:	f7ff fd6f 	bl	801279e <strcat>
 8012cc0:	4628      	mov	r0, r5
 8012cc2:	e7da      	b.n	8012c7a <full_path+0x32>
 8012cc4:	0801a088 	.word	0x0801a088
 8012cc8:	20000004 	.word	0x20000004
 8012ccc:	20000140 	.word	0x20000140
 8012cd0:	0801a08c 	.word	0x0801a08c

08012cd4 <cd>:
 8012cd4:	b530      	push	{r4, r5, lr}
 8012cd6:	b085      	sub	sp, #20
 8012cd8:	684c      	ldr	r4, [r1, #4]
 8012cda:	492b      	ldr	r1, [pc, #172]	@ (8012d88 <cd+0xb4>)
 8012cdc:	4620      	mov	r0, r4
 8012cde:	f7ff fcad 	bl	801263c <strcmp>
 8012ce2:	b980      	cbnz	r0, 8012d06 <cd+0x32>
 8012ce4:	4c29      	ldr	r4, [pc, #164]	@ (8012d8c <cd+0xb8>)
 8012ce6:	1d25      	adds	r5, r4, #4
 8012ce8:	4929      	ldr	r1, [pc, #164]	@ (8012d90 <cd+0xbc>)
 8012cea:	4628      	mov	r0, r5
 8012cec:	f7ff fd39 	bl	8012762 <strcpy>
 8012cf0:	4628      	mov	r0, r5
 8012cf2:	f7ff fc86 	bl	8012602 <strlen>
 8012cf6:	3801      	subs	r0, #1
 8012cf8:	4404      	add	r4, r0
 8012cfa:	7923      	ldrb	r3, [r4, #4]
 8012cfc:	2b2f      	cmp	r3, #47	@ 0x2f
 8012cfe:	d13e      	bne.n	8012d7e <cd+0xaa>
 8012d00:	2000      	movs	r0, #0
 8012d02:	b005      	add	sp, #20
 8012d04:	bd30      	pop	{r4, r5, pc}
 8012d06:	4923      	ldr	r1, [pc, #140]	@ (8012d94 <cd+0xc0>)
 8012d08:	4620      	mov	r0, r4
 8012d0a:	f7ff fc97 	bl	801263c <strcmp>
 8012d0e:	bb00      	cbnz	r0, 8012d52 <cd+0x7e>
 8012d10:	4921      	ldr	r1, [pc, #132]	@ (8012d98 <cd+0xc4>)
 8012d12:	4822      	ldr	r0, [pc, #136]	@ (8012d9c <cd+0xc8>)
 8012d14:	f7ff fc92 	bl	801263c <strcmp>
 8012d18:	b918      	cbnz	r0, 8012d22 <cd+0x4e>
 8012d1a:	4821      	ldr	r0, [pc, #132]	@ (8012da0 <cd+0xcc>)
 8012d1c:	f7ff fa1e 	bl	801215c <printf>
 8012d20:	e7ee      	b.n	8012d00 <cd+0x2c>
 8012d22:	4c1b      	ldr	r4, [pc, #108]	@ (8012d90 <cd+0xbc>)
 8012d24:	491d      	ldr	r1, [pc, #116]	@ (8012d9c <cd+0xc8>)
 8012d26:	4620      	mov	r0, r4
 8012d28:	f7ff fd1b 	bl	8012762 <strcpy>
 8012d2c:	212f      	movs	r1, #47	@ 0x2f
 8012d2e:	4620      	mov	r0, r4
 8012d30:	f7ff fd8c 	bl	801284c <strrchr>
 8012d34:	4603      	mov	r3, r0
 8012d36:	b150      	cbz	r0, 8012d4e <cd+0x7a>
 8012d38:	2200      	movs	r2, #0
 8012d3a:	701a      	strb	r2, [r3, #0]
 8012d3c:	212f      	movs	r1, #47	@ 0x2f
 8012d3e:	4814      	ldr	r0, [pc, #80]	@ (8012d90 <cd+0xbc>)
 8012d40:	f7ff fd84 	bl	801284c <strrchr>
 8012d44:	2800      	cmp	r0, #0
 8012d46:	d0cd      	beq.n	8012ce4 <cd+0x10>
 8012d48:	2200      	movs	r2, #0
 8012d4a:	7042      	strb	r2, [r0, #1]
 8012d4c:	e7ca      	b.n	8012ce4 <cd+0x10>
 8012d4e:	4b13      	ldr	r3, [pc, #76]	@ (8012d9c <cd+0xc8>)
 8012d50:	e7f2      	b.n	8012d38 <cd+0x64>
 8012d52:	4620      	mov	r0, r4
 8012d54:	f7ff ff78 	bl	8012c48 <full_path>
 8012d58:	a901      	add	r1, sp, #4
 8012d5a:	480d      	ldr	r0, [pc, #52]	@ (8012d90 <cd+0xbc>)
 8012d5c:	f003 f9cc 	bl	80160f8 <fl_opendir>
 8012d60:	b118      	cbz	r0, 8012d6a <cd+0x96>
 8012d62:	a801      	add	r0, sp, #4
 8012d64:	f003 fa5c 	bl	8016220 <fl_closedir>
 8012d68:	e7bc      	b.n	8012ce4 <cd+0x10>
 8012d6a:	4c09      	ldr	r4, [pc, #36]	@ (8012d90 <cd+0xbc>)
 8012d6c:	4621      	mov	r1, r4
 8012d6e:	480d      	ldr	r0, [pc, #52]	@ (8012da4 <cd+0xd0>)
 8012d70:	f7ff f9f4 	bl	801215c <printf>
 8012d74:	4909      	ldr	r1, [pc, #36]	@ (8012d9c <cd+0xc8>)
 8012d76:	4620      	mov	r0, r4
 8012d78:	f7ff fcf3 	bl	8012762 <strcpy>
 8012d7c:	e7c0      	b.n	8012d00 <cd+0x2c>
 8012d7e:	4906      	ldr	r1, [pc, #24]	@ (8012d98 <cd+0xc4>)
 8012d80:	4628      	mov	r0, r5
 8012d82:	f7ff fd0c 	bl	801279e <strcat>
 8012d86:	e7bb      	b.n	8012d00 <cd+0x2c>
 8012d88:	0801a090 	.word	0x0801a090
 8012d8c:	20000000 	.word	0x20000000
 8012d90:	20000140 	.word	0x20000140
 8012d94:	0801a094 	.word	0x0801a094
 8012d98:	0801a098 	.word	0x0801a098
 8012d9c:	20000004 	.word	0x20000004
 8012da0:	0801a09c 	.word	0x0801a09c
 8012da4:	0801a0b0 	.word	0x0801a0b0

08012da8 <ls>:
 8012da8:	b500      	push	{lr}
 8012daa:	b097      	sub	sp, #92	@ 0x5c
 8012dac:	4810      	ldr	r0, [pc, #64]	@ (8012df0 <ls+0x48>)
 8012dae:	f7ff ff4b 	bl	8012c48 <full_path>
 8012db2:	a913      	add	r1, sp, #76	@ 0x4c
 8012db4:	f003 f9a0 	bl	80160f8 <fl_opendir>
 8012db8:	b928      	cbnz	r0, 8012dc6 <ls+0x1e>
 8012dba:	e015      	b.n	8012de8 <ls+0x40>
 8012dbc:	9a12      	ldr	r2, [sp, #72]	@ 0x48
 8012dbe:	4669      	mov	r1, sp
 8012dc0:	480c      	ldr	r0, [pc, #48]	@ (8012df4 <ls+0x4c>)
 8012dc2:	f7ff f9cb 	bl	801215c <printf>
 8012dc6:	4669      	mov	r1, sp
 8012dc8:	a813      	add	r0, sp, #76	@ 0x4c
 8012dca:	f003 f9cd 	bl	8016168 <fl_readdir>
 8012dce:	b940      	cbnz	r0, 8012de2 <ls+0x3a>
 8012dd0:	f89d 3040 	ldrb.w	r3, [sp, #64]	@ 0x40
 8012dd4:	2b00      	cmp	r3, #0
 8012dd6:	d0f1      	beq.n	8012dbc <ls+0x14>
 8012dd8:	4669      	mov	r1, sp
 8012dda:	4807      	ldr	r0, [pc, #28]	@ (8012df8 <ls+0x50>)
 8012ddc:	f7ff f9be 	bl	801215c <printf>
 8012de0:	e7f1      	b.n	8012dc6 <ls+0x1e>
 8012de2:	a813      	add	r0, sp, #76	@ 0x4c
 8012de4:	f003 fa1c 	bl	8016220 <fl_closedir>
 8012de8:	2000      	movs	r0, #0
 8012dea:	b017      	add	sp, #92	@ 0x5c
 8012dec:	f85d fb04 	ldr.w	pc, [sp], #4
 8012df0:	08019fac 	.word	0x08019fac
 8012df4:	0801a0cc 	.word	0x0801a0cc
 8012df8:	0801a0c0 	.word	0x0801a0c0

08012dfc <dump>:
 8012dfc:	b570      	push	{r4, r5, r6, lr}
 8012dfe:	b088      	sub	sp, #32
 8012e00:	6848      	ldr	r0, [r1, #4]
 8012e02:	f7ff ff21 	bl	8012c48 <full_path>
 8012e06:	4604      	mov	r4, r0
 8012e08:	491c      	ldr	r1, [pc, #112]	@ (8012e7c <dump+0x80>)
 8012e0a:	f002 fdb7 	bl	801597c <fl_fopen>
 8012e0e:	b198      	cbz	r0, 8012e38 <dump+0x3c>
 8012e10:	4605      	mov	r5, r0
 8012e12:	2202      	movs	r2, #2
 8012e14:	2100      	movs	r1, #0
 8012e16:	f002 ffbc 	bl	8015d92 <fl_fseek>
 8012e1a:	4628      	mov	r0, r5
 8012e1c:	f003 f824 	bl	8015e68 <fl_ftell>
 8012e20:	4606      	mov	r6, r0
 8012e22:	2200      	movs	r2, #0
 8012e24:	4611      	mov	r1, r2
 8012e26:	4628      	mov	r0, r5
 8012e28:	f002 ffb3 	bl	8015d92 <fl_fseek>
 8012e2c:	4631      	mov	r1, r6
 8012e2e:	4814      	ldr	r0, [pc, #80]	@ (8012e80 <dump+0x84>)
 8012e30:	f7ff f994 	bl	801215c <printf>
 8012e34:	2400      	movs	r4, #0
 8012e36:	e017      	b.n	8012e68 <dump+0x6c>
 8012e38:	4621      	mov	r1, r4
 8012e3a:	4812      	ldr	r0, [pc, #72]	@ (8012e84 <dump+0x88>)
 8012e3c:	f7ff f98e 	bl	801215c <printf>
 8012e40:	f04f 30ff 	mov.w	r0, #4294967295	@ 0xffffffff
 8012e44:	e018      	b.n	8012e78 <dump+0x7c>
 8012e46:	462b      	mov	r3, r5
 8012e48:	2201      	movs	r2, #1
 8012e4a:	2120      	movs	r1, #32
 8012e4c:	4668      	mov	r0, sp
 8012e4e:	f002 fee9 	bl	8015c24 <fl_fread>
 8012e52:	2220      	movs	r2, #32
 8012e54:	4669      	mov	r1, sp
 8012e56:	4620      	mov	r0, r4
 8012e58:	f7ff f994 	bl	8012184 <hexDump2>
 8012e5c:	2220      	movs	r2, #32
 8012e5e:	2100      	movs	r1, #0
 8012e60:	4668      	mov	r0, sp
 8012e62:	f7ff fb98 	bl	8012596 <memset>
 8012e66:	3420      	adds	r4, #32
 8012e68:	42b4      	cmp	r4, r6
 8012e6a:	d3ec      	bcc.n	8012e46 <dump+0x4a>
 8012e6c:	4628      	mov	r0, r5
 8012e6e:	f002 fea1 	bl	8015bb4 <fl_fclose>
 8012e72:	f7ff fedf 	bl	8012c34 <update_path>
 8012e76:	2000      	movs	r0, #0
 8012e78:	b008      	add	sp, #32
 8012e7a:	bd70      	pop	{r4, r5, r6, pc}
 8012e7c:	0801a028 	.word	0x0801a028
 8012e80:	0801a0dc 	.word	0x0801a0dc
 8012e84:	0801a170 	.word	0x0801a170

08012e88 <cat>:
 8012e88:	e92d 41f0 	stmdb	sp!, {r4, r5, r6, r7, r8, lr}
 8012e8c:	2801      	cmp	r0, #1
 8012e8e:	dd5c      	ble.n	8012f4a <cat+0xc2>
 8012e90:	4605      	mov	r5, r0
 8012e92:	460e      	mov	r6, r1
 8012e94:	f100 4380 	add.w	r3, r0, #1073741824	@ 0x40000000
 8012e98:	3b02      	subs	r3, #2
 8012e9a:	492f      	ldr	r1, [pc, #188]	@ (8012f58 <cat+0xd0>)
 8012e9c:	f856 0023 	ldr.w	r0, [r6, r3, lsl #2]
 8012ea0:	f7ff fbcc 	bl	801263c <strcmp>
 8012ea4:	4604      	mov	r4, r0
 8012ea6:	bb40      	cbnz	r0, 8012efa <cat+0x72>
 8012ea8:	f105 4380 	add.w	r3, r5, #1073741824	@ 0x40000000
 8012eac:	3b01      	subs	r3, #1
 8012eae:	f856 0023 	ldr.w	r0, [r6, r3, lsl #2]
 8012eb2:	f7ff fec9 	bl	8012c48 <full_path>
 8012eb6:	4680      	mov	r8, r0
 8012eb8:	2800      	cmp	r0, #0
 8012eba:	d049      	beq.n	8012f50 <cat+0xc8>
 8012ebc:	4927      	ldr	r1, [pc, #156]	@ (8012f5c <cat+0xd4>)
 8012ebe:	f002 fd5d 	bl	801597c <fl_fopen>
 8012ec2:	4607      	mov	r7, r0
 8012ec4:	b170      	cbz	r0, 8012ee4 <cat+0x5c>
 8012ec6:	2401      	movs	r4, #1
 8012ec8:	1eab      	subs	r3, r5, #2
 8012eca:	42a3      	cmp	r3, r4
 8012ecc:	dd11      	ble.n	8012ef2 <cat+0x6a>
 8012ece:	4639      	mov	r1, r7
 8012ed0:	f856 0024 	ldr.w	r0, [r6, r4, lsl #2]
 8012ed4:	f003 f8b4 	bl	8016040 <fl_fputs>
 8012ed8:	4639      	mov	r1, r7
 8012eda:	4821      	ldr	r0, [pc, #132]	@ (8012f60 <cat+0xd8>)
 8012edc:	f003 f8b0 	bl	8016040 <fl_fputs>
 8012ee0:	3401      	adds	r4, #1
 8012ee2:	e7f1      	b.n	8012ec8 <cat+0x40>
 8012ee4:	4641      	mov	r1, r8
 8012ee6:	481f      	ldr	r0, [pc, #124]	@ (8012f64 <cat+0xdc>)
 8012ee8:	f7ff f938 	bl	801215c <printf>
 8012eec:	f7ff fea2 	bl	8012c34 <update_path>
 8012ef0:	e028      	b.n	8012f44 <cat+0xbc>
 8012ef2:	4638      	mov	r0, r7
 8012ef4:	f002 fe5e 	bl	8015bb4 <fl_fclose>
 8012ef8:	e021      	b.n	8012f3e <cat+0xb6>
 8012efa:	f105 4580 	add.w	r5, r5, #1073741824	@ 0x40000000
 8012efe:	3d01      	subs	r5, #1
 8012f00:	f856 0025 	ldr.w	r0, [r6, r5, lsl #2]
 8012f04:	f7ff fea0 	bl	8012c48 <full_path>
 8012f08:	4605      	mov	r5, r0
 8012f0a:	4917      	ldr	r1, [pc, #92]	@ (8012f68 <cat+0xe0>)
 8012f0c:	f002 fd36 	bl	801597c <fl_fopen>
 8012f10:	4604      	mov	r4, r0
 8012f12:	b960      	cbnz	r0, 8012f2e <cat+0xa6>
 8012f14:	4629      	mov	r1, r5
 8012f16:	4815      	ldr	r0, [pc, #84]	@ (8012f6c <cat+0xe4>)
 8012f18:	f7ff f920 	bl	801215c <printf>
 8012f1c:	f04f 34ff 	mov.w	r4, #4294967295	@ 0xffffffff
 8012f20:	e010      	b.n	8012f44 <cat+0xbc>
 8012f22:	4620      	mov	r0, r4
 8012f24:	f002 ff02 	bl	8015d2c <fl_fgetc>
 8012f28:	b2c0      	uxtb	r0, r0
 8012f2a:	f7fd fe8b 	bl	8010c44 <lib_putc>
 8012f2e:	4620      	mov	r0, r4
 8012f30:	f002 ffa5 	bl	8015e7e <fl_feof>
 8012f34:	2800      	cmp	r0, #0
 8012f36:	d0f4      	beq.n	8012f22 <cat+0x9a>
 8012f38:	4620      	mov	r0, r4
 8012f3a:	f002 fe3b 	bl	8015bb4 <fl_fclose>
 8012f3e:	f7ff fe79 	bl	8012c34 <update_path>
 8012f42:	2400      	movs	r4, #0
 8012f44:	4620      	mov	r0, r4
 8012f46:	e8bd 81f0 	ldmia.w	sp!, {r4, r5, r6, r7, r8, pc}
 8012f4a:	f04f 34ff 	mov.w	r4, #4294967295	@ 0xffffffff
 8012f4e:	e7f9      	b.n	8012f44 <cat+0xbc>
 8012f50:	f04f 34ff 	mov.w	r4, #4294967295	@ 0xffffffff
 8012f54:	e7f6      	b.n	8012f44 <cat+0xbc>
 8012f56:	bf00      	nop
 8012f58:	0801a0ec 	.word	0x0801a0ec
 8012f5c:	0801a0f0 	.word	0x0801a0f0
 8012f60:	0801a184 	.word	0x0801a184
 8012f64:	0801a0f4 	.word	0x0801a0f4
 8012f68:	0801a028 	.word	0x0801a028
 8012f6c:	0801a170 	.word	0x0801a170

08012f70 <mkdirp>:
 8012f70:	b510      	push	{r4, lr}
 8012f72:	b084      	sub	sp, #16
 8012f74:	6848      	ldr	r0, [r1, #4]
 8012f76:	f7ff fe67 	bl	8012c48 <full_path>
 8012f7a:	4604      	mov	r4, r0
 8012f7c:	a901      	add	r1, sp, #4
 8012f7e:	f003 f8bb 	bl	80160f8 <fl_opendir>
 8012f82:	b910      	cbnz	r0, 8012f8a <mkdirp+0x1a>
 8012f84:	2000      	movs	r0, #0
 8012f86:	b004      	add	sp, #16
 8012f88:	bd10      	pop	{r4, pc}
 8012f8a:	a801      	add	r0, sp, #4
 8012f8c:	f003 f948 	bl	8016220 <fl_closedir>
 8012f90:	4621      	mov	r1, r4
 8012f92:	4802      	ldr	r0, [pc, #8]	@ (8012f9c <mkdirp+0x2c>)
 8012f94:	f7ff f8e2 	bl	801215c <printf>
 8012f98:	e7f4      	b.n	8012f84 <mkdirp+0x14>
 8012f9a:	bf00      	nop
 8012f9c:	0801a100 	.word	0x0801a100

08012fa0 <rm>:
 8012fa0:	b510      	push	{r4, lr}
 8012fa2:	6848      	ldr	r0, [r1, #4]
 8012fa4:	f7ff fe50 	bl	8012c48 <full_path>
 8012fa8:	4604      	mov	r4, r0
 8012faa:	4908      	ldr	r1, [pc, #32]	@ (8012fcc <rm+0x2c>)
 8012fac:	f002 fce6 	bl	801597c <fl_fopen>
 8012fb0:	b120      	cbz	r0, 8012fbc <rm+0x1c>
 8012fb2:	4620      	mov	r0, r4
 8012fb4:	f003 f855 	bl	8016062 <fl_remove>
 8012fb8:	2000      	movs	r0, #0
 8012fba:	bd10      	pop	{r4, pc}
 8012fbc:	4621      	mov	r1, r4
 8012fbe:	4804      	ldr	r0, [pc, #16]	@ (8012fd0 <rm+0x30>)
 8012fc0:	f7ff f8cc 	bl	801215c <printf>
 8012fc4:	f04f 30ff 	mov.w	r0, #4294967295	@ 0xffffffff
 8012fc8:	e7f7      	b.n	8012fba <rm+0x1a>
 8012fca:	bf00      	nop
 8012fcc:	0801a028 	.word	0x0801a028
 8012fd0:	08019f08 	.word	0x08019f08

08012fd4 <pwd>:
 8012fd4:	b508      	push	{r3, lr}
 8012fd6:	4804      	ldr	r0, [pc, #16]	@ (8012fe8 <pwd+0x14>)
 8012fd8:	f7ff fe36 	bl	8012c48 <full_path>
 8012fdc:	4601      	mov	r1, r0
 8012fde:	4803      	ldr	r0, [pc, #12]	@ (8012fec <pwd+0x18>)
 8012fe0:	f7ff f8bc 	bl	801215c <printf>
 8012fe4:	2000      	movs	r0, #0
 8012fe6:	bd08      	pop	{r3, pc}
 8012fe8:	08019fac 	.word	0x08019fac
 8012fec:	0801a060 	.word	0x0801a060

08012ff0 <touch>:
 8012ff0:	b538      	push	{r3, r4, r5, lr}
 8012ff2:	6848      	ldr	r0, [r1, #4]
 8012ff4:	f7ff fe28 	bl	8012c48 <full_path>
 8012ff8:	4604      	mov	r4, r0
 8012ffa:	490b      	ldr	r1, [pc, #44]	@ (8013028 <touch+0x38>)
 8012ffc:	f002 fcbe 	bl	801597c <fl_fopen>
 8013000:	b938      	cbnz	r0, 8013012 <touch+0x22>
 8013002:	490a      	ldr	r1, [pc, #40]	@ (801302c <touch+0x3c>)
 8013004:	4620      	mov	r0, r4
 8013006:	f002 fcb9 	bl	801597c <fl_fopen>
 801300a:	f002 fdd3 	bl	8015bb4 <fl_fclose>
 801300e:	2000      	movs	r0, #0
 8013010:	bd38      	pop	{r3, r4, r5, pc}
 8013012:	4605      	mov	r5, r0
 8013014:	4621      	mov	r1, r4
 8013016:	4806      	ldr	r0, [pc, #24]	@ (8013030 <touch+0x40>)
 8013018:	f7ff f8a0 	bl	801215c <printf>
 801301c:	4628      	mov	r0, r5
 801301e:	f002 fdc9 	bl	8015bb4 <fl_fclose>
 8013022:	f04f 30ff 	mov.w	r0, #4294967295	@ 0xffffffff
 8013026:	e7f3      	b.n	8013010 <touch+0x20>
 8013028:	0801a028 	.word	0x0801a028
 801302c:	0801a0f0 	.word	0x0801a0f0
 8013030:	0801a110 	.word	0x0801a110

08013034 <run>:
 8013034:	b570      	push	{r4, r5, r6, lr}
 8013036:	b086      	sub	sp, #24
 8013038:	4606      	mov	r6, r0
 801303a:	460d      	mov	r5, r1
 801303c:	6848      	ldr	r0, [r1, #4]
 801303e:	f7ff fe03 	bl	8012c48 <full_path>
 8013042:	4604      	mov	r4, r0
 8013044:	4601      	mov	r1, r0
 8013046:	4815      	ldr	r0, [pc, #84]	@ (801309c <run+0x68>)
 8013048:	f7ff f888 	bl	801215c <printf>
 801304c:	a902      	add	r1, sp, #8
 801304e:	4620      	mov	r0, r4
 8013050:	f7fd fd2c 	bl	8010aac <elf_execve>
 8013054:	2800      	cmp	r0, #0
 8013056:	dd1b      	ble.n	8013090 <run+0x5c>
 8013058:	2300      	movs	r3, #0
 801305a:	9300      	str	r3, [sp, #0]
 801305c:	4623      	mov	r3, r4
 801305e:	2203      	movs	r2, #3
 8013060:	f44f 6100 	mov.w	r1, #2048	@ 0x800
 8013064:	f005 faf6 	bl	8018654 <create>
 8013068:	4b0d      	ldr	r3, [pc, #52]	@ (80130a0 <run+0x6c>)
 801306a:	eb03 1380 	add.w	r3, r3, r0, lsl #6
 801306e:	2201      	movs	r2, #1
 8013070:	f883 2034 	strb.w	r2, [r3, #52]	@ 0x34
 8013074:	9a02      	ldr	r2, [sp, #8]
 8013076:	639a      	str	r2, [r3, #56]	@ 0x38
 8013078:	685b      	ldr	r3, [r3, #4]
 801307a:	3e01      	subs	r6, #1
 801307c:	621e      	str	r6, [r3, #32]
 801307e:	3504      	adds	r5, #4
 8013080:	625d      	str	r5, [r3, #36]	@ 0x24
 8013082:	f005 fad9 	bl	8018638 <ready>
 8013086:	f7ff fdd5 	bl	8012c34 <update_path>
 801308a:	2000      	movs	r0, #0
 801308c:	b006      	add	sp, #24
 801308e:	bd70      	pop	{r4, r5, r6, pc}
 8013090:	4622      	mov	r2, r4
 8013092:	4601      	mov	r1, r0
 8013094:	4803      	ldr	r0, [pc, #12]	@ (80130a4 <run+0x70>)
 8013096:	f7ff f861 	bl	801215c <printf>
 801309a:	e7f4      	b.n	8013086 <run+0x52>
 801309c:	0801a120 	.word	0x0801a120
 80130a0:	2000248c 	.word	0x2000248c
 80130a4:	0801a12c 	.word	0x0801a12c

080130a8 <shell>:
 80130a8:	b5f0      	push	{r4, r5, r6, r7, lr}
 80130aa:	b0b9      	sub	sp, #228	@ 0xe4
 80130ac:	4d5a      	ldr	r5, [pc, #360]	@ (8013218 <shell+0x170>)
 80130ae:	495b      	ldr	r1, [pc, #364]	@ (801321c <shell+0x174>)
 80130b0:	4628      	mov	r0, r5
 80130b2:	f7ff fb56 	bl	8012762 <strcpy>
 80130b6:	4629      	mov	r1, r5
 80130b8:	4859      	ldr	r0, [pc, #356]	@ (8013220 <shell+0x178>)
 80130ba:	f7ff fb52 	bl	8012762 <strcpy>
 80130be:	e036      	b.n	801312e <shell+0x86>
 80130c0:	2000      	movs	r0, #0
 80130c2:	f005 f9dd 	bl	8018480 <sleep>
 80130c6:	f001 fb67 	bl	8014798 <usb_available>
 80130ca:	2800      	cmp	r0, #0
 80130cc:	d0f8      	beq.n	80130c0 <shell+0x18>
 80130ce:	e004      	b.n	80130da <shell+0x32>
 80130d0:	2140      	movs	r1, #64	@ 0x40
 80130d2:	a828      	add	r0, sp, #160	@ 0xa0
 80130d4:	f001 fb88 	bl	80147e8 <readBytes>
 80130d8:	4604      	mov	r4, r0
 80130da:	f001 fb5d 	bl	8014798 <usb_available>
 80130de:	2800      	cmp	r0, #0
 80130e0:	d1f6      	bne.n	80130d0 <shell+0x28>
 80130e2:	220a      	movs	r2, #10
 80130e4:	f104 03e0 	add.w	r3, r4, #224	@ 0xe0
 80130e8:	446b      	add	r3, sp
 80130ea:	f803 2c40 	strb.w	r2, [r3, #-64]
 80130ee:	ab09      	add	r3, sp, #36	@ 0x24
 80130f0:	9301      	str	r3, [sp, #4]
 80130f2:	ab0f      	add	r3, sp, #60	@ 0x3c
 80130f4:	9300      	str	r3, [sp, #0]
 80130f6:	ab15      	add	r3, sp, #84	@ 0x54
 80130f8:	aa16      	add	r2, sp, #88	@ 0x58
 80130fa:	4621      	mov	r1, r4
 80130fc:	a828      	add	r0, sp, #160	@ 0xa0
 80130fe:	f7ff fc45 	bl	801298c <lexan>
 8013102:	4605      	mov	r5, r0
 8013104:	f1b0 3fff 	cmp.w	r0, #4294967295	@ 0xffffffff
 8013108:	d00d      	beq.n	8013126 <shell+0x7e>
 801310a:	b1a0      	cbz	r0, 8013136 <shell+0x8e>
 801310c:	1e43      	subs	r3, r0, #1
 801310e:	aa38      	add	r2, sp, #224	@ 0xe0
 8013110:	eb02 0283 	add.w	r2, r2, r3, lsl #2
 8013114:	f852 2cbc 	ldr.w	r2, [r2, #-188]
 8013118:	b98a      	cbnz	r2, 801313e <shell+0x96>
 801311a:	9a15      	ldr	r2, [sp, #84]	@ 0x54
 801311c:	3a02      	subs	r2, #2
 801311e:	9215      	str	r2, [sp, #84]	@ 0x54
 8013120:	461d      	mov	r5, r3
 8013122:	2601      	movs	r6, #1
 8013124:	e00c      	b.n	8013140 <shell+0x98>
 8013126:	493f      	ldr	r1, [pc, #252]	@ (8013224 <shell+0x17c>)
 8013128:	483f      	ldr	r0, [pc, #252]	@ (8013228 <shell+0x180>)
 801312a:	f7ff f817 	bl	801215c <printf>
 801312e:	483f      	ldr	r0, [pc, #252]	@ (801322c <shell+0x184>)
 8013130:	f7ff f814 	bl	801215c <printf>
 8013134:	e7c7      	b.n	80130c6 <shell+0x1e>
 8013136:	483e      	ldr	r0, [pc, #248]	@ (8013230 <shell+0x188>)
 8013138:	f7ff f810 	bl	801215c <printf>
 801313c:	e7f7      	b.n	801312e <shell+0x86>
 801313e:	2600      	movs	r6, #0
 8013140:	2300      	movs	r3, #0
 8013142:	429d      	cmp	r5, r3
 8013144:	dd08      	ble.n	8013158 <shell+0xb0>
 8013146:	aa38      	add	r2, sp, #224	@ 0xe0
 8013148:	eb02 0283 	add.w	r2, r2, r3, lsl #2
 801314c:	f852 2cbc 	ldr.w	r2, [r2, #-188]
 8013150:	2a03      	cmp	r2, #3
 8013152:	d101      	bne.n	8013158 <shell+0xb0>
 8013154:	3301      	adds	r3, #1
 8013156:	e7f4      	b.n	8013142 <shell+0x9a>
 8013158:	b10d      	cbz	r5, 801315e <shell+0xb6>
 801315a:	429d      	cmp	r5, r3
 801315c:	dd26      	ble.n	80131ac <shell+0x104>
 801315e:	4831      	ldr	r0, [pc, #196]	@ (8013224 <shell+0x17c>)
 8013160:	f7fe fffc 	bl	801215c <printf>
 8013164:	e7e3      	b.n	801312e <shell+0x86>
 8013166:	2300      	movs	r3, #0
 8013168:	b953      	cbnz	r3, 8013180 <shell+0xd8>
 801316a:	780b      	ldrb	r3, [r1, #0]
 801316c:	b943      	cbnz	r3, 8013180 <shell+0xd8>
 801316e:	45e6      	cmp	lr, ip
 8013170:	d31e      	bcc.n	80131b0 <shell+0x108>
 8013172:	a916      	add	r1, sp, #88	@ 0x58
 8013174:	482f      	ldr	r0, [pc, #188]	@ (8013234 <shell+0x18c>)
 8013176:	f7fe fff1 	bl	801215c <printf>
 801317a:	e7d8      	b.n	801312e <shell+0x86>
 801317c:	2301      	movs	r3, #1
 801317e:	e7f3      	b.n	8013168 <shell+0xc0>
 8013180:	3701      	adds	r7, #1
 8013182:	46be      	mov	lr, r7
 8013184:	4b2c      	ldr	r3, [pc, #176]	@ (8013238 <shell+0x190>)
 8013186:	f8d3 c000 	ldr.w	ip, [r3]
 801318a:	4567      	cmp	r7, ip
 801318c:	d2ef      	bcs.n	801316e <shell+0xc6>
 801318e:	eb07 0247 	add.w	r2, r7, r7, lsl #1
 8013192:	4b2a      	ldr	r3, [pc, #168]	@ (801323c <shell+0x194>)
 8013194:	eb03 03c2 	add.w	r3, r3, r2, lsl #3
 8013198:	a916      	add	r1, sp, #88	@ 0x58
 801319a:	781a      	ldrb	r2, [r3, #0]
 801319c:	2a00      	cmp	r2, #0
 801319e:	d0e2      	beq.n	8013166 <shell+0xbe>
 80131a0:	7808      	ldrb	r0, [r1, #0]
 80131a2:	4290      	cmp	r0, r2
 80131a4:	d1ea      	bne.n	801317c <shell+0xd4>
 80131a6:	3301      	adds	r3, #1
 80131a8:	3101      	adds	r1, #1
 80131aa:	e7f6      	b.n	801319a <shell+0xf2>
 80131ac:	2700      	movs	r7, #0
 80131ae:	e7e8      	b.n	8013182 <shell+0xda>
 80131b0:	481f      	ldr	r0, [pc, #124]	@ (8013230 <shell+0x188>)
 80131b2:	f7fe ffd3 	bl	801215c <printf>
 80131b6:	2300      	movs	r3, #0
 80131b8:	e009      	b.n	80131ce <shell+0x126>
 80131ba:	aa38      	add	r2, sp, #224	@ 0xe0
 80131bc:	eb02 0183 	add.w	r1, r2, r3, lsl #2
 80131c0:	f851 2ca4 	ldr.w	r2, [r1, #-164]
 80131c4:	a816      	add	r0, sp, #88	@ 0x58
 80131c6:	4402      	add	r2, r0
 80131c8:	f841 2cd4 	str.w	r2, [r1, #-212]
 80131cc:	3301      	adds	r3, #1
 80131ce:	429d      	cmp	r5, r3
 80131d0:	dcf3      	bgt.n	80131ba <shell+0x112>
 80131d2:	b94e      	cbnz	r6, 80131e8 <shell+0x140>
 80131d4:	eb07 0747 	add.w	r7, r7, r7, lsl #1
 80131d8:	4b19      	ldr	r3, [pc, #100]	@ (8013240 <shell+0x198>)
 80131da:	eb03 03c7 	add.w	r3, r3, r7, lsl #3
 80131de:	6b1b      	ldr	r3, [r3, #48]	@ 0x30
 80131e0:	a903      	add	r1, sp, #12
 80131e2:	4628      	mov	r0, r5
 80131e4:	4798      	blx	r3
 80131e6:	e7a2      	b.n	801312e <shell+0x86>
 80131e8:	4915      	ldr	r1, [pc, #84]	@ (8013240 <shell+0x198>)
 80131ea:	eb07 0047 	add.w	r0, r7, r7, lsl #1
 80131ee:	eb01 00c0 	add.w	r0, r1, r0, lsl #3
 80131f2:	2300      	movs	r3, #0
 80131f4:	9300      	str	r3, [sp, #0]
 80131f6:	9b03      	ldr	r3, [sp, #12]
 80131f8:	2203      	movs	r2, #3
 80131fa:	6ac1      	ldr	r1, [r0, #44]	@ 0x2c
 80131fc:	6b00      	ldr	r0, [r0, #48]	@ 0x30
 80131fe:	f005 fa29 	bl	8018654 <create>
 8013202:	4b10      	ldr	r3, [pc, #64]	@ (8013244 <shell+0x19c>)
 8013204:	eb03 1380 	add.w	r3, r3, r0, lsl #6
 8013208:	685b      	ldr	r3, [r3, #4]
 801320a:	621d      	str	r5, [r3, #32]
 801320c:	aa03      	add	r2, sp, #12
 801320e:	625a      	str	r2, [r3, #36]	@ 0x24
 8013210:	f005 fa12 	bl	8018638 <ready>
 8013214:	e78b      	b.n	801312e <shell+0x86>
 8013216:	bf00      	nop
 8013218:	20000140 	.word	0x20000140
 801321c:	0801a098 	.word	0x0801a098
 8013220:	20000004 	.word	0x20000004
 8013224:	0801a158 	.word	0x0801a158
 8013228:	0801a060 	.word	0x0801a060
 801322c:	0801a150 	.word	0x0801a150
 8013230:	0801a31c 	.word	0x0801a31c
 8013234:	0801a168 	.word	0x0801a168
 8013238:	20000000 	.word	0x20000000
 801323c:	08019b20 	.word	0x08019b20
 8013240:	08019b04 	.word	0x08019b04
 8013244:	2000248c 	.word	0x2000248c

08013248 <usbd_process_reset>:
 8013248:	b538      	push	{r3, r4, r5, lr}
 801324a:	4604      	mov	r4, r0
 801324c:	2302      	movs	r3, #2
 801324e:	f880 3062 	strb.w	r3, [r0, #98]	@ 0x62
 8013252:	2500      	movs	r5, #0
 8013254:	f880 5063 	strb.w	r5, [r0, #99]	@ 0x63
 8013258:	f880 5061 	strb.w	r5, [r0, #97]	@ 0x61
 801325c:	6803      	ldr	r3, [r0, #0]
 801325e:	691b      	ldr	r3, [r3, #16]
 8013260:	f890 2060 	ldrb.w	r2, [r0, #96]	@ 0x60
 8013264:	4629      	mov	r1, r5
 8013266:	4628      	mov	r0, r5
 8013268:	4798      	blx	r3
 801326a:	4b03      	ldr	r3, [pc, #12]	@ (8013278 <usbd_process_reset+0x30>)
 801326c:	6363      	str	r3, [r4, #52]	@ 0x34
 801326e:	6823      	ldr	r3, [r4, #0]
 8013270:	68db      	ldr	r3, [r3, #12]
 8013272:	4628      	mov	r0, r5
 8013274:	4798      	blx	r3
 8013276:	bd38      	pop	{r3, r4, r5, pc}
 8013278:	080135cd 	.word	0x080135cd

0801327c <usbd_set_address>:
 801327c:	b538      	push	{r3, r4, r5, lr}
 801327e:	4604      	mov	r4, r0
 8013280:	460d      	mov	r5, r1
 8013282:	6803      	ldr	r3, [r0, #0]
 8013284:	68db      	ldr	r3, [r3, #12]
 8013286:	7888      	ldrb	r0, [r1, #2]
 8013288:	4798      	blx	r3
 801328a:	886b      	ldrh	r3, [r5, #2]
 801328c:	b11b      	cbz	r3, 8013296 <usbd_set_address+0x1a>
 801328e:	2303      	movs	r3, #3
 8013290:	f884 3062 	strb.w	r3, [r4, #98]	@ 0x62
 8013294:	bd38      	pop	{r3, r4, r5, pc}
 8013296:	2302      	movs	r3, #2
 8013298:	e7fa      	b.n	8013290 <usbd_set_address+0x14>

0801329a <usbd_process_callback>:
 801329a:	6883      	ldr	r3, [r0, #8]
 801329c:	b133      	cbz	r3, 80132ac <usbd_process_callback+0x12>
 801329e:	b510      	push	{r4, lr}
 80132a0:	4604      	mov	r4, r0
 80132a2:	6d41      	ldr	r1, [r0, #84]	@ 0x54
 80132a4:	4798      	blx	r3
 80132a6:	2300      	movs	r3, #0
 80132a8:	60a3      	str	r3, [r4, #8]
 80132aa:	bd10      	pop	{r4, pc}
 80132ac:	4770      	bx	lr

080132ae <usbd_configure>:
 80132ae:	b538      	push	{r3, r4, r5, lr}
 80132b0:	68c3      	ldr	r3, [r0, #12]
 80132b2:	b17b      	cbz	r3, 80132d4 <usbd_configure+0x26>
 80132b4:	4604      	mov	r4, r0
 80132b6:	460d      	mov	r5, r1
 80132b8:	4798      	blx	r3
 80132ba:	2801      	cmp	r0, #1
 80132bc:	d001      	beq.n	80132c2 <usbd_configure+0x14>
 80132be:	2000      	movs	r0, #0
 80132c0:	bd38      	pop	{r3, r4, r5, pc}
 80132c2:	f884 5061 	strb.w	r5, [r4, #97]	@ 0x61
 80132c6:	b11d      	cbz	r5, 80132d0 <usbd_configure+0x22>
 80132c8:	2304      	movs	r3, #4
 80132ca:	f884 3062 	strb.w	r3, [r4, #98]	@ 0x62
 80132ce:	e7f7      	b.n	80132c0 <usbd_configure+0x12>
 80132d0:	2303      	movs	r3, #3
 80132d2:	e7fa      	b.n	80132ca <usbd_configure+0x1c>
 80132d4:	2000      	movs	r0, #0
 80132d6:	e7f3      	b.n	80132c0 <usbd_configure+0x12>

080132d8 <usbd_process_devrq>:
 80132d8:	b538      	push	{r3, r4, r5, lr}
 80132da:	4605      	mov	r5, r0
 80132dc:	460c      	mov	r4, r1
 80132de:	784b      	ldrb	r3, [r1, #1]
 80132e0:	2b09      	cmp	r3, #9
 80132e2:	d83b      	bhi.n	801335c <usbd_process_devrq+0x84>
 80132e4:	e8df f003 	tbb	[pc, r3]
 80132e8:	3a3a3a21 	.word	0x3a3a3a21
 80132ec:	3a0a263a 	.word	0x3a0a263a
 80132f0:	3605      	.short	0x3605
 80132f2:	f890 3061 	ldrb.w	r3, [r0, #97]	@ 0x61
 80132f6:	720b      	strb	r3, [r1, #8]
 80132f8:	2001      	movs	r0, #1
 80132fa:	e030      	b.n	801335e <usbd_process_devrq+0x86>
 80132fc:	884a      	ldrh	r2, [r1, #2]
 80132fe:	f240 33fe 	movw	r3, #1022	@ 0x3fe
 8013302:	429a      	cmp	r2, r3
 8013304:	d008      	beq.n	8013318 <usbd_process_devrq+0x40>
 8013306:	6903      	ldr	r3, [r0, #16]
 8013308:	b353      	cbz	r3, 8013360 <usbd_process_devrq+0x88>
 801330a:	f100 025c 	add.w	r2, r0, #92	@ 0x5c
 801330e:	f100 0158 	add.w	r1, r0, #88	@ 0x58
 8013312:	4620      	mov	r0, r4
 8013314:	4798      	blx	r3
 8013316:	e022      	b.n	801335e <usbd_process_devrq+0x86>
 8013318:	6803      	ldr	r3, [r0, #0]
 801331a:	6b1b      	ldr	r3, [r3, #48]	@ 0x30
 801331c:	f101 0008 	add.w	r0, r1, #8
 8013320:	4798      	blx	r3
 8013322:	f8a5 005c 	strh.w	r0, [r5, #92]	@ 0x5c
 8013326:	2001      	movs	r0, #1
 8013328:	e019      	b.n	801335e <usbd_process_devrq+0x86>
 801332a:	2300      	movs	r3, #0
 801332c:	720b      	strb	r3, [r1, #8]
 801332e:	724b      	strb	r3, [r1, #9]
 8013330:	2001      	movs	r0, #1
 8013332:	e014      	b.n	801335e <usbd_process_devrq+0x86>
 8013334:	6803      	ldr	r3, [r0, #0]
 8013336:	681b      	ldr	r3, [r3, #0]
 8013338:	4798      	blx	r3
 801333a:	f010 0f01 	tst.w	r0, #1
 801333e:	d103      	bne.n	8013348 <usbd_process_devrq+0x70>
 8013340:	4b08      	ldr	r3, [pc, #32]	@ (8013364 <usbd_process_devrq+0x8c>)
 8013342:	60ab      	str	r3, [r5, #8]
 8013344:	2001      	movs	r0, #1
 8013346:	e00a      	b.n	801335e <usbd_process_devrq+0x86>
 8013348:	4621      	mov	r1, r4
 801334a:	4628      	mov	r0, r5
 801334c:	f7ff ff96 	bl	801327c <usbd_set_address>
 8013350:	2001      	movs	r0, #1
 8013352:	e004      	b.n	801335e <usbd_process_devrq+0x86>
 8013354:	7889      	ldrb	r1, [r1, #2]
 8013356:	f7ff ffaa 	bl	80132ae <usbd_configure>
 801335a:	e000      	b.n	801335e <usbd_process_devrq+0x86>
 801335c:	2000      	movs	r0, #0
 801335e:	bd38      	pop	{r3, r4, r5, pc}
 8013360:	2000      	movs	r0, #0
 8013362:	e7fc      	b.n	801335e <usbd_process_devrq+0x86>
 8013364:	0801327d 	.word	0x0801327d

08013368 <usbd_process_intrq>:
 8013368:	784b      	ldrb	r3, [r1, #1]
 801336a:	b91b      	cbnz	r3, 8013374 <usbd_process_intrq+0xc>
 801336c:	720b      	strb	r3, [r1, #8]
 801336e:	724b      	strb	r3, [r1, #9]
 8013370:	2001      	movs	r0, #1
 8013372:	4770      	bx	lr
 8013374:	2000      	movs	r0, #0
 8013376:	4770      	bx	lr

08013378 <usbd_process_eptrq>:
 8013378:	b538      	push	{r3, r4, r5, lr}
 801337a:	460d      	mov	r5, r1
 801337c:	784c      	ldrb	r4, [r1, #1]
 801337e:	2c01      	cmp	r4, #1
 8013380:	d00c      	beq.n	801339c <usbd_process_eptrq+0x24>
 8013382:	2c03      	cmp	r4, #3
 8013384:	d003      	beq.n	801338e <usbd_process_eptrq+0x16>
 8013386:	b17c      	cbz	r4, 80133a8 <usbd_process_eptrq+0x30>
 8013388:	2400      	movs	r4, #0
 801338a:	4620      	mov	r0, r4
 801338c:	bd38      	pop	{r3, r4, r5, pc}
 801338e:	6803      	ldr	r3, [r0, #0]
 8013390:	6a1b      	ldr	r3, [r3, #32]
 8013392:	2101      	movs	r1, #1
 8013394:	7928      	ldrb	r0, [r5, #4]
 8013396:	4798      	blx	r3
 8013398:	2401      	movs	r4, #1
 801339a:	e7f6      	b.n	801338a <usbd_process_eptrq+0x12>
 801339c:	6803      	ldr	r3, [r0, #0]
 801339e:	6a1b      	ldr	r3, [r3, #32]
 80133a0:	2100      	movs	r1, #0
 80133a2:	7928      	ldrb	r0, [r5, #4]
 80133a4:	4798      	blx	r3
 80133a6:	e7f0      	b.n	801338a <usbd_process_eptrq+0x12>
 80133a8:	6803      	ldr	r3, [r0, #0]
 80133aa:	6a5b      	ldr	r3, [r3, #36]	@ 0x24
 80133ac:	7908      	ldrb	r0, [r1, #4]
 80133ae:	4798      	blx	r3
 80133b0:	7228      	strb	r0, [r5, #8]
 80133b2:	2300      	movs	r3, #0
 80133b4:	726b      	strb	r3, [r5, #9]
 80133b6:	2401      	movs	r4, #1
 80133b8:	e7e7      	b.n	801338a <usbd_process_eptrq+0x12>

080133ba <usbd_process_request>:
 80133ba:	b538      	push	{r3, r4, r5, lr}
 80133bc:	4604      	mov	r4, r0
 80133be:	460d      	mov	r5, r1
 80133c0:	6843      	ldr	r3, [r0, #4]
 80133c2:	b11b      	cbz	r3, 80133cc <usbd_process_request+0x12>
 80133c4:	f100 0208 	add.w	r2, r0, #8
 80133c8:	4798      	blx	r3
 80133ca:	b940      	cbnz	r0, 80133de <usbd_process_request+0x24>
 80133cc:	782b      	ldrb	r3, [r5, #0]
 80133ce:	f003 0363 	and.w	r3, r3, #99	@ 0x63
 80133d2:	2b01      	cmp	r3, #1
 80133d4:	d009      	beq.n	80133ea <usbd_process_request+0x30>
 80133d6:	2b02      	cmp	r3, #2
 80133d8:	d00c      	beq.n	80133f4 <usbd_process_request+0x3a>
 80133da:	b10b      	cbz	r3, 80133e0 <usbd_process_request+0x26>
 80133dc:	2000      	movs	r0, #0
 80133de:	bd38      	pop	{r3, r4, r5, pc}
 80133e0:	4629      	mov	r1, r5
 80133e2:	4620      	mov	r0, r4
 80133e4:	f7ff ff78 	bl	80132d8 <usbd_process_devrq>
 80133e8:	e7f9      	b.n	80133de <usbd_process_request+0x24>
 80133ea:	4629      	mov	r1, r5
 80133ec:	4620      	mov	r0, r4
 80133ee:	f7ff ffbb 	bl	8013368 <usbd_process_intrq>
 80133f2:	e7f4      	b.n	80133de <usbd_process_request+0x24>
 80133f4:	4629      	mov	r1, r5
 80133f6:	4620      	mov	r0, r4
 80133f8:	f7ff ffbe 	bl	8013378 <usbd_process_eptrq>
 80133fc:	e7ef      	b.n	80133de <usbd_process_request+0x24>

080133fe <usbd_stall_pid>:
 80133fe:	b538      	push	{r3, r4, r5, lr}
 8013400:	4604      	mov	r4, r0
 8013402:	460d      	mov	r5, r1
 8013404:	6803      	ldr	r3, [r0, #0]
 8013406:	6a1b      	ldr	r3, [r3, #32]
 8013408:	2101      	movs	r1, #1
 801340a:	f005 007f 	and.w	r0, r5, #127	@ 0x7f
 801340e:	4798      	blx	r3
 8013410:	6823      	ldr	r3, [r4, #0]
 8013412:	6a1b      	ldr	r3, [r3, #32]
 8013414:	2101      	movs	r1, #1
 8013416:	f045 0080 	orr.w	r0, r5, #128	@ 0x80
 801341a:	4798      	blx	r3
 801341c:	2300      	movs	r3, #0
 801341e:	f884 3063 	strb.w	r3, [r4, #99]	@ 0x63
 8013422:	bd38      	pop	{r3, r4, r5, pc}

08013424 <usbd_process_eptx>:
 8013424:	b570      	push	{r4, r5, r6, lr}
 8013426:	4604      	mov	r4, r0
 8013428:	f890 3063 	ldrb.w	r3, [r0, #99]	@ 0x63
 801342c:	2b04      	cmp	r3, #4
 801342e:	d031      	beq.n	8013494 <usbd_process_eptx+0x70>
 8013430:	4608      	mov	r0, r1
 8013432:	d826      	bhi.n	8013482 <usbd_process_eptx+0x5e>
 8013434:	3b02      	subs	r3, #2
 8013436:	b2db      	uxtb	r3, r3
 8013438:	2b01      	cmp	r3, #1
 801343a:	d82e      	bhi.n	801349a <usbd_process_eptx+0x76>
 801343c:	f8b4 305c 	ldrh.w	r3, [r4, #92]	@ 0x5c
 8013440:	f894 5060 	ldrb.w	r5, [r4, #96]	@ 0x60
 8013444:	42ab      	cmp	r3, r5
 8013446:	d200      	bcs.n	801344a <usbd_process_eptx+0x26>
 8013448:	461d      	mov	r5, r3
 801344a:	6823      	ldr	r3, [r4, #0]
 801344c:	69db      	ldr	r3, [r3, #28]
 801344e:	b2ae      	uxth	r6, r5
 8013450:	4632      	mov	r2, r6
 8013452:	6da1      	ldr	r1, [r4, #88]	@ 0x58
 8013454:	4798      	blx	r3
 8013456:	6da3      	ldr	r3, [r4, #88]	@ 0x58
 8013458:	442b      	add	r3, r5
 801345a:	65a3      	str	r3, [r4, #88]	@ 0x58
 801345c:	f8b4 205c 	ldrh.w	r2, [r4, #92]	@ 0x5c
 8013460:	1b92      	subs	r2, r2, r6
 8013462:	b292      	uxth	r2, r2
 8013464:	f8a4 205c 	strh.w	r2, [r4, #92]	@ 0x5c
 8013468:	b9ba      	cbnz	r2, 801349a <usbd_process_eptx+0x76>
 801346a:	f894 3063 	ldrb.w	r3, [r4, #99]	@ 0x63
 801346e:	2b02      	cmp	r3, #2
 8013470:	d003      	beq.n	801347a <usbd_process_eptx+0x56>
 8013472:	f894 3060 	ldrb.w	r3, [r4, #96]	@ 0x60
 8013476:	42ab      	cmp	r3, r5
 8013478:	d00f      	beq.n	801349a <usbd_process_eptx+0x76>
 801347a:	2304      	movs	r3, #4
 801347c:	f884 3063 	strb.w	r3, [r4, #99]	@ 0x63
 8013480:	e00b      	b.n	801349a <usbd_process_eptx+0x76>
 8013482:	2b05      	cmp	r3, #5
 8013484:	d109      	bne.n	801349a <usbd_process_eptx+0x76>
 8013486:	2300      	movs	r3, #0
 8013488:	f884 3063 	strb.w	r3, [r4, #99]	@ 0x63
 801348c:	4620      	mov	r0, r4
 801348e:	f7ff ff04 	bl	801329a <usbd_process_callback>
 8013492:	e002      	b.n	801349a <usbd_process_eptx+0x76>
 8013494:	2306      	movs	r3, #6
 8013496:	f880 3063 	strb.w	r3, [r0, #99]	@ 0x63
 801349a:	bd70      	pop	{r4, r5, r6, pc}

0801349c <usbd_process_eprx>:
 801349c:	b570      	push	{r4, r5, r6, lr}
 801349e:	4604      	mov	r4, r0
 80134a0:	460d      	mov	r5, r1
 80134a2:	6d46      	ldr	r6, [r0, #84]	@ 0x54
 80134a4:	f890 3063 	ldrb.w	r3, [r0, #99]	@ 0x63
 80134a8:	2b01      	cmp	r3, #1
 80134aa:	d02c      	beq.n	8013506 <usbd_process_eprx+0x6a>
 80134ac:	2b06      	cmp	r3, #6
 80134ae:	d045      	beq.n	801353c <usbd_process_eprx+0xa0>
 80134b0:	b113      	cbz	r3, 80134b8 <usbd_process_eprx+0x1c>
 80134b2:	f7ff ffa4 	bl	80133fe <usbd_stall_pid>
 80134b6:	e04d      	b.n	8013554 <usbd_process_eprx+0xb8>
 80134b8:	6803      	ldr	r3, [r0, #0]
 80134ba:	699b      	ldr	r3, [r3, #24]
 80134bc:	f8b0 205e 	ldrh.w	r2, [r0, #94]	@ 0x5e
 80134c0:	4631      	mov	r1, r6
 80134c2:	4628      	mov	r0, r5
 80134c4:	4798      	blx	r3
 80134c6:	2808      	cmp	r0, #8
 80134c8:	d113      	bne.n	80134f2 <usbd_process_eprx+0x56>
 80134ca:	f106 0308 	add.w	r3, r6, #8
 80134ce:	65a3      	str	r3, [r4, #88]	@ 0x58
 80134d0:	88f3      	ldrh	r3, [r6, #6]
 80134d2:	f8a4 305c 	strh.w	r3, [r4, #92]	@ 0x5c
 80134d6:	f996 2000 	ldrsb.w	r2, [r6]
 80134da:	2a00      	cmp	r2, #0
 80134dc:	db3b      	blt.n	8013556 <usbd_process_eprx+0xba>
 80134de:	2b00      	cmp	r3, #0
 80134e0:	d039      	beq.n	8013556 <usbd_process_eprx+0xba>
 80134e2:	f8b4 205e 	ldrh.w	r2, [r4, #94]	@ 0x5e
 80134e6:	4293      	cmp	r3, r2
 80134e8:	d808      	bhi.n	80134fc <usbd_process_eprx+0x60>
 80134ea:	2301      	movs	r3, #1
 80134ec:	f884 3063 	strb.w	r3, [r4, #99]	@ 0x63
 80134f0:	e030      	b.n	8013554 <usbd_process_eprx+0xb8>
 80134f2:	4629      	mov	r1, r5
 80134f4:	4620      	mov	r0, r4
 80134f6:	f7ff ff82 	bl	80133fe <usbd_stall_pid>
 80134fa:	e02b      	b.n	8013554 <usbd_process_eprx+0xb8>
 80134fc:	4629      	mov	r1, r5
 80134fe:	4620      	mov	r0, r4
 8013500:	f7ff ff7d 	bl	80133fe <usbd_stall_pid>
 8013504:	e026      	b.n	8013554 <usbd_process_eprx+0xb8>
 8013506:	6803      	ldr	r3, [r0, #0]
 8013508:	699b      	ldr	r3, [r3, #24]
 801350a:	f8b0 205c 	ldrh.w	r2, [r0, #92]	@ 0x5c
 801350e:	6d81      	ldr	r1, [r0, #88]	@ 0x58
 8013510:	4628      	mov	r0, r5
 8013512:	4798      	blx	r3
 8013514:	b282      	uxth	r2, r0
 8013516:	f8b4 305c 	ldrh.w	r3, [r4, #92]	@ 0x5c
 801351a:	4293      	cmp	r3, r2
 801351c:	d309      	bcc.n	8013532 <usbd_process_eprx+0x96>
 801351e:	4293      	cmp	r3, r2
 8013520:	d019      	beq.n	8013556 <usbd_process_eprx+0xba>
 8013522:	1a9b      	subs	r3, r3, r2
 8013524:	f8a4 305c 	strh.w	r3, [r4, #92]	@ 0x5c
 8013528:	6da3      	ldr	r3, [r4, #88]	@ 0x58
 801352a:	fa13 f080 	uxtah	r0, r3, r0
 801352e:	65a0      	str	r0, [r4, #88]	@ 0x58
 8013530:	e010      	b.n	8013554 <usbd_process_eprx+0xb8>
 8013532:	4629      	mov	r1, r5
 8013534:	4620      	mov	r0, r4
 8013536:	f7ff ff62 	bl	80133fe <usbd_stall_pid>
 801353a:	e00b      	b.n	8013554 <usbd_process_eprx+0xb8>
 801353c:	6803      	ldr	r3, [r0, #0]
 801353e:	699b      	ldr	r3, [r3, #24]
 8013540:	2200      	movs	r2, #0
 8013542:	4611      	mov	r1, r2
 8013544:	4628      	mov	r0, r5
 8013546:	4798      	blx	r3
 8013548:	2300      	movs	r3, #0
 801354a:	f884 3063 	strb.w	r3, [r4, #99]	@ 0x63
 801354e:	4620      	mov	r0, r4
 8013550:	f7ff fea3 	bl	801329a <usbd_process_callback>
 8013554:	bd70      	pop	{r4, r5, r6, pc}
 8013556:	f106 0308 	add.w	r3, r6, #8
 801355a:	65a3      	str	r3, [r4, #88]	@ 0x58
 801355c:	f8b4 305e 	ldrh.w	r3, [r4, #94]	@ 0x5e
 8013560:	f8a4 305c 	strh.w	r3, [r4, #92]	@ 0x5c
 8013564:	4631      	mov	r1, r6
 8013566:	4620      	mov	r0, r4
 8013568:	f7ff ff27 	bl	80133ba <usbd_process_request>
 801356c:	2801      	cmp	r0, #1
 801356e:	d006      	beq.n	801357e <usbd_process_eprx+0xe2>
 8013570:	2802      	cmp	r0, #2
 8013572:	d027      	beq.n	80135c4 <usbd_process_eprx+0x128>
 8013574:	4629      	mov	r1, r5
 8013576:	4620      	mov	r0, r4
 8013578:	f7ff ff41 	bl	80133fe <usbd_stall_pid>
 801357c:	e7ea      	b.n	8013554 <usbd_process_eprx+0xb8>
 801357e:	f996 3000 	ldrsb.w	r3, [r6]
 8013582:	2b00      	cmp	r3, #0
 8013584:	db0a      	blt.n	801359c <usbd_process_eprx+0x100>
 8013586:	6823      	ldr	r3, [r4, #0]
 8013588:	69db      	ldr	r3, [r3, #28]
 801358a:	2200      	movs	r2, #0
 801358c:	4611      	mov	r1, r2
 801358e:	f045 0080 	orr.w	r0, r5, #128	@ 0x80
 8013592:	4798      	blx	r3
 8013594:	2305      	movs	r3, #5
 8013596:	f884 3063 	strb.w	r3, [r4, #99]	@ 0x63
 801359a:	e7db      	b.n	8013554 <usbd_process_eprx+0xb8>
 801359c:	f8b4 205c 	ldrh.w	r2, [r4, #92]	@ 0x5c
 80135a0:	88f3      	ldrh	r3, [r6, #6]
 80135a2:	429a      	cmp	r2, r3
 80135a4:	d30a      	bcc.n	80135bc <usbd_process_eprx+0x120>
 80135a6:	f8a4 305c 	strh.w	r3, [r4, #92]	@ 0x5c
 80135aa:	2302      	movs	r3, #2
 80135ac:	f884 3063 	strb.w	r3, [r4, #99]	@ 0x63
 80135b0:	f045 0180 	orr.w	r1, r5, #128	@ 0x80
 80135b4:	4620      	mov	r0, r4
 80135b6:	f7ff ff35 	bl	8013424 <usbd_process_eptx>
 80135ba:	e7cb      	b.n	8013554 <usbd_process_eprx+0xb8>
 80135bc:	2303      	movs	r3, #3
 80135be:	f884 3063 	strb.w	r3, [r4, #99]	@ 0x63
 80135c2:	e7f5      	b.n	80135b0 <usbd_process_eprx+0x114>
 80135c4:	2305      	movs	r3, #5
 80135c6:	f884 3063 	strb.w	r3, [r4, #99]	@ 0x63
 80135ca:	e7c3      	b.n	8013554 <usbd_process_eprx+0xb8>

080135cc <usbd_process_ep0>:
 80135cc:	b508      	push	{r3, lr}
 80135ce:	460b      	mov	r3, r1
 80135d0:	4611      	mov	r1, r2
 80135d2:	2b05      	cmp	r3, #5
 80135d4:	d008      	beq.n	80135e8 <usbd_process_ep0+0x1c>
 80135d6:	2b06      	cmp	r3, #6
 80135d8:	d002      	beq.n	80135e0 <usbd_process_ep0+0x14>
 80135da:	2b04      	cmp	r3, #4
 80135dc:	d007      	beq.n	80135ee <usbd_process_ep0+0x22>
 80135de:	bd08      	pop	{r3, pc}
 80135e0:	2300      	movs	r3, #0
 80135e2:	f880 3063 	strb.w	r3, [r0, #99]	@ 0x63
 80135e6:	6083      	str	r3, [r0, #8]
 80135e8:	f7ff ff58 	bl	801349c <usbd_process_eprx>
 80135ec:	e7f7      	b.n	80135de <usbd_process_ep0+0x12>
 80135ee:	f7ff ff19 	bl	8013424 <usbd_process_eptx>
 80135f2:	e7f4      	b.n	80135de <usbd_process_ep0+0x12>

080135f4 <usbd_process_evt>:
 80135f4:	b570      	push	{r4, r5, r6, lr}
 80135f6:	4604      	mov	r4, r0
 80135f8:	4615      	mov	r5, r2
 80135fa:	460e      	mov	r6, r1
 80135fc:	b161      	cbz	r1, 8013618 <usbd_process_evt+0x24>
 80135fe:	1f0b      	subs	r3, r1, #4
 8013600:	b2db      	uxtb	r3, r3
 8013602:	2b02      	cmp	r3, #2
 8013604:	d80a      	bhi.n	801361c <usbd_process_evt+0x28>
 8013606:	f002 0307 	and.w	r3, r2, #7
 801360a:	330c      	adds	r3, #12
 801360c:	eb00 0383 	add.w	r3, r0, r3, lsl #2
 8013610:	685b      	ldr	r3, [r3, #4]
 8013612:	b11b      	cbz	r3, 801361c <usbd_process_evt+0x28>
 8013614:	4798      	blx	r3
 8013616:	e001      	b.n	801361c <usbd_process_evt+0x28>
 8013618:	f7ff fe16 	bl	8013248 <usbd_process_reset>
 801361c:	1d33      	adds	r3, r6, #4
 801361e:	eb04 0383 	add.w	r3, r4, r3, lsl #2
 8013622:	685b      	ldr	r3, [r3, #4]
 8013624:	b11b      	cbz	r3, 801362e <usbd_process_evt+0x3a>
 8013626:	462a      	mov	r2, r5
 8013628:	4631      	mov	r1, r6
 801362a:	4620      	mov	r0, r4
 801362c:	4798      	blx	r3
 801362e:	bd70      	pop	{r4, r5, r6, pc}

08013630 <usbd_poll>:
 8013630:	b508      	push	{r3, lr}
 8013632:	6803      	ldr	r3, [r0, #0]
 8013634:	6a9b      	ldr	r3, [r3, #40]	@ 0x28
 8013636:	4901      	ldr	r1, [pc, #4]	@ (801363c <usbd_poll+0xc>)
 8013638:	4798      	blx	r3
 801363a:	bd08      	pop	{r3, pc}
 801363c:	080135f5 	.word	0x080135f5

08013640 <usbd_hw_init>:
 8013640:	4a06      	ldr	r2, [pc, #24]	@ (801365c <usbd_hw_init+0x1c>)
 8013642:	6a53      	ldr	r3, [r2, #36]	@ 0x24
 8013644:	f443 232a 	orr.w	r3, r3, #696320	@ 0xaa000
 8013648:	6253      	str	r3, [r2, #36]	@ 0x24
 801364a:	6813      	ldr	r3, [r2, #0]
 801364c:	f023 7370 	bic.w	r3, r3, #62914560	@ 0x3c00000
 8013650:	f043 7320 	orr.w	r3, r3, #41943040	@ 0x2800000
 8013654:	6013      	str	r3, [r2, #0]
 8013656:	4b02      	ldr	r3, [pc, #8]	@ (8013660 <usbd_hw_init+0x20>)
 8013658:	6018      	str	r0, [r3, #0]
 801365a:	4770      	bx	lr
 801365c:	40020000 	.word	0x40020000
 8013660:	200001c0 	.word	0x200001c0

08013664 <Flush_TX>:
 8013664:	f04f 42a0 	mov.w	r2, #1342177280	@ 0x50000000
 8013668:	6913      	ldr	r3, [r2, #16]
 801366a:	f423 63f8 	bic.w	r3, r3, #1984	@ 0x7c0
 801366e:	0180      	lsls	r0, r0, #6
 8013670:	f400 60f8 	and.w	r0, r0, #1984	@ 0x7c0
 8013674:	4303      	orrs	r3, r0
 8013676:	f043 0320 	orr.w	r3, r3, #32
 801367a:	6113      	str	r3, [r2, #16]
 801367c:	f04f 43a0 	mov.w	r3, #1342177280	@ 0x50000000
 8013680:	691b      	ldr	r3, [r3, #16]
 8013682:	f013 0f20 	tst.w	r3, #32
 8013686:	d1f9      	bne.n	801367c <Flush_TX+0x18>
 8013688:	4770      	bx	lr

0801368a <getinfo>:
 801368a:	4b08      	ldr	r3, [pc, #32]	@ (80136ac <getinfo+0x22>)
 801368c:	6b5b      	ldr	r3, [r3, #52]	@ 0x34
 801368e:	f013 0f80 	tst.w	r3, #128	@ 0x80
 8013692:	d006      	beq.n	80136a2 <getinfo+0x18>
 8013694:	4b06      	ldr	r3, [pc, #24]	@ (80136b0 <getinfo+0x26>)
 8013696:	685b      	ldr	r3, [r3, #4]
 8013698:	f013 0f02 	tst.w	r3, #2
 801369c:	d003      	beq.n	80136a6 <getinfo+0x1c>
 801369e:	2009      	movs	r0, #9
 80136a0:	4770      	bx	lr
 80136a2:	2001      	movs	r0, #1
 80136a4:	4770      	bx	lr
 80136a6:	2029      	movs	r0, #41	@ 0x29
 80136a8:	4770      	bx	lr
 80136aa:	bf00      	nop
 80136ac:	40023800 	.word	0x40023800
 80136b0:	50000800 	.word	0x50000800

080136b4 <ep_setstall>:
 80136b4:	f010 0f80 	tst.w	r0, #128	@ 0x80
 80136b8:	d10d      	bne.n	80136d6 <ep_setstall+0x22>
 80136ba:	0140      	lsls	r0, r0, #5
 80136bc:	f100 40a0 	add.w	r0, r0, #1342177280	@ 0x50000000
 80136c0:	f8d0 3b00 	ldr.w	r3, [r0, #2816]	@ 0xb00
 80136c4:	f413 4f00 	tst.w	r3, #32768	@ 0x8000
 80136c8:	d004      	beq.n	80136d4 <ep_setstall+0x20>
 80136ca:	b1c9      	cbz	r1, 8013700 <ep_setstall+0x4c>
 80136cc:	f443 1300 	orr.w	r3, r3, #2097152	@ 0x200000
 80136d0:	f8c0 3b00 	str.w	r3, [r0, #2816]	@ 0xb00
 80136d4:	4770      	bx	lr
 80136d6:	f000 007f 	and.w	r0, r0, #127	@ 0x7f
 80136da:	0140      	lsls	r0, r0, #5
 80136dc:	f100 40a0 	add.w	r0, r0, #1342177280	@ 0x50000000
 80136e0:	f8d0 3900 	ldr.w	r3, [r0, #2304]	@ 0x900
 80136e4:	f413 4f00 	tst.w	r3, #32768	@ 0x8000
 80136e8:	d0f4      	beq.n	80136d4 <ep_setstall+0x20>
 80136ea:	b121      	cbz	r1, 80136f6 <ep_setstall+0x42>
 80136ec:	f443 1300 	orr.w	r3, r3, #2097152	@ 0x200000
 80136f0:	f8c0 3900 	str.w	r3, [r0, #2304]	@ 0x900
 80136f4:	4770      	bx	lr
 80136f6:	f023 53c1 	bic.w	r3, r3, #404750336	@ 0x18200000
 80136fa:	f043 53c0 	orr.w	r3, r3, #402653184	@ 0x18000000
 80136fe:	e7f7      	b.n	80136f0 <ep_setstall+0x3c>
 8013700:	f023 53a1 	bic.w	r3, r3, #337641472	@ 0x14200000
 8013704:	f043 53a0 	orr.w	r3, r3, #335544320	@ 0x14000000
 8013708:	e7e2      	b.n	80136d0 <ep_setstall+0x1c>

0801370a <ep_isstalled>:
 801370a:	f010 0f80 	tst.w	r0, #128	@ 0x80
 801370e:	d107      	bne.n	8013720 <ep_isstalled+0x16>
 8013710:	0140      	lsls	r0, r0, #5
 8013712:	f100 40a0 	add.w	r0, r0, #1342177280	@ 0x50000000
 8013716:	f8d0 0b00 	ldr.w	r0, [r0, #2816]	@ 0xb00
 801371a:	f3c0 5040 	ubfx	r0, r0, #21, #1
 801371e:	4770      	bx	lr
 8013720:	f000 007f 	and.w	r0, r0, #127	@ 0x7f
 8013724:	0140      	lsls	r0, r0, #5
 8013726:	f100 40a0 	add.w	r0, r0, #1342177280	@ 0x50000000
 801372a:	f8d0 0900 	ldr.w	r0, [r0, #2304]	@ 0x900
 801372e:	f3c0 5040 	ubfx	r0, r0, #21, #1
 8013732:	4770      	bx	lr

08013734 <enable>:
 8013734:	2800      	cmp	r0, #0
 8013736:	d039      	beq.n	80137ac <enable+0x78>
 8013738:	4a26      	ldr	r2, [pc, #152]	@ (80137d4 <enable+0xa0>)
 801373a:	6b53      	ldr	r3, [r2, #52]	@ 0x34
 801373c:	f043 0380 	orr.w	r3, r3, #128	@ 0x80
 8013740:	6353      	str	r3, [r2, #52]	@ 0x34
 8013742:	f04f 43a0 	mov.w	r3, #1342177280	@ 0x50000000
 8013746:	691b      	ldr	r3, [r3, #16]
 8013748:	2b00      	cmp	r3, #0
 801374a:	dafa      	bge.n	8013742 <enable+0xe>
 801374c:	f04f 43a0 	mov.w	r3, #1342177280	@ 0x50000000
 8013750:	68da      	ldr	r2, [r3, #12]
 8013752:	f022 4280 	bic.w	r2, r2, #1073741824	@ 0x40000000
 8013756:	f422 5274 	bic.w	r2, r2, #15616	@ 0x3d00
 801375a:	f042 4280 	orr.w	r2, r2, #1073741824	@ 0x40000000
 801375e:	f442 52c0 	orr.w	r2, r2, #6144	@ 0x1800
 8013762:	60da      	str	r2, [r3, #12]
 8013764:	f44f 1200 	mov.w	r2, #2097152	@ 0x200000
 8013768:	639a      	str	r2, [r3, #56]	@ 0x38
 801376a:	2200      	movs	r2, #0
 801376c:	f8c3 2e00 	str.w	r2, [r3, #3584]	@ 0xe00
 8013770:	4919      	ldr	r1, [pc, #100]	@ (80137d8 <enable+0xa4>)
 8013772:	684a      	ldr	r2, [r1, #4]
 8013774:	f042 0202 	orr.w	r2, r2, #2
 8013778:	604a      	str	r2, [r1, #4]
 801377a:	680a      	ldr	r2, [r1, #0]
 801377c:	f022 7240 	bic.w	r2, r2, #50331648	@ 0x3000000
 8013780:	f022 0203 	bic.w	r2, r2, #3
 8013784:	f042 0203 	orr.w	r2, r2, #3
 8013788:	600a      	str	r2, [r1, #0]
 801378a:	2234      	movs	r2, #52	@ 0x34
 801378c:	625a      	str	r2, [r3, #36]	@ 0x24
 801378e:	f502 1280 	add.w	r2, r2, #1048576	@ 0x100000
 8013792:	629a      	str	r2, [r3, #40]	@ 0x28
 8013794:	2201      	movs	r2, #1
 8013796:	610a      	str	r2, [r1, #16]
 8013798:	4a10      	ldr	r2, [pc, #64]	@ (80137dc <enable+0xa8>)
 801379a:	619a      	str	r2, [r3, #24]
 801379c:	f04f 32ff 	mov.w	r2, #4294967295	@ 0xffffffff
 80137a0:	615a      	str	r2, [r3, #20]
 80137a2:	689a      	ldr	r2, [r3, #8]
 80137a4:	f042 0201 	orr.w	r2, r2, #1
 80137a8:	609a      	str	r2, [r3, #8]
 80137aa:	4770      	bx	lr
 80137ac:	4b09      	ldr	r3, [pc, #36]	@ (80137d4 <enable+0xa0>)
 80137ae:	6b5b      	ldr	r3, [r3, #52]	@ 0x34
 80137b0:	f013 0f80 	tst.w	r3, #128	@ 0x80
 80137b4:	d00c      	beq.n	80137d0 <enable+0x9c>
 80137b6:	4b07      	ldr	r3, [pc, #28]	@ (80137d4 <enable+0xa0>)
 80137b8:	695a      	ldr	r2, [r3, #20]
 80137ba:	f042 0280 	orr.w	r2, r2, #128	@ 0x80
 80137be:	615a      	str	r2, [r3, #20]
 80137c0:	695a      	ldr	r2, [r3, #20]
 80137c2:	f022 0280 	bic.w	r2, r2, #128	@ 0x80
 80137c6:	615a      	str	r2, [r3, #20]
 80137c8:	6b5a      	ldr	r2, [r3, #52]	@ 0x34
 80137ca:	f022 0280 	bic.w	r2, r2, #128	@ 0x80
 80137ce:	635a      	str	r2, [r3, #52]	@ 0x34
 80137d0:	4770      	bx	lr
 80137d2:	bf00      	nop
 80137d4:	40023800 	.word	0x40023800
 80137d8:	50000800 	.word	0x50000800
 80137dc:	80043818 	.word	0x80043818

080137e0 <connect>:
 80137e0:	b168      	cbz	r0, 80137fe <connect+0x1e>
 80137e2:	f04f 42a0 	mov.w	r2, #1342177280	@ 0x50000000
 80137e6:	6b93      	ldr	r3, [r2, #56]	@ 0x38
 80137e8:	f443 3380 	orr.w	r3, r3, #65536	@ 0x10000
 80137ec:	6393      	str	r3, [r2, #56]	@ 0x38
 80137ee:	f502 6200 	add.w	r2, r2, #2048	@ 0x800
 80137f2:	6853      	ldr	r3, [r2, #4]
 80137f4:	f023 0302 	bic.w	r3, r3, #2
 80137f8:	6053      	str	r3, [r2, #4]
 80137fa:	2000      	movs	r0, #0
 80137fc:	4770      	bx	lr
 80137fe:	4a06      	ldr	r2, [pc, #24]	@ (8013818 <connect+0x38>)
 8013800:	6853      	ldr	r3, [r2, #4]
 8013802:	f043 0302 	orr.w	r3, r3, #2
 8013806:	6053      	str	r3, [r2, #4]
 8013808:	f04f 42a0 	mov.w	r2, #1342177280	@ 0x50000000
 801380c:	6b93      	ldr	r3, [r2, #56]	@ 0x38
 801380e:	f423 3380 	bic.w	r3, r3, #65536	@ 0x10000
 8013812:	6393      	str	r3, [r2, #56]	@ 0x38
 8013814:	e7f1      	b.n	80137fa <connect+0x1a>
 8013816:	bf00      	nop
 8013818:	50000800 	.word	0x50000800

0801381c <setaddr>:
 801381c:	4a03      	ldr	r2, [pc, #12]	@ (801382c <setaddr+0x10>)
 801381e:	6813      	ldr	r3, [r2, #0]
 8013820:	f423 63fe 	bic.w	r3, r3, #2032	@ 0x7f0
 8013824:	ea43 1300 	orr.w	r3, r3, r0, lsl #4
 8013828:	6013      	str	r3, [r2, #0]
 801382a:	4770      	bx	lr
 801382c:	50000800 	.word	0x50000800

08013830 <set_tx_fifo>:
 8013830:	f04f 43a0 	mov.w	r3, #1342177280	@ 0x50000000
 8013834:	6a9b      	ldr	r3, [r3, #40]	@ 0x28
 8013836:	eb03 4313 	add.w	r3, r3, r3, lsr #16
 801383a:	fa1f fc83 	uxth.w	ip, r3
 801383e:	2200      	movs	r2, #0
 8013840:	e000      	b.n	8013844 <set_tx_fifo+0x14>
 8013842:	3201      	adds	r2, #1
 8013844:	2a02      	cmp	r2, #2
 8013846:	dc0f      	bgt.n	8013868 <set_tx_fifo+0x38>
 8013848:	f102 0340 	add.w	r3, r2, #64	@ 0x40
 801384c:	009b      	lsls	r3, r3, #2
 801384e:	f103 43a0 	add.w	r3, r3, #1342177280	@ 0x50000000
 8013852:	685b      	ldr	r3, [r3, #4]
 8013854:	f413 4f7e 	tst.w	r3, #65024	@ 0xfe00
 8013858:	d1f3      	bne.n	8013842 <set_tx_fifo+0x12>
 801385a:	eb03 4313 	add.w	r3, r3, r3, lsr #16
 801385e:	b29b      	uxth	r3, r3
 8013860:	459c      	cmp	ip, r3
 8013862:	d2ee      	bcs.n	8013842 <set_tx_fifo+0x12>
 8013864:	469c      	mov	ip, r3
 8013866:	e7ec      	b.n	8013842 <set_tx_fifo+0x12>
 8013868:	3103      	adds	r1, #3
 801386a:	088b      	lsrs	r3, r1, #2
 801386c:	293f      	cmp	r1, #63	@ 0x3f
 801386e:	d800      	bhi.n	8013872 <set_tx_fifo+0x42>
 8013870:	2310      	movs	r3, #16
 8013872:	eb03 020c 	add.w	r2, r3, ip
 8013876:	f5b2 7fa0 	cmp.w	r2, #320	@ 0x140
 801387a:	d808      	bhi.n	801388e <set_tx_fifo+0x5e>
 801387c:	ea4c 4303 	orr.w	r3, ip, r3, lsl #16
 8013880:	303f      	adds	r0, #63	@ 0x3f
 8013882:	0080      	lsls	r0, r0, #2
 8013884:	f100 40a0 	add.w	r0, r0, #1342177280	@ 0x50000000
 8013888:	6043      	str	r3, [r0, #4]
 801388a:	2001      	movs	r0, #1
 801388c:	4770      	bx	lr
 801388e:	2000      	movs	r0, #0
 8013890:	4770      	bx	lr

08013892 <ep_config>:
 8013892:	b5f8      	push	{r3, r4, r5, r6, r7, lr}
 8013894:	4615      	mov	r5, r2
 8013896:	4603      	mov	r3, r0
 8013898:	b1a0      	cbz	r0, 80138c4 <ep_config+0x32>
 801389a:	460e      	mov	r6, r1
 801389c:	f010 0f80 	tst.w	r0, #128	@ 0x80
 80138a0:	d139      	bne.n	8013916 <ep_config+0x84>
 80138a2:	0143      	lsls	r3, r0, #5
 80138a4:	f103 43a0 	add.w	r3, r3, #1342177280	@ 0x50000000
 80138a8:	2902      	cmp	r1, #2
 80138aa:	d07d      	beq.n	80139a8 <ep_config+0x116>
 80138ac:	2906      	cmp	r1, #6
 80138ae:	d07b      	beq.n	80139a8 <ep_config+0x116>
 80138b0:	2901      	cmp	r1, #1
 80138b2:	d071      	beq.n	8013998 <ep_config+0x106>
 80138b4:	f042 4514 	orr.w	r5, r2, #2483027968	@ 0x94000000
 80138b8:	f445 2548 	orr.w	r5, r5, #819200	@ 0xc8000
 80138bc:	f8c3 5b00 	str.w	r5, [r3, #2816]	@ 0xb00
 80138c0:	2001      	movs	r0, #1
 80138c2:	e021      	b.n	8013908 <ep_config+0x76>
 80138c4:	2a08      	cmp	r2, #8
 80138c6:	d906      	bls.n	80138d6 <ep_config+0x44>
 80138c8:	2a10      	cmp	r2, #16
 80138ca:	d91e      	bls.n	801390a <ep_config+0x78>
 80138cc:	2a20      	cmp	r2, #32
 80138ce:	d81f      	bhi.n	8013910 <ep_config+0x7e>
 80138d0:	2101      	movs	r1, #1
 80138d2:	2220      	movs	r2, #32
 80138d4:	e001      	b.n	80138da <ep_config+0x48>
 80138d6:	2103      	movs	r1, #3
 80138d8:	2208      	movs	r2, #8
 80138da:	4c37      	ldr	r4, [pc, #220]	@ (80139b8 <ep_config+0x126>)
 80138dc:	69e0      	ldr	r0, [r4, #28]
 80138de:	f040 1001 	orr.w	r0, r0, #65537	@ 0x10001
 80138e2:	61e0      	str	r0, [r4, #28]
 80138e4:	015b      	lsls	r3, r3, #5
 80138e6:	f103 43a0 	add.w	r3, r3, #1342177280	@ 0x50000000
 80138ea:	f041 6000 	orr.w	r0, r1, #134217728	@ 0x8000000
 80138ee:	f8c3 0900 	str.w	r0, [r3, #2304]	@ 0x900
 80138f2:	f042 5200 	orr.w	r2, r2, #536870912	@ 0x20000000
 80138f6:	f442 2200 	orr.w	r2, r2, #524288	@ 0x80000
 80138fa:	f8c3 2b10 	str.w	r2, [r3, #2832]	@ 0xb10
 80138fe:	f041 4104 	orr.w	r1, r1, #2214592512	@ 0x84000000
 8013902:	f8c3 1b00 	str.w	r1, [r3, #2816]	@ 0xb00
 8013906:	2001      	movs	r0, #1
 8013908:	bdf8      	pop	{r3, r4, r5, r6, r7, pc}
 801390a:	2102      	movs	r1, #2
 801390c:	2210      	movs	r2, #16
 801390e:	e7e4      	b.n	80138da <ep_config+0x48>
 8013910:	2100      	movs	r1, #0
 8013912:	2240      	movs	r2, #64	@ 0x40
 8013914:	e7e1      	b.n	80138da <ep_config+0x48>
 8013916:	f000 047f 	and.w	r4, r0, #127	@ 0x7f
 801391a:	0167      	lsls	r7, r4, #5
 801391c:	f107 47a0 	add.w	r7, r7, #1342177280	@ 0x50000000
 8013920:	2901      	cmp	r1, #1
 8013922:	d001      	beq.n	8013928 <ep_config+0x96>
 8013924:	2906      	cmp	r1, #6
 8013926:	d11c      	bne.n	8013962 <ep_config+0xd0>
 8013928:	0069      	lsls	r1, r5, #1
 801392a:	b289      	uxth	r1, r1
 801392c:	4620      	mov	r0, r4
 801392e:	f7ff ff7f 	bl	8013830 <set_tx_fifo>
 8013932:	2800      	cmp	r0, #0
 8013934:	d0e8      	beq.n	8013908 <ep_config+0x76>
 8013936:	4920      	ldr	r1, [pc, #128]	@ (80139b8 <ep_config+0x126>)
 8013938:	69cb      	ldr	r3, [r1, #28]
 801393a:	2201      	movs	r2, #1
 801393c:	40a2      	lsls	r2, r4
 801393e:	4313      	orrs	r3, r2
 8013940:	61cb      	str	r3, [r1, #28]
 8013942:	2e02      	cmp	r6, #2
 8013944:	d01e      	beq.n	8013984 <ep_config+0xf2>
 8013946:	2e06      	cmp	r6, #6
 8013948:	d01c      	beq.n	8013984 <ep_config+0xf2>
 801394a:	2e01      	cmp	r6, #1
 801394c:	d010      	beq.n	8013970 <ep_config+0xde>
 801394e:	ea45 5384 	orr.w	r3, r5, r4, lsl #22
 8013952:	f043 53c0 	orr.w	r3, r3, #402653184	@ 0x18000000
 8013956:	f443 2348 	orr.w	r3, r3, #819200	@ 0xc8000
 801395a:	f8c7 3900 	str.w	r3, [r7, #2304]	@ 0x900
 801395e:	2001      	movs	r0, #1
 8013960:	e7d2      	b.n	8013908 <ep_config+0x76>
 8013962:	4611      	mov	r1, r2
 8013964:	4620      	mov	r0, r4
 8013966:	f7ff ff63 	bl	8013830 <set_tx_fifo>
 801396a:	2800      	cmp	r0, #0
 801396c:	d1e3      	bne.n	8013936 <ep_config+0xa4>
 801396e:	e7cb      	b.n	8013908 <ep_config+0x76>
 8013970:	ea45 5384 	orr.w	r3, r5, r4, lsl #22
 8013974:	f043 4314 	orr.w	r3, r3, #2483027968	@ 0x94000000
 8013978:	f443 2390 	orr.w	r3, r3, #294912	@ 0x48000
 801397c:	f8c7 3900 	str.w	r3, [r7, #2304]	@ 0x900
 8013980:	2001      	movs	r0, #1
 8013982:	e7c1      	b.n	8013908 <ep_config+0x76>
 8013984:	ea45 5384 	orr.w	r3, r5, r4, lsl #22
 8013988:	f043 53c0 	orr.w	r3, r3, #402653184	@ 0x18000000
 801398c:	f443 2308 	orr.w	r3, r3, #557056	@ 0x88000
 8013990:	f8c7 3900 	str.w	r3, [r7, #2304]	@ 0x900
 8013994:	2001      	movs	r0, #1
 8013996:	e7b7      	b.n	8013908 <ep_config+0x76>
 8013998:	f042 4514 	orr.w	r5, r2, #2483027968	@ 0x94000000
 801399c:	f445 2590 	orr.w	r5, r5, #294912	@ 0x48000
 80139a0:	f8c3 5b00 	str.w	r5, [r3, #2816]	@ 0xb00
 80139a4:	2001      	movs	r0, #1
 80139a6:	e7af      	b.n	8013908 <ep_config+0x76>
 80139a8:	f045 4514 	orr.w	r5, r5, #2483027968	@ 0x94000000
 80139ac:	f445 2508 	orr.w	r5, r5, #557056	@ 0x88000
 80139b0:	f8c3 5b00 	str.w	r5, [r3, #2816]	@ 0xb00
 80139b4:	2001      	movs	r0, #1
 80139b6:	e7a7      	b.n	8013908 <ep_config+0x76>
 80139b8:	50000800 	.word	0x50000800

080139bc <ep_deconfig>:
 80139bc:	b5f8      	push	{r3, r4, r5, r6, r7, lr}
 80139be:	f000 057f 	and.w	r5, r0, #127	@ 0x7f
 80139c2:	016c      	lsls	r4, r5, #5
 80139c4:	f104 44a0 	add.w	r4, r4, #1342177280	@ 0x50000000
 80139c8:	f504 6710 	add.w	r7, r4, #2304	@ 0x900
 80139cc:	f504 6630 	add.w	r6, r4, #2816	@ 0xb00
 80139d0:	491e      	ldr	r1, [pc, #120]	@ (8013a4c <ep_deconfig+0x90>)
 80139d2:	69cb      	ldr	r3, [r1, #28]
 80139d4:	f04f 1201 	mov.w	r2, #65537	@ 0x10001
 80139d8:	40aa      	lsls	r2, r5
 80139da:	ea23 0302 	bic.w	r3, r3, r2
 80139de:	61cb      	str	r3, [r1, #28]
 80139e0:	f8d4 3900 	ldr.w	r3, [r4, #2304]	@ 0x900
 80139e4:	f423 4300 	bic.w	r3, r3, #32768	@ 0x8000
 80139e8:	f8c4 3900 	str.w	r3, [r4, #2304]	@ 0x900
 80139ec:	4628      	mov	r0, r5
 80139ee:	f7ff fe39 	bl	8013664 <Flush_TX>
 80139f2:	f8d4 3900 	ldr.w	r3, [r4, #2304]	@ 0x900
 80139f6:	2b00      	cmp	r3, #0
 80139f8:	db18      	blt.n	8013a2c <ep_deconfig+0x70>
 80139fa:	23ff      	movs	r3, #255	@ 0xff
 80139fc:	60bb      	str	r3, [r7, #8]
 80139fe:	b145      	cbz	r5, 8013a12 <ep_deconfig+0x56>
 8013a00:	f105 1201 	add.w	r2, r5, #65537	@ 0x10001
 8013a04:	0252      	lsls	r2, r2, #9
 8013a06:	f105 033f 	add.w	r3, r5, #63	@ 0x3f
 8013a0a:	009b      	lsls	r3, r3, #2
 8013a0c:	f103 43a0 	add.w	r3, r3, #1342177280	@ 0x50000000
 8013a10:	605a      	str	r2, [r3, #4]
 8013a12:	f8d4 3b00 	ldr.w	r3, [r4, #2816]	@ 0xb00
 8013a16:	f423 4300 	bic.w	r3, r3, #32768	@ 0x8000
 8013a1a:	f8c4 3b00 	str.w	r3, [r4, #2816]	@ 0xb00
 8013a1e:	f8d4 3b00 	ldr.w	r3, [r4, #2816]	@ 0xb00
 8013a22:	2b00      	cmp	r3, #0
 8013a24:	db0b      	blt.n	8013a3e <ep_deconfig+0x82>
 8013a26:	23ff      	movs	r3, #255	@ 0xff
 8013a28:	60b3      	str	r3, [r6, #8]
 8013a2a:	bdf8      	pop	{r3, r4, r5, r6, r7, pc}
 8013a2c:	b915      	cbnz	r5, 8013a34 <ep_deconfig+0x78>
 8013a2e:	23ff      	movs	r3, #255	@ 0xff
 8013a30:	60bb      	str	r3, [r7, #8]
 8013a32:	e7ee      	b.n	8013a12 <ep_deconfig+0x56>
 8013a34:	f04f 4380 	mov.w	r3, #1073741824	@ 0x40000000
 8013a38:	f8c4 3900 	str.w	r3, [r4, #2304]	@ 0x900
 8013a3c:	e7dd      	b.n	80139fa <ep_deconfig+0x3e>
 8013a3e:	2d00      	cmp	r5, #0
 8013a40:	d0f1      	beq.n	8013a26 <ep_deconfig+0x6a>
 8013a42:	f04f 4380 	mov.w	r3, #1073741824	@ 0x40000000
 8013a46:	f8c4 3b00 	str.w	r3, [r4, #2816]	@ 0xb00
 8013a4a:	e7ec      	b.n	8013a26 <ep_deconfig+0x6a>
 8013a4c:	50000800 	.word	0x50000800

08013a50 <ep_read>:
 8013a50:	f04f 43a0 	mov.w	r3, #1342177280	@ 0x50000000
 8013a54:	695b      	ldr	r3, [r3, #20]
 8013a56:	f013 0f10 	tst.w	r3, #16
 8013a5a:	d028      	beq.n	8013aae <ep_read+0x5e>
 8013a5c:	f000 007f 	and.w	r0, r0, #127	@ 0x7f
 8013a60:	f04f 43a0 	mov.w	r3, #1342177280	@ 0x50000000
 8013a64:	69db      	ldr	r3, [r3, #28]
 8013a66:	f003 030f 	and.w	r3, r3, #15
 8013a6a:	4283      	cmp	r3, r0
 8013a6c:	d122      	bne.n	8013ab4 <ep_read+0x64>
 8013a6e:	f04f 43a0 	mov.w	r3, #1342177280	@ 0x50000000
 8013a72:	6a18      	ldr	r0, [r3, #32]
 8013a74:	f3c0 100a 	ubfx	r0, r0, #4, #11
 8013a78:	2300      	movs	r3, #0
 8013a7a:	469c      	mov	ip, r3
 8013a7c:	4283      	cmp	r3, r0
 8013a7e:	d21c      	bcs.n	8013aba <ep_read+0x6a>
 8013a80:	b410      	push	{r4}
 8013a82:	e003      	b.n	8013a8c <ep_read+0x3c>
 8013a84:	3301      	adds	r3, #1
 8013a86:	469c      	mov	ip, r3
 8013a88:	4283      	cmp	r3, r0
 8013a8a:	d20a      	bcs.n	8013aa2 <ep_read+0x52>
 8013a8c:	f013 0f03 	tst.w	r3, #3
 8013a90:	d101      	bne.n	8013a96 <ep_read+0x46>
 8013a92:	4c0c      	ldr	r4, [pc, #48]	@ (8013ac4 <ep_read+0x74>)
 8013a94:	6824      	ldr	r4, [r4, #0]
 8013a96:	429a      	cmp	r2, r3
 8013a98:	ddf4      	ble.n	8013a84 <ep_read+0x34>
 8013a9a:	f801 400c 	strb.w	r4, [r1, ip]
 8013a9e:	0a24      	lsrs	r4, r4, #8
 8013aa0:	e7f0      	b.n	8013a84 <ep_read+0x34>
 8013aa2:	4290      	cmp	r0, r2
 8013aa4:	bf28      	it	cs
 8013aa6:	4610      	movcs	r0, r2
 8013aa8:	f85d 4b04 	ldr.w	r4, [sp], #4
 8013aac:	4770      	bx	lr
 8013aae:	f04f 30ff 	mov.w	r0, #4294967295	@ 0xffffffff
 8013ab2:	4770      	bx	lr
 8013ab4:	f04f 30ff 	mov.w	r0, #4294967295	@ 0xffffffff
 8013ab8:	4770      	bx	lr
 8013aba:	4290      	cmp	r0, r2
 8013abc:	bf28      	it	cs
 8013abe:	4610      	movcs	r0, r2
 8013ac0:	4770      	bx	lr
 8013ac2:	bf00      	nop
 8013ac4:	50001000 	.word	0x50001000

08013ac8 <ep_write>:
 8013ac8:	b570      	push	{r4, r5, r6, lr}
 8013aca:	f000 037f 	and.w	r3, r0, #127	@ 0x7f
 8013ace:	ea4f 1c43 	mov.w	ip, r3, lsl #5
 8013ad2:	f10c 4ca0 	add.w	ip, ip, #1342177280	@ 0x50000000
 8013ad6:	f50c 6510 	add.w	r5, ip, #2304	@ 0x900
 8013ada:	1cd6      	adds	r6, r2, #3
 8013adc:	69ac      	ldr	r4, [r5, #24]
 8013ade:	ebb4 0fa6 	cmp.w	r4, r6, asr #2
 8013ae2:	d332      	bcc.n	8013b4a <ep_write+0x82>
 8013ae4:	ea4f 3e03 	mov.w	lr, r3, lsl #12
 8013ae8:	f10e 4ea0 	add.w	lr, lr, #1342177280	@ 0x50000000
 8013aec:	f50e 5e80 	add.w	lr, lr, #4096	@ 0x1000
 8013af0:	4610      	mov	r0, r2
 8013af2:	b11b      	cbz	r3, 8013afc <ep_write+0x34>
 8013af4:	f8dc 3900 	ldr.w	r3, [ip, #2304]	@ 0x900
 8013af8:	2b00      	cmp	r3, #0
 8013afa:	db29      	blt.n	8013b50 <ep_write+0x88>
 8013afc:	2400      	movs	r4, #0
 8013afe:	612c      	str	r4, [r5, #16]
 8013b00:	f502 2200 	add.w	r2, r2, #524288	@ 0x80000
 8013b04:	612a      	str	r2, [r5, #16]
 8013b06:	f8dc 3900 	ldr.w	r3, [ip, #2304]	@ 0x900
 8013b0a:	f023 4304 	bic.w	r3, r3, #2214592512	@ 0x84000000
 8013b0e:	f423 1300 	bic.w	r3, r3, #2097152	@ 0x200000
 8013b12:	f043 4304 	orr.w	r3, r3, #2214592512	@ 0x84000000
 8013b16:	f8cc 3900 	str.w	r3, [ip, #2304]	@ 0x900
 8013b1a:	4623      	mov	r3, r4
 8013b1c:	e003      	b.n	8013b26 <ep_write+0x5e>
 8013b1e:	f8ce 4000 	str.w	r4, [lr]
 8013b22:	2400      	movs	r4, #0
 8013b24:	3301      	adds	r3, #1
 8013b26:	4298      	cmp	r0, r3
 8013b28:	dd11      	ble.n	8013b4e <ep_write+0x86>
 8013b2a:	5cca      	ldrb	r2, [r1, r3]
 8013b2c:	ea4f 0cc3 	mov.w	ip, r3, lsl #3
 8013b30:	f00c 0c18 	and.w	ip, ip, #24
 8013b34:	fa02 f20c 	lsl.w	r2, r2, ip
 8013b38:	4314      	orrs	r4, r2
 8013b3a:	f003 0203 	and.w	r2, r3, #3
 8013b3e:	2a03      	cmp	r2, #3
 8013b40:	d0ed      	beq.n	8013b1e <ep_write+0x56>
 8013b42:	1c5a      	adds	r2, r3, #1
 8013b44:	4290      	cmp	r0, r2
 8013b46:	d1ed      	bne.n	8013b24 <ep_write+0x5c>
 8013b48:	e7e9      	b.n	8013b1e <ep_write+0x56>
 8013b4a:	f04f 30ff 	mov.w	r0, #4294967295	@ 0xffffffff
 8013b4e:	bd70      	pop	{r4, r5, r6, pc}
 8013b50:	f04f 30ff 	mov.w	r0, #4294967295	@ 0xffffffff
 8013b54:	e7fb      	b.n	8013b4e <ep_write+0x86>

08013b56 <get_frame>:
 8013b56:	4b02      	ldr	r3, [pc, #8]	@ (8013b60 <get_frame+0xa>)
 8013b58:	6898      	ldr	r0, [r3, #8]
 8013b5a:	f3c0 200d 	ubfx	r0, r0, #8, #14
 8013b5e:	4770      	bx	lr
 8013b60:	50000800 	.word	0x50000800

08013b64 <evt_poll>:
 8013b64:	b5f8      	push	{r3, r4, r5, r6, r7, lr}
 8013b66:	4607      	mov	r7, r0
 8013b68:	460e      	mov	r6, r1
 8013b6a:	2500      	movs	r5, #0
 8013b6c:	f04f 43a0 	mov.w	r3, #1342177280	@ 0x50000000
 8013b70:	695b      	ldr	r3, [r3, #20]
 8013b72:	f413 5480 	ands.w	r4, r3, #4096	@ 0x1000
 8013b76:	d11c      	bne.n	8013bb2 <evt_poll+0x4e>
 8013b78:	f413 5f00 	tst.w	r3, #8192	@ 0x2000
 8013b7c:	d134      	bne.n	8013be8 <evt_poll+0x84>
 8013b7e:	f413 2f80 	tst.w	r3, #262144	@ 0x40000
 8013b82:	d137      	bne.n	8013bf4 <evt_poll+0x90>
 8013b84:	f013 0f10 	tst.w	r3, #16
 8013b88:	d063      	beq.n	8013c52 <evt_poll+0xee>
 8013b8a:	f04f 43a0 	mov.w	r3, #1342177280	@ 0x50000000
 8013b8e:	69dc      	ldr	r4, [r3, #28]
 8013b90:	f004 050f 	and.w	r5, r4, #15
 8013b94:	f3c4 4443 	ubfx	r4, r4, #17, #4
 8013b98:	2c04      	cmp	r4, #4
 8013b9a:	d83e      	bhi.n	8013c1a <evt_poll+0xb6>
 8013b9c:	2c03      	cmp	r4, #3
 8013b9e:	d24b      	bcs.n	8013c38 <evt_poll+0xd4>
 8013ba0:	2c02      	cmp	r4, #2
 8013ba2:	d152      	bne.n	8013c4a <evt_poll+0xe6>
 8013ba4:	2405      	movs	r4, #5
 8013ba6:	b2ea      	uxtb	r2, r5
 8013ba8:	f004 010f 	and.w	r1, r4, #15
 8013bac:	4638      	mov	r0, r7
 8013bae:	47b0      	blx	r6
 8013bb0:	bdf8      	pop	{r3, r4, r5, r6, r7, pc}
 8013bb2:	f04f 43a0 	mov.w	r3, #1342177280	@ 0x50000000
 8013bb6:	f44f 5280 	mov.w	r2, #4096	@ 0x1000
 8013bba:	615a      	str	r2, [r3, #20]
 8013bbc:	2400      	movs	r4, #0
 8013bbe:	e004      	b.n	8013bca <evt_poll+0x66>
 8013bc0:	4620      	mov	r0, r4
 8013bc2:	f7ff fefb 	bl	80139bc <ep_deconfig>
 8013bc6:	3401      	adds	r4, #1
 8013bc8:	b2e4      	uxtb	r4, r4
 8013bca:	2c03      	cmp	r4, #3
 8013bcc:	d9f8      	bls.n	8013bc0 <evt_poll+0x5c>
 8013bce:	f04f 42a0 	mov.w	r2, #1342177280	@ 0x50000000
 8013bd2:	6913      	ldr	r3, [r2, #16]
 8013bd4:	f043 0310 	orr.w	r3, r3, #16
 8013bd8:	6113      	str	r3, [r2, #16]
 8013bda:	f04f 43a0 	mov.w	r3, #1342177280	@ 0x50000000
 8013bde:	691b      	ldr	r3, [r3, #16]
 8013be0:	f013 0f10 	tst.w	r3, #16
 8013be4:	d1f9      	bne.n	8013bda <evt_poll+0x76>
 8013be6:	e7c1      	b.n	8013b6c <evt_poll+0x8>
 8013be8:	f04f 43a0 	mov.w	r3, #1342177280	@ 0x50000000
 8013bec:	f44f 5200 	mov.w	r2, #8192	@ 0x2000
 8013bf0:	615a      	str	r2, [r3, #20]
 8013bf2:	e7d8      	b.n	8013ba6 <evt_poll+0x42>
 8013bf4:	016b      	lsls	r3, r5, #5
 8013bf6:	f103 43a0 	add.w	r3, r3, #1342177280	@ 0x50000000
 8013bfa:	f503 6310 	add.w	r3, r3, #2304	@ 0x900
 8013bfe:	2d03      	cmp	r5, #3
 8013c00:	d8d6      	bhi.n	8013bb0 <evt_poll+0x4c>
 8013c02:	689a      	ldr	r2, [r3, #8]
 8013c04:	f012 0f01 	tst.w	r2, #1
 8013c08:	d101      	bne.n	8013c0e <evt_poll+0xaa>
 8013c0a:	3501      	adds	r5, #1
 8013c0c:	e7f2      	b.n	8013bf4 <evt_poll+0x90>
 8013c0e:	2201      	movs	r2, #1
 8013c10:	609a      	str	r2, [r3, #8]
 8013c12:	f045 0580 	orr.w	r5, r5, #128	@ 0x80
 8013c16:	2404      	movs	r4, #4
 8013c18:	e7c5      	b.n	8013ba6 <evt_poll+0x42>
 8013c1a:	2c06      	cmp	r4, #6
 8013c1c:	d115      	bne.n	8013c4a <evt_poll+0xe6>
 8013c1e:	016b      	lsls	r3, r5, #5
 8013c20:	f103 43a0 	add.w	r3, r3, #1342177280	@ 0x50000000
 8013c24:	f8d3 2910 	ldr.w	r2, [r3, #2320]	@ 0x910
 8013c28:	4b18      	ldr	r3, [pc, #96]	@ (8013c8c <evt_poll+0x128>)
 8013c2a:	4013      	ands	r3, r2
 8013c2c:	2b00      	cmp	r3, #0
 8013c2e:	d0ba      	beq.n	8013ba6 <evt_poll+0x42>
 8013c30:	b2e8      	uxtb	r0, r5
 8013c32:	f7ff fd17 	bl	8013664 <Flush_TX>
 8013c36:	e7b6      	b.n	8013ba6 <evt_poll+0x42>
 8013c38:	016b      	lsls	r3, r5, #5
 8013c3a:	f103 43a0 	add.w	r3, r3, #1342177280	@ 0x50000000
 8013c3e:	f8d3 2b00 	ldr.w	r2, [r3, #2816]	@ 0xb00
 8013c42:	f042 4204 	orr.w	r2, r2, #2214592512	@ 0x84000000
 8013c46:	f8c3 2b00 	str.w	r2, [r3, #2816]	@ 0xb00
 8013c4a:	f04f 43a0 	mov.w	r3, #1342177280	@ 0x50000000
 8013c4e:	6a1b      	ldr	r3, [r3, #32]
 8013c50:	e78c      	b.n	8013b6c <evt_poll+0x8>
 8013c52:	f013 0f08 	tst.w	r3, #8
 8013c56:	d005      	beq.n	8013c64 <evt_poll+0x100>
 8013c58:	f04f 43a0 	mov.w	r3, #1342177280	@ 0x50000000
 8013c5c:	2208      	movs	r2, #8
 8013c5e:	615a      	str	r2, [r3, #20]
 8013c60:	2401      	movs	r4, #1
 8013c62:	e7a0      	b.n	8013ba6 <evt_poll+0x42>
 8013c64:	f413 6f00 	tst.w	r3, #2048	@ 0x800
 8013c68:	d006      	beq.n	8013c78 <evt_poll+0x114>
 8013c6a:	f04f 43a0 	mov.w	r3, #1342177280	@ 0x50000000
 8013c6e:	f44f 6200 	mov.w	r2, #2048	@ 0x800
 8013c72:	615a      	str	r2, [r3, #20]
 8013c74:	2402      	movs	r4, #2
 8013c76:	e796      	b.n	8013ba6 <evt_poll+0x42>
 8013c78:	2b00      	cmp	r3, #0
 8013c7a:	da99      	bge.n	8013bb0 <evt_poll+0x4c>
 8013c7c:	f04f 43a0 	mov.w	r3, #1342177280	@ 0x50000000
 8013c80:	f04f 4200 	mov.w	r2, #2147483648	@ 0x80000000
 8013c84:	615a      	str	r2, [r3, #20]
 8013c86:	2403      	movs	r4, #3
 8013c88:	e78d      	b.n	8013ba6 <evt_poll+0x42>
 8013c8a:	bf00      	nop
 8013c8c:	1ff80000 	.word	0x1ff80000

08013c90 <fnv1a32_turn>:
 8013c90:	2300      	movs	r3, #0
 8013c92:	e006      	b.n	8013ca2 <fnv1a32_turn+0x12>
 8013c94:	b2ca      	uxtb	r2, r1
 8013c96:	4050      	eors	r0, r2
 8013c98:	4a03      	ldr	r2, [pc, #12]	@ (8013ca8 <fnv1a32_turn+0x18>)
 8013c9a:	fb02 f000 	mul.w	r0, r2, r0
 8013c9e:	0a09      	lsrs	r1, r1, #8
 8013ca0:	3301      	adds	r3, #1
 8013ca2:	2b03      	cmp	r3, #3
 8013ca4:	ddf6      	ble.n	8013c94 <fnv1a32_turn+0x4>
 8013ca6:	4770      	bx	lr
 8013ca8:	01000193 	.word	0x01000193

08013cac <get_serialno_desc>:
 8013cac:	b570      	push	{r4, r5, r6, lr}
 8013cae:	4605      	mov	r5, r0
 8013cb0:	1c84      	adds	r4, r0, #2
 8013cb2:	4e13      	ldr	r6, [pc, #76]	@ (8013d00 <get_serialno_desc+0x54>)
 8013cb4:	f8d6 1a10 	ldr.w	r1, [r6, #2576]	@ 0xa10
 8013cb8:	4812      	ldr	r0, [pc, #72]	@ (8013d04 <get_serialno_desc+0x58>)
 8013cba:	f7ff ffe9 	bl	8013c90 <fnv1a32_turn>
 8013cbe:	f8d6 1a14 	ldr.w	r1, [r6, #2580]	@ 0xa14
 8013cc2:	f7ff ffe5 	bl	8013c90 <fnv1a32_turn>
 8013cc6:	f8d6 1a18 	ldr.w	r1, [r6, #2584]	@ 0xa18
 8013cca:	f7ff ffe1 	bl	8013c90 <fnv1a32_turn>
 8013cce:	221c      	movs	r2, #28
 8013cd0:	e006      	b.n	8013ce0 <get_serialno_desc+0x34>
 8013cd2:	2137      	movs	r1, #55	@ 0x37
 8013cd4:	4419      	add	r1, r3
 8013cd6:	4623      	mov	r3, r4
 8013cd8:	f823 1b02 	strh.w	r1, [r3], #2
 8013cdc:	3a04      	subs	r2, #4
 8013cde:	461c      	mov	r4, r3
 8013ce0:	2a00      	cmp	r2, #0
 8013ce2:	db07      	blt.n	8013cf4 <get_serialno_desc+0x48>
 8013ce4:	fa20 f302 	lsr.w	r3, r0, r2
 8013ce8:	f003 030f 	and.w	r3, r3, #15
 8013cec:	2b09      	cmp	r3, #9
 8013cee:	d8f0      	bhi.n	8013cd2 <get_serialno_desc+0x26>
 8013cf0:	2130      	movs	r1, #48	@ 0x30
 8013cf2:	e7ef      	b.n	8013cd4 <get_serialno_desc+0x28>
 8013cf4:	2303      	movs	r3, #3
 8013cf6:	706b      	strb	r3, [r5, #1]
 8013cf8:	2012      	movs	r0, #18
 8013cfa:	7028      	strb	r0, [r5, #0]
 8013cfc:	bd70      	pop	{r4, r5, r6, pc}
 8013cfe:	bf00      	nop
 8013d00:	1fff7000 	.word	0x1fff7000
 8013d04:	811c9dc5 	.word	0x811c9dc5

08013d08 <msc_setconf>:
 8013d08:	b538      	push	{r3, r4, r5, lr}
 8013d0a:	4604      	mov	r4, r0
 8013d0c:	b121      	cbz	r1, 8013d18 <msc_setconf+0x10>
 8013d0e:	460d      	mov	r5, r1
 8013d10:	2901      	cmp	r1, #1
 8013d12:	d00e      	beq.n	8013d32 <msc_setconf+0x2a>
 8013d14:	2000      	movs	r0, #0
 8013d16:	bd38      	pop	{r3, r4, r5, pc}
 8013d18:	6803      	ldr	r3, [r0, #0]
 8013d1a:	695b      	ldr	r3, [r3, #20]
 8013d1c:	2001      	movs	r0, #1
 8013d1e:	4798      	blx	r3
 8013d20:	6823      	ldr	r3, [r4, #0]
 8013d22:	695b      	ldr	r3, [r3, #20]
 8013d24:	2082      	movs	r0, #130	@ 0x82
 8013d26:	4798      	blx	r3
 8013d28:	2300      	movs	r3, #0
 8013d2a:	63a3      	str	r3, [r4, #56]	@ 0x38
 8013d2c:	63e3      	str	r3, [r4, #60]	@ 0x3c
 8013d2e:	2001      	movs	r0, #1
 8013d30:	e7f1      	b.n	8013d16 <msc_setconf+0xe>
 8013d32:	6803      	ldr	r3, [r0, #0]
 8013d34:	691b      	ldr	r3, [r3, #16]
 8013d36:	2240      	movs	r2, #64	@ 0x40
 8013d38:	2102      	movs	r1, #2
 8013d3a:	2001      	movs	r0, #1
 8013d3c:	4798      	blx	r3
 8013d3e:	6823      	ldr	r3, [r4, #0]
 8013d40:	691b      	ldr	r3, [r3, #16]
 8013d42:	2240      	movs	r2, #64	@ 0x40
 8013d44:	2106      	movs	r1, #6
 8013d46:	2082      	movs	r0, #130	@ 0x82
 8013d48:	4798      	blx	r3
 8013d4a:	4b02      	ldr	r3, [pc, #8]	@ (8013d54 <msc_setconf+0x4c>)
 8013d4c:	63a3      	str	r3, [r4, #56]	@ 0x38
 8013d4e:	63e3      	str	r3, [r4, #60]	@ 0x3c
 8013d50:	4628      	mov	r0, r5
 8013d52:	e7e0      	b.n	8013d16 <msc_setconf+0xe>
 8013d54:	0801455d 	.word	0x0801455d

08013d58 <msc_getdesc>:
 8013d58:	b508      	push	{r3, lr}
 8013d5a:	8843      	ldrh	r3, [r0, #2]
 8013d5c:	0a18      	lsrs	r0, r3, #8
 8013d5e:	2802      	cmp	r0, #2
 8013d60:	d01b      	beq.n	8013d9a <msc_getdesc+0x42>
 8013d62:	b2db      	uxtb	r3, r3
 8013d64:	2803      	cmp	r0, #3
 8013d66:	d006      	beq.n	8013d76 <msc_getdesc+0x1e>
 8013d68:	2801      	cmp	r0, #1
 8013d6a:	d010      	beq.n	8013d8e <msc_getdesc+0x36>
 8013d6c:	480c      	ldr	r0, [pc, #48]	@ (8013da0 <msc_getdesc+0x48>)
 8013d6e:	f7fc ff89 	bl	8010c84 <kprintf>
 8013d72:	2000      	movs	r0, #0
 8013d74:	e010      	b.n	8013d98 <msc_getdesc+0x40>
 8013d76:	2b02      	cmp	r3, #2
 8013d78:	d804      	bhi.n	8013d84 <msc_getdesc+0x2c>
 8013d7a:	480a      	ldr	r0, [pc, #40]	@ (8013da4 <msc_getdesc+0x4c>)
 8013d7c:	eb00 0383 	add.w	r3, r0, r3, lsl #2
 8013d80:	6b5b      	ldr	r3, [r3, #52]	@ 0x34
 8013d82:	e005      	b.n	8013d90 <msc_getdesc+0x38>
 8013d84:	4808      	ldr	r0, [pc, #32]	@ (8013da8 <msc_getdesc+0x50>)
 8013d86:	f7fc ff7d 	bl	8010c84 <kprintf>
 8013d8a:	2000      	movs	r0, #0
 8013d8c:	e004      	b.n	8013d98 <msc_getdesc+0x40>
 8013d8e:	4b05      	ldr	r3, [pc, #20]	@ (8013da4 <msc_getdesc+0x4c>)
 8013d90:	7818      	ldrb	r0, [r3, #0]
 8013d92:	600b      	str	r3, [r1, #0]
 8013d94:	8010      	strh	r0, [r2, #0]
 8013d96:	2001      	movs	r0, #1
 8013d98:	bd08      	pop	{r3, pc}
 8013d9a:	4b04      	ldr	r3, [pc, #16]	@ (8013dac <msc_getdesc+0x54>)
 8013d9c:	2020      	movs	r0, #32
 8013d9e:	e7f8      	b.n	8013d92 <msc_getdesc+0x3a>
 8013da0:	0801a1cc 	.word	0x0801a1cc
 8013da4:	08019cbc 	.word	0x08019cbc
 8013da8:	0801a1b8 	.word	0x0801a1b8
 8013dac:	08019cd0 	.word	0x08019cd0

08013db0 <bot_tx>:
 8013db0:	b538      	push	{r3, r4, r5, lr}
 8013db2:	4605      	mov	r5, r0
 8013db4:	4b43      	ldr	r3, [pc, #268]	@ (8013ec4 <bot_tx+0x114>)
 8013db6:	785b      	ldrb	r3, [r3, #1]
 8013db8:	2b02      	cmp	r3, #2
 8013dba:	d025      	beq.n	8013e08 <bot_tx+0x58>
 8013dbc:	2b04      	cmp	r3, #4
 8013dbe:	d076      	beq.n	8013eae <bot_tx+0xfe>
 8013dc0:	2b01      	cmp	r3, #1
 8013dc2:	d000      	beq.n	8013dc6 <bot_tx+0x16>
 8013dc4:	bd38      	pop	{r3, r4, r5, pc}
 8013dc6:	493f      	ldr	r1, [pc, #252]	@ (8013ec4 <bot_tx+0x114>)
 8013dc8:	f8d1 2230 	ldr.w	r2, [r1, #560]	@ 0x230
 8013dcc:	2a40      	cmp	r2, #64	@ 0x40
 8013dce:	bf28      	it	cs
 8013dd0:	2240      	movcs	r2, #64	@ 0x40
 8013dd2:	6803      	ldr	r3, [r0, #0]
 8013dd4:	69db      	ldr	r3, [r3, #28]
 8013dd6:	b292      	uxth	r2, r2
 8013dd8:	3130      	adds	r1, #48	@ 0x30
 8013dda:	2082      	movs	r0, #130	@ 0x82
 8013ddc:	4798      	blx	r3
 8013dde:	1e04      	subs	r4, r0, #0
 8013de0:	ddf0      	ble.n	8013dc4 <bot_tx+0x14>
 8013de2:	4d38      	ldr	r5, [pc, #224]	@ (8013ec4 <bot_tx+0x114>)
 8013de4:	f8d5 2230 	ldr.w	r2, [r5, #560]	@ 0x230
 8013de8:	f105 0030 	add.w	r0, r5, #48	@ 0x30
 8013dec:	1b12      	subs	r2, r2, r4
 8013dee:	1901      	adds	r1, r0, r4
 8013df0:	f7fe fbe9 	bl	80125c6 <memmove>
 8013df4:	f8d5 3230 	ldr.w	r3, [r5, #560]	@ 0x230
 8013df8:	1b1b      	subs	r3, r3, r4
 8013dfa:	f8c5 3230 	str.w	r3, [r5, #560]	@ 0x230
 8013dfe:	2b00      	cmp	r3, #0
 8013e00:	d1e0      	bne.n	8013dc4 <bot_tx+0x14>
 8013e02:	2204      	movs	r2, #4
 8013e04:	706a      	strb	r2, [r5, #1]
 8013e06:	e7dd      	b.n	8013dc4 <bot_tx+0x14>
 8013e08:	4b2e      	ldr	r3, [pc, #184]	@ (8013ec4 <bot_tx+0x114>)
 8013e0a:	f8d3 3230 	ldr.w	r3, [r3, #560]	@ 0x230
 8013e0e:	b9c3      	cbnz	r3, 8013e42 <bot_tx+0x92>
 8013e10:	4b2d      	ldr	r3, [pc, #180]	@ (8013ec8 <bot_tx+0x118>)
 8013e12:	685c      	ldr	r4, [r3, #4]
 8013e14:	482b      	ldr	r0, [pc, #172]	@ (8013ec4 <bot_tx+0x114>)
 8013e16:	2201      	movs	r2, #1
 8013e18:	f8d0 1234 	ldr.w	r1, [r0, #564]	@ 0x234
 8013e1c:	3030      	adds	r0, #48	@ 0x30
 8013e1e:	47a0      	blx	r4
 8013e20:	280b      	cmp	r0, #11
 8013e22:	d0f5      	beq.n	8013e10 <bot_tx+0x60>
 8013e24:	4b27      	ldr	r3, [pc, #156]	@ (8013ec4 <bot_tx+0x114>)
 8013e26:	f8d3 2234 	ldr.w	r2, [r3, #564]	@ 0x234
 8013e2a:	3201      	adds	r2, #1
 8013e2c:	f8c3 2234 	str.w	r2, [r3, #564]	@ 0x234
 8013e30:	f8d3 2238 	ldr.w	r2, [r3, #568]	@ 0x238
 8013e34:	3a01      	subs	r2, #1
 8013e36:	f8c3 2238 	str.w	r2, [r3, #568]	@ 0x238
 8013e3a:	f44f 7200 	mov.w	r2, #512	@ 0x200
 8013e3e:	f8c3 2230 	str.w	r2, [r3, #560]	@ 0x230
 8013e42:	4920      	ldr	r1, [pc, #128]	@ (8013ec4 <bot_tx+0x114>)
 8013e44:	f8d1 2230 	ldr.w	r2, [r1, #560]	@ 0x230
 8013e48:	2a40      	cmp	r2, #64	@ 0x40
 8013e4a:	bf28      	it	cs
 8013e4c:	2240      	movcs	r2, #64	@ 0x40
 8013e4e:	682b      	ldr	r3, [r5, #0]
 8013e50:	69db      	ldr	r3, [r3, #28]
 8013e52:	b292      	uxth	r2, r2
 8013e54:	3130      	adds	r1, #48	@ 0x30
 8013e56:	2082      	movs	r0, #130	@ 0x82
 8013e58:	4798      	blx	r3
 8013e5a:	1e04      	subs	r4, r0, #0
 8013e5c:	dc18      	bgt.n	8013e90 <bot_tx+0xe0>
 8013e5e:	4b19      	ldr	r3, [pc, #100]	@ (8013ec4 <bot_tx+0x114>)
 8013e60:	f8d3 3238 	ldr.w	r3, [r3, #568]	@ 0x238
 8013e64:	2b00      	cmp	r3, #0
 8013e66:	d1ad      	bne.n	8013dc4 <bot_tx+0x14>
 8013e68:	4b16      	ldr	r3, [pc, #88]	@ (8013ec4 <bot_tx+0x114>)
 8013e6a:	f8d3 3230 	ldr.w	r3, [r3, #560]	@ 0x230
 8013e6e:	2b00      	cmp	r3, #0
 8013e70:	d1a8      	bne.n	8013dc4 <bot_tx+0x14>
 8013e72:	4b14      	ldr	r3, [pc, #80]	@ (8013ec4 <bot_tx+0x114>)
 8013e74:	2200      	movs	r2, #0
 8013e76:	f883 2029 	strb.w	r2, [r3, #41]	@ 0x29
 8013e7a:	f883 202a 	strb.w	r2, [r3, #42]	@ 0x2a
 8013e7e:	f883 202b 	strb.w	r2, [r3, #43]	@ 0x2b
 8013e82:	f883 202c 	strb.w	r2, [r3, #44]	@ 0x2c
 8013e86:	f883 202d 	strb.w	r2, [r3, #45]	@ 0x2d
 8013e8a:	2204      	movs	r2, #4
 8013e8c:	705a      	strb	r2, [r3, #1]
 8013e8e:	e799      	b.n	8013dc4 <bot_tx+0x14>
 8013e90:	4d0c      	ldr	r5, [pc, #48]	@ (8013ec4 <bot_tx+0x114>)
 8013e92:	f8d5 2230 	ldr.w	r2, [r5, #560]	@ 0x230
 8013e96:	f105 0030 	add.w	r0, r5, #48	@ 0x30
 8013e9a:	1b12      	subs	r2, r2, r4
 8013e9c:	1901      	adds	r1, r0, r4
 8013e9e:	f7fe fb92 	bl	80125c6 <memmove>
 8013ea2:	f8d5 3230 	ldr.w	r3, [r5, #560]	@ 0x230
 8013ea6:	1b1b      	subs	r3, r3, r4
 8013ea8:	f8c5 3230 	str.w	r3, [r5, #560]	@ 0x230
 8013eac:	e7d7      	b.n	8013e5e <bot_tx+0xae>
 8013eae:	6803      	ldr	r3, [r0, #0]
 8013eb0:	69db      	ldr	r3, [r3, #28]
 8013eb2:	4c04      	ldr	r4, [pc, #16]	@ (8013ec4 <bot_tx+0x114>)
 8013eb4:	220d      	movs	r2, #13
 8013eb6:	f104 0121 	add.w	r1, r4, #33	@ 0x21
 8013eba:	2082      	movs	r0, #130	@ 0x82
 8013ebc:	4798      	blx	r3
 8013ebe:	2300      	movs	r3, #0
 8013ec0:	7063      	strb	r3, [r4, #1]
 8013ec2:	e77f      	b.n	8013dc4 <bot_tx+0x14>
 8013ec4:	200001c4 	.word	0x200001c4
 8013ec8:	08019eb0 	.word	0x08019eb0

08013ecc <bot_error>:
 8013ecc:	b508      	push	{r3, lr}
 8013ece:	4b0b      	ldr	r3, [pc, #44]	@ (8013efc <bot_error+0x30>)
 8013ed0:	f883 123c 	strb.w	r1, [r3, #572]	@ 0x23c
 8013ed4:	f883 223d 	strb.w	r2, [r3, #573]	@ 0x23d
 8013ed8:	2204      	movs	r2, #4
 8013eda:	705a      	strb	r2, [r3, #1]
 8013edc:	2200      	movs	r2, #0
 8013ede:	f883 2029 	strb.w	r2, [r3, #41]	@ 0x29
 8013ee2:	f883 202a 	strb.w	r2, [r3, #42]	@ 0x2a
 8013ee6:	f883 202b 	strb.w	r2, [r3, #43]	@ 0x2b
 8013eea:	f883 202c 	strb.w	r2, [r3, #44]	@ 0x2c
 8013eee:	2201      	movs	r2, #1
 8013ef0:	f883 202d 	strb.w	r2, [r3, #45]	@ 0x2d
 8013ef4:	f7ff ff5c 	bl	8013db0 <bot_tx>
 8013ef8:	bd08      	pop	{r3, pc}
 8013efa:	bf00      	nop
 8013efc:	200001c4 	.word	0x200001c4

08013f00 <bot_rx>:
 8013f00:	b5f0      	push	{r4, r5, r6, r7, lr}
 8013f02:	b087      	sub	sp, #28
 8013f04:	4604      	mov	r4, r0
 8013f06:	4ba9      	ldr	r3, [pc, #676]	@ (80141ac <bot_rx+0x2ac>)
 8013f08:	785b      	ldrb	r3, [r3, #1]
 8013f0a:	b123      	cbz	r3, 8013f16 <bot_rx+0x16>
 8013f0c:	2b03      	cmp	r3, #3
 8013f0e:	f000 82e1 	beq.w	80144d4 <bot_rx+0x5d4>
 8013f12:	b007      	add	sp, #28
 8013f14:	bdf0      	pop	{r4, r5, r6, r7, pc}
 8013f16:	6803      	ldr	r3, [r0, #0]
 8013f18:	699b      	ldr	r3, [r3, #24]
 8013f1a:	2240      	movs	r2, #64	@ 0x40
 8013f1c:	49a4      	ldr	r1, [pc, #656]	@ (80141b0 <bot_rx+0x2b0>)
 8013f1e:	2001      	movs	r0, #1
 8013f20:	4798      	blx	r3
 8013f22:	281f      	cmp	r0, #31
 8013f24:	d00c      	beq.n	8013f40 <bot_rx+0x40>
 8013f26:	4ba1      	ldr	r3, [pc, #644]	@ (80141ac <bot_rx+0x2ac>)
 8013f28:	2205      	movs	r2, #5
 8013f2a:	f883 223c 	strb.w	r2, [r3, #572]	@ 0x23c
 8013f2e:	2220      	movs	r2, #32
 8013f30:	f883 223d 	strb.w	r2, [r3, #573]	@ 0x23d
 8013f34:	6823      	ldr	r3, [r4, #0]
 8013f36:	6a1b      	ldr	r3, [r3, #32]
 8013f38:	2101      	movs	r1, #1
 8013f3a:	4608      	mov	r0, r1
 8013f3c:	4798      	blx	r3
 8013f3e:	e7e8      	b.n	8013f12 <bot_rx+0x12>
 8013f40:	4d9a      	ldr	r5, [pc, #616]	@ (80141ac <bot_rx+0x2ac>)
 8013f42:	221f      	movs	r2, #31
 8013f44:	f105 0130 	add.w	r1, r5, #48	@ 0x30
 8013f48:	1ca8      	adds	r0, r5, #2
 8013f4a:	f7fe fb2b 	bl	80125a4 <memcpy>
 8013f4e:	f8d5 2002 	ldr.w	r2, [r5, #2]
 8013f52:	4b98      	ldr	r3, [pc, #608]	@ (80141b4 <bot_rx+0x2b4>)
 8013f54:	429a      	cmp	r2, r3
 8013f56:	d175      	bne.n	8014044 <bot_rx+0x144>
 8013f58:	7c2b      	ldrb	r3, [r5, #16]
 8013f5a:	2b00      	cmp	r3, #0
 8013f5c:	d072      	beq.n	8014044 <bot_rx+0x144>
 8013f5e:	2b10      	cmp	r3, #16
 8013f60:	d870      	bhi.n	8014044 <bot_rx+0x144>
 8013f62:	4b92      	ldr	r3, [pc, #584]	@ (80141ac <bot_rx+0x2ac>)
 8013f64:	2255      	movs	r2, #85	@ 0x55
 8013f66:	f883 2021 	strb.w	r2, [r3, #33]	@ 0x21
 8013f6a:	2253      	movs	r2, #83	@ 0x53
 8013f6c:	f883 2022 	strb.w	r2, [r3, #34]	@ 0x22
 8013f70:	2142      	movs	r1, #66	@ 0x42
 8013f72:	f883 1023 	strb.w	r1, [r3, #35]	@ 0x23
 8013f76:	f883 2024 	strb.w	r2, [r3, #36]	@ 0x24
 8013f7a:	f8d3 2006 	ldr.w	r2, [r3, #6]
 8013f7e:	f8c3 2025 	str.w	r2, [r3, #37]	@ 0x25
 8013f82:	7c5b      	ldrb	r3, [r3, #17]
 8013f84:	2b5a      	cmp	r3, #90	@ 0x5a
 8013f86:	f200 829f 	bhi.w	80144c8 <bot_rx+0x5c8>
 8013f8a:	e8df f013 	tbh	[pc, r3, lsl #1]
 8013f8e:	00fd      	.short	0x00fd
 8013f90:	029d029d 	.word	0x029d029d
 8013f94:	029d009b 	.word	0x029d009b
 8013f98:	029d029d 	.word	0x029d029d
 8013f9c:	029d029d 	.word	0x029d029d
 8013fa0:	029d029d 	.word	0x029d029d
 8013fa4:	029d029d 	.word	0x029d029d
 8013fa8:	029d029d 	.word	0x029d029d
 8013fac:	029d029d 	.word	0x029d029d
 8013fb0:	0068029d 	.word	0x0068029d
 8013fb4:	029d029d 	.word	0x029d029d
 8013fb8:	029d029d 	.word	0x029d029d
 8013fbc:	029d029d 	.word	0x029d029d
 8013fc0:	00cb029d 	.word	0x00cb029d
 8013fc4:	029d0287 	.word	0x029d0287
 8013fc8:	0275029d 	.word	0x0275029d
 8013fcc:	029d029d 	.word	0x029d029d
 8013fd0:	029d029d 	.word	0x029d029d
 8013fd4:	029d0232 	.word	0x029d0232
 8013fd8:	029d011b 	.word	0x029d011b
 8013fdc:	017d029d 	.word	0x017d029d
 8013fe0:	01bc029d 	.word	0x01bc029d
 8013fe4:	029d029d 	.word	0x029d029d
 8013fe8:	029d029d 	.word	0x029d029d
 8013fec:	029d01fb 	.word	0x029d01fb
 8013ff0:	029d029d 	.word	0x029d029d
 8013ff4:	029d029d 	.word	0x029d029d
 8013ff8:	029d029d 	.word	0x029d029d
 8013ffc:	029d029d 	.word	0x029d029d
 8014000:	029d029d 	.word	0x029d029d
 8014004:	029d029d 	.word	0x029d029d
 8014008:	029d029d 	.word	0x029d029d
 801400c:	029d029d 	.word	0x029d029d
 8014010:	029d029d 	.word	0x029d029d
 8014014:	029d029d 	.word	0x029d029d
 8014018:	029d029d 	.word	0x029d029d
 801401c:	029d029d 	.word	0x029d029d
 8014020:	029d029d 	.word	0x029d029d
 8014024:	029d029d 	.word	0x029d029d
 8014028:	029d029d 	.word	0x029d029d
 801402c:	029d029d 	.word	0x029d029d
 8014030:	029d029d 	.word	0x029d029d
 8014034:	029d029d 	.word	0x029d029d
 8014038:	029d029d 	.word	0x029d029d
 801403c:	029d029d 	.word	0x029d029d
 8014040:	00e4029d 	.word	0x00e4029d
 8014044:	4b59      	ldr	r3, [pc, #356]	@ (80141ac <bot_rx+0x2ac>)
 8014046:	2205      	movs	r2, #5
 8014048:	f883 223c 	strb.w	r2, [r3, #572]	@ 0x23c
 801404c:	2220      	movs	r2, #32
 801404e:	f883 223d 	strb.w	r2, [r3, #573]	@ 0x23d
 8014052:	6823      	ldr	r3, [r4, #0]
 8014054:	6a1b      	ldr	r3, [r3, #32]
 8014056:	2101      	movs	r1, #1
 8014058:	4608      	mov	r0, r1
 801405a:	4798      	blx	r3
 801405c:	e759      	b.n	8013f12 <bot_rx+0x12>
 801405e:	4b53      	ldr	r3, [pc, #332]	@ (80141ac <bot_rx+0x2ac>)
 8014060:	7d19      	ldrb	r1, [r3, #20]
 8014062:	7d5a      	ldrb	r2, [r3, #21]
 8014064:	ea42 2201 	orr.w	r2, r2, r1, lsl #8
 8014068:	7c9b      	ldrb	r3, [r3, #18]
 801406a:	f013 0f01 	tst.w	r3, #1
 801406e:	d123      	bne.n	80140b8 <bot_rx+0x1b8>
 8014070:	4b4e      	ldr	r3, [pc, #312]	@ (80141ac <bot_rx+0x2ac>)
 8014072:	7cdb      	ldrb	r3, [r3, #19]
 8014074:	b9d3      	cbnz	r3, 80140ac <bot_rx+0x1ac>
 8014076:	2a24      	cmp	r2, #36	@ 0x24
 8014078:	bf28      	it	cs
 801407a:	2224      	movcs	r2, #36	@ 0x24
 801407c:	4d4b      	ldr	r5, [pc, #300]	@ (80141ac <bot_rx+0x2ac>)
 801407e:	f8c5 2230 	str.w	r2, [r5, #560]	@ 0x230
 8014082:	494d      	ldr	r1, [pc, #308]	@ (80141b8 <bot_rx+0x2b8>)
 8014084:	f105 0030 	add.w	r0, r5, #48	@ 0x30
 8014088:	f7fe fa8c 	bl	80125a4 <memcpy>
 801408c:	2301      	movs	r3, #1
 801408e:	706b      	strb	r3, [r5, #1]
 8014090:	f8d5 300a 	ldr.w	r3, [r5, #10]
 8014094:	f8d5 2230 	ldr.w	r2, [r5, #560]	@ 0x230
 8014098:	1a9b      	subs	r3, r3, r2
 801409a:	f8c5 3029 	str.w	r3, [r5, #41]	@ 0x29
 801409e:	2300      	movs	r3, #0
 80140a0:	f885 302d 	strb.w	r3, [r5, #45]	@ 0x2d
 80140a4:	4620      	mov	r0, r4
 80140a6:	f7ff fe83 	bl	8013db0 <bot_tx>
 80140aa:	e732      	b.n	8013f12 <bot_rx+0x12>
 80140ac:	2224      	movs	r2, #36	@ 0x24
 80140ae:	2105      	movs	r1, #5
 80140b0:	4620      	mov	r0, r4
 80140b2:	f7ff ff0b 	bl	8013ecc <bot_error>
 80140b6:	e72c      	b.n	8013f12 <bot_rx+0x12>
 80140b8:	2224      	movs	r2, #36	@ 0x24
 80140ba:	2105      	movs	r1, #5
 80140bc:	4620      	mov	r0, r4
 80140be:	f7ff ff05 	bl	8013ecc <bot_error>
 80140c2:	e726      	b.n	8013f12 <bot_rx+0x12>
 80140c4:	2600      	movs	r6, #0
 80140c6:	9601      	str	r6, [sp, #4]
 80140c8:	9602      	str	r6, [sp, #8]
 80140ca:	9603      	str	r6, [sp, #12]
 80140cc:	9604      	str	r6, [sp, #16]
 80140ce:	f8ad 6014 	strh.w	r6, [sp, #20]
 80140d2:	4d36      	ldr	r5, [pc, #216]	@ (80141ac <bot_rx+0x2ac>)
 80140d4:	7d6a      	ldrb	r2, [r5, #21]
 80140d6:	2370      	movs	r3, #112	@ 0x70
 80140d8:	f88d 3004 	strb.w	r3, [sp, #4]
 80140dc:	f895 323c 	ldrb.w	r3, [r5, #572]	@ 0x23c
 80140e0:	f88d 3006 	strb.w	r3, [sp, #6]
 80140e4:	230a      	movs	r3, #10
 80140e6:	f88d 300b 	strb.w	r3, [sp, #11]
 80140ea:	f895 323d 	ldrb.w	r3, [r5, #573]	@ 0x23d
 80140ee:	f88d 3010 	strb.w	r3, [sp, #16]
 80140f2:	2a12      	cmp	r2, #18
 80140f4:	bf28      	it	cs
 80140f6:	2212      	movcs	r2, #18
 80140f8:	f8c5 2230 	str.w	r2, [r5, #560]	@ 0x230
 80140fc:	a901      	add	r1, sp, #4
 80140fe:	f105 0030 	add.w	r0, r5, #48	@ 0x30
 8014102:	f7fe fa4f 	bl	80125a4 <memcpy>
 8014106:	2301      	movs	r3, #1
 8014108:	706b      	strb	r3, [r5, #1]
 801410a:	f8d5 300a 	ldr.w	r3, [r5, #10]
 801410e:	f8d5 2230 	ldr.w	r2, [r5, #560]	@ 0x230
 8014112:	1a9b      	subs	r3, r3, r2
 8014114:	f8c5 3029 	str.w	r3, [r5, #41]	@ 0x29
 8014118:	f885 602d 	strb.w	r6, [r5, #45]	@ 0x2d
 801411c:	4620      	mov	r0, r4
 801411e:	f7ff fe47 	bl	8013db0 <bot_tx>
 8014122:	e6f6      	b.n	8013f12 <bot_rx+0x12>
 8014124:	4d21      	ldr	r5, [pc, #132]	@ (80141ac <bot_rx+0x2ac>)
 8014126:	2204      	movs	r2, #4
 8014128:	f8c5 2230 	str.w	r2, [r5, #560]	@ 0x230
 801412c:	4923      	ldr	r1, [pc, #140]	@ (80141bc <bot_rx+0x2bc>)
 801412e:	f105 0030 	add.w	r0, r5, #48	@ 0x30
 8014132:	f7fe fa37 	bl	80125a4 <memcpy>
 8014136:	2301      	movs	r3, #1
 8014138:	706b      	strb	r3, [r5, #1]
 801413a:	f8d5 300a 	ldr.w	r3, [r5, #10]
 801413e:	f8d5 2230 	ldr.w	r2, [r5, #560]	@ 0x230
 8014142:	1a9b      	subs	r3, r3, r2
 8014144:	f8c5 3029 	str.w	r3, [r5, #41]	@ 0x29
 8014148:	2300      	movs	r3, #0
 801414a:	f885 302d 	strb.w	r3, [r5, #45]	@ 0x2d
 801414e:	4620      	mov	r0, r4
 8014150:	f7ff fe2e 	bl	8013db0 <bot_tx>
 8014154:	e6dd      	b.n	8013f12 <bot_rx+0x12>
 8014156:	4d15      	ldr	r5, [pc, #84]	@ (80141ac <bot_rx+0x2ac>)
 8014158:	2208      	movs	r2, #8
 801415a:	f8c5 2230 	str.w	r2, [r5, #560]	@ 0x230
 801415e:	4918      	ldr	r1, [pc, #96]	@ (80141c0 <bot_rx+0x2c0>)
 8014160:	f105 0030 	add.w	r0, r5, #48	@ 0x30
 8014164:	f7fe fa1e 	bl	80125a4 <memcpy>
 8014168:	2301      	movs	r3, #1
 801416a:	706b      	strb	r3, [r5, #1]
 801416c:	f8d5 300a 	ldr.w	r3, [r5, #10]
 8014170:	f8d5 2230 	ldr.w	r2, [r5, #560]	@ 0x230
 8014174:	1a9b      	subs	r3, r3, r2
 8014176:	f8c5 3029 	str.w	r3, [r5, #41]	@ 0x29
 801417a:	2300      	movs	r3, #0
 801417c:	f885 302d 	strb.w	r3, [r5, #45]	@ 0x2d
 8014180:	4620      	mov	r0, r4
 8014182:	f7ff fe15 	bl	8013db0 <bot_tx>
 8014186:	e6c4      	b.n	8013f12 <bot_rx+0x12>
 8014188:	4b08      	ldr	r3, [pc, #32]	@ (80141ac <bot_rx+0x2ac>)
 801418a:	2204      	movs	r2, #4
 801418c:	705a      	strb	r2, [r3, #1]
 801418e:	2200      	movs	r2, #0
 8014190:	f883 2029 	strb.w	r2, [r3, #41]	@ 0x29
 8014194:	f883 202a 	strb.w	r2, [r3, #42]	@ 0x2a
 8014198:	f883 202b 	strb.w	r2, [r3, #43]	@ 0x2b
 801419c:	f883 202c 	strb.w	r2, [r3, #44]	@ 0x2c
 80141a0:	f883 202d 	strb.w	r2, [r3, #45]	@ 0x2d
 80141a4:	4620      	mov	r0, r4
 80141a6:	f7ff fe03 	bl	8013db0 <bot_tx>
 80141aa:	e6b2      	b.n	8013f12 <bot_rx+0x12>
 80141ac:	200001c4 	.word	0x200001c4
 80141b0:	200001f4 	.word	0x200001f4
 80141b4:	43425355 	.word	0x43425355
 80141b8:	08019cfc 	.word	0x08019cfc
 80141bc:	08019d20 	.word	0x08019d20
 80141c0:	08019d24 	.word	0x08019d24
 80141c4:	2300      	movs	r3, #0
 80141c6:	9301      	str	r3, [sp, #4]
 80141c8:	9302      	str	r3, [sp, #8]
 80141ca:	4bbd      	ldr	r3, [pc, #756]	@ (80144c0 <bot_rx+0x5c0>)
 80141cc:	68db      	ldr	r3, [r3, #12]
 80141ce:	4798      	blx	r3
 80141d0:	4602      	mov	r2, r0
 80141d2:	49bc      	ldr	r1, [pc, #752]	@ (80144c4 <bot_rx+0x5c4>)
 80141d4:	7cc8      	ldrb	r0, [r1, #19]
 80141d6:	7d0b      	ldrb	r3, [r1, #20]
 80141d8:	041b      	lsls	r3, r3, #16
 80141da:	ea43 6300 	orr.w	r3, r3, r0, lsl #24
 80141de:	7d48      	ldrb	r0, [r1, #21]
 80141e0:	ea43 2300 	orr.w	r3, r3, r0, lsl #8
 80141e4:	7d88      	ldrb	r0, [r1, #22]
 80141e6:	4303      	orrs	r3, r0
 80141e8:	f8c1 3234 	str.w	r3, [r1, #564]	@ 0x234
 80141ec:	6811      	ldr	r1, [r2, #0]
 80141ee:	3901      	subs	r1, #1
 80141f0:	428b      	cmp	r3, r1
 80141f2:	d83d      	bhi.n	8014270 <bot_rx+0x370>
 80141f4:	48b3      	ldr	r0, [pc, #716]	@ (80144c4 <bot_rx+0x5c4>)
 80141f6:	7e40      	ldrb	r0, [r0, #25]
 80141f8:	f010 0f01 	tst.w	r0, #1
 80141fc:	d001      	beq.n	8014202 <bot_rx+0x302>
 80141fe:	2b00      	cmp	r3, #0
 8014200:	d03c      	beq.n	801427c <bot_rx+0x37c>
 8014202:	0e09      	lsrs	r1, r1, #24
 8014204:	f88d 1004 	strb.w	r1, [sp, #4]
 8014208:	6813      	ldr	r3, [r2, #0]
 801420a:	3b01      	subs	r3, #1
 801420c:	0c1b      	lsrs	r3, r3, #16
 801420e:	f88d 3005 	strb.w	r3, [sp, #5]
 8014212:	6813      	ldr	r3, [r2, #0]
 8014214:	3b01      	subs	r3, #1
 8014216:	0a1b      	lsrs	r3, r3, #8
 8014218:	f88d 3006 	strb.w	r3, [sp, #6]
 801421c:	6813      	ldr	r3, [r2, #0]
 801421e:	3b01      	subs	r3, #1
 8014220:	f88d 3007 	strb.w	r3, [sp, #7]
 8014224:	79d3      	ldrb	r3, [r2, #7]
 8014226:	f88d 3008 	strb.w	r3, [sp, #8]
 801422a:	88d3      	ldrh	r3, [r2, #6]
 801422c:	f88d 3009 	strb.w	r3, [sp, #9]
 8014230:	6853      	ldr	r3, [r2, #4]
 8014232:	0a1b      	lsrs	r3, r3, #8
 8014234:	f88d 300a 	strb.w	r3, [sp, #10]
 8014238:	6853      	ldr	r3, [r2, #4]
 801423a:	f88d 300b 	strb.w	r3, [sp, #11]
 801423e:	4da1      	ldr	r5, [pc, #644]	@ (80144c4 <bot_rx+0x5c4>)
 8014240:	2208      	movs	r2, #8
 8014242:	f8c5 2230 	str.w	r2, [r5, #560]	@ 0x230
 8014246:	a901      	add	r1, sp, #4
 8014248:	f105 0030 	add.w	r0, r5, #48	@ 0x30
 801424c:	f7fe f9aa 	bl	80125a4 <memcpy>
 8014250:	2301      	movs	r3, #1
 8014252:	706b      	strb	r3, [r5, #1]
 8014254:	f8d5 300a 	ldr.w	r3, [r5, #10]
 8014258:	f8d5 2230 	ldr.w	r2, [r5, #560]	@ 0x230
 801425c:	1a9b      	subs	r3, r3, r2
 801425e:	f8c5 3029 	str.w	r3, [r5, #41]	@ 0x29
 8014262:	2300      	movs	r3, #0
 8014264:	f885 302d 	strb.w	r3, [r5, #45]	@ 0x2d
 8014268:	4620      	mov	r0, r4
 801426a:	f7ff fda1 	bl	8013db0 <bot_tx>
 801426e:	e650      	b.n	8013f12 <bot_rx+0x12>
 8014270:	2221      	movs	r2, #33	@ 0x21
 8014272:	2105      	movs	r1, #5
 8014274:	4620      	mov	r0, r4
 8014276:	f7ff fe29 	bl	8013ecc <bot_error>
 801427a:	e64a      	b.n	8013f12 <bot_rx+0x12>
 801427c:	2224      	movs	r2, #36	@ 0x24
 801427e:	2105      	movs	r1, #5
 8014280:	4620      	mov	r0, r4
 8014282:	f7ff fe23 	bl	8013ecc <bot_error>
 8014286:	e644      	b.n	8013f12 <bot_rx+0x12>
 8014288:	4b8d      	ldr	r3, [pc, #564]	@ (80144c0 <bot_rx+0x5c0>)
 801428a:	68db      	ldr	r3, [r3, #12]
 801428c:	4798      	blx	r3
 801428e:	4a8d      	ldr	r2, [pc, #564]	@ (80144c4 <bot_rx+0x5c4>)
 8014290:	7cd1      	ldrb	r1, [r2, #19]
 8014292:	7d13      	ldrb	r3, [r2, #20]
 8014294:	041b      	lsls	r3, r3, #16
 8014296:	ea43 6301 	orr.w	r3, r3, r1, lsl #24
 801429a:	7d51      	ldrb	r1, [r2, #21]
 801429c:	ea43 2301 	orr.w	r3, r3, r1, lsl #8
 80142a0:	7d91      	ldrb	r1, [r2, #22]
 80142a2:	430b      	orrs	r3, r1
 80142a4:	f8c2 3234 	str.w	r3, [r2, #564]	@ 0x234
 80142a8:	7e15      	ldrb	r5, [r2, #24]
 80142aa:	7e51      	ldrb	r1, [r2, #25]
 80142ac:	ea41 2105 	orr.w	r1, r1, r5, lsl #8
 80142b0:	f8c2 1238 	str.w	r1, [r2, #568]	@ 0x238
 80142b4:	6802      	ldr	r2, [r0, #0]
 80142b6:	3a01      	subs	r2, #1
 80142b8:	4293      	cmp	r3, r2
 80142ba:	d811      	bhi.n	80142e0 <bot_rx+0x3e0>
 80142bc:	4b81      	ldr	r3, [pc, #516]	@ (80144c4 <bot_rx+0x5c4>)
 80142be:	7c9b      	ldrb	r3, [r3, #18]
 80142c0:	2b1f      	cmp	r3, #31
 80142c2:	d813      	bhi.n	80142ec <bot_rx+0x3ec>
 80142c4:	4b7f      	ldr	r3, [pc, #508]	@ (80144c4 <bot_rx+0x5c4>)
 80142c6:	f8d3 300a 	ldr.w	r3, [r3, #10]
 80142ca:	6842      	ldr	r2, [r0, #4]
 80142cc:	fb02 f101 	mul.w	r1, r2, r1
 80142d0:	428b      	cmp	r3, r1
 80142d2:	d011      	beq.n	80142f8 <bot_rx+0x3f8>
 80142d4:	2220      	movs	r2, #32
 80142d6:	2105      	movs	r1, #5
 80142d8:	4620      	mov	r0, r4
 80142da:	f7ff fdf7 	bl	8013ecc <bot_error>
 80142de:	e618      	b.n	8013f12 <bot_rx+0x12>
 80142e0:	2221      	movs	r2, #33	@ 0x21
 80142e2:	2105      	movs	r1, #5
 80142e4:	4620      	mov	r0, r4
 80142e6:	f7ff fdf1 	bl	8013ecc <bot_error>
 80142ea:	e612      	b.n	8013f12 <bot_rx+0x12>
 80142ec:	2224      	movs	r2, #36	@ 0x24
 80142ee:	2105      	movs	r1, #5
 80142f0:	4620      	mov	r0, r4
 80142f2:	f7ff fdeb 	bl	8013ecc <bot_error>
 80142f6:	e60c      	b.n	8013f12 <bot_rx+0x12>
 80142f8:	4b72      	ldr	r3, [pc, #456]	@ (80144c4 <bot_rx+0x5c4>)
 80142fa:	2202      	movs	r2, #2
 80142fc:	705a      	strb	r2, [r3, #1]
 80142fe:	4620      	mov	r0, r4
 8014300:	f7ff fd56 	bl	8013db0 <bot_tx>
 8014304:	e605      	b.n	8013f12 <bot_rx+0x12>
 8014306:	4b6e      	ldr	r3, [pc, #440]	@ (80144c0 <bot_rx+0x5c0>)
 8014308:	68db      	ldr	r3, [r3, #12]
 801430a:	4798      	blx	r3
 801430c:	4a6d      	ldr	r2, [pc, #436]	@ (80144c4 <bot_rx+0x5c4>)
 801430e:	7cd1      	ldrb	r1, [r2, #19]
 8014310:	7d13      	ldrb	r3, [r2, #20]
 8014312:	041b      	lsls	r3, r3, #16
 8014314:	ea43 6301 	orr.w	r3, r3, r1, lsl #24
 8014318:	7d51      	ldrb	r1, [r2, #21]
 801431a:	ea43 2301 	orr.w	r3, r3, r1, lsl #8
 801431e:	7d91      	ldrb	r1, [r2, #22]
 8014320:	430b      	orrs	r3, r1
 8014322:	f8c2 3234 	str.w	r3, [r2, #564]	@ 0x234
 8014326:	7e15      	ldrb	r5, [r2, #24]
 8014328:	7e51      	ldrb	r1, [r2, #25]
 801432a:	ea41 2105 	orr.w	r1, r1, r5, lsl #8
 801432e:	f8c2 1238 	str.w	r1, [r2, #568]	@ 0x238
 8014332:	6802      	ldr	r2, [r0, #0]
 8014334:	3a01      	subs	r2, #1
 8014336:	4293      	cmp	r3, r2
 8014338:	d812      	bhi.n	8014360 <bot_rx+0x460>
 801433a:	4b62      	ldr	r3, [pc, #392]	@ (80144c4 <bot_rx+0x5c4>)
 801433c:	7c9b      	ldrb	r3, [r3, #18]
 801433e:	2b1f      	cmp	r3, #31
 8014340:	d814      	bhi.n	801436c <bot_rx+0x46c>
 8014342:	4b60      	ldr	r3, [pc, #384]	@ (80144c4 <bot_rx+0x5c4>)
 8014344:	f8d3 300a 	ldr.w	r3, [r3, #10]
 8014348:	6842      	ldr	r2, [r0, #4]
 801434a:	fb02 f101 	mul.w	r1, r2, r1
 801434e:	428b      	cmp	r3, r1
 8014350:	d112      	bne.n	8014378 <bot_rx+0x478>
 8014352:	4b5c      	ldr	r3, [pc, #368]	@ (80144c4 <bot_rx+0x5c4>)
 8014354:	2200      	movs	r2, #0
 8014356:	f8c3 2230 	str.w	r2, [r3, #560]	@ 0x230
 801435a:	2203      	movs	r2, #3
 801435c:	705a      	strb	r2, [r3, #1]
 801435e:	e5d8      	b.n	8013f12 <bot_rx+0x12>
 8014360:	2221      	movs	r2, #33	@ 0x21
 8014362:	2105      	movs	r1, #5
 8014364:	4620      	mov	r0, r4
 8014366:	f7ff fdb1 	bl	8013ecc <bot_error>
 801436a:	e5d2      	b.n	8013f12 <bot_rx+0x12>
 801436c:	2224      	movs	r2, #36	@ 0x24
 801436e:	2105      	movs	r1, #5
 8014370:	4620      	mov	r0, r4
 8014372:	f7ff fdab 	bl	8013ecc <bot_error>
 8014376:	e5cc      	b.n	8013f12 <bot_rx+0x12>
 8014378:	2220      	movs	r2, #32
 801437a:	2105      	movs	r1, #5
 801437c:	4620      	mov	r0, r4
 801437e:	f7ff fda5 	bl	8013ecc <bot_error>
 8014382:	e5c6      	b.n	8013f12 <bot_rx+0x12>
 8014384:	4b4e      	ldr	r3, [pc, #312]	@ (80144c0 <bot_rx+0x5c0>)
 8014386:	68db      	ldr	r3, [r3, #12]
 8014388:	4798      	blx	r3
 801438a:	4a4e      	ldr	r2, [pc, #312]	@ (80144c4 <bot_rx+0x5c4>)
 801438c:	7cd1      	ldrb	r1, [r2, #19]
 801438e:	7d13      	ldrb	r3, [r2, #20]
 8014390:	041b      	lsls	r3, r3, #16
 8014392:	ea43 6301 	orr.w	r3, r3, r1, lsl #24
 8014396:	7d51      	ldrb	r1, [r2, #21]
 8014398:	ea43 2301 	orr.w	r3, r3, r1, lsl #8
 801439c:	7d91      	ldrb	r1, [r2, #22]
 801439e:	430b      	orrs	r3, r1
 80143a0:	f8c2 3234 	str.w	r3, [r2, #564]	@ 0x234
 80143a4:	6802      	ldr	r2, [r0, #0]
 80143a6:	3a01      	subs	r2, #1
 80143a8:	4293      	cmp	r3, r2
 80143aa:	d80a      	bhi.n	80143c2 <bot_rx+0x4c2>
 80143ac:	4b45      	ldr	r3, [pc, #276]	@ (80144c4 <bot_rx+0x5c4>)
 80143ae:	7c9b      	ldrb	r3, [r3, #18]
 80143b0:	f013 0f02 	tst.w	r3, #2
 80143b4:	d00b      	beq.n	80143ce <bot_rx+0x4ce>
 80143b6:	2224      	movs	r2, #36	@ 0x24
 80143b8:	2105      	movs	r1, #5
 80143ba:	4620      	mov	r0, r4
 80143bc:	f7ff fd86 	bl	8013ecc <bot_error>
 80143c0:	e5a7      	b.n	8013f12 <bot_rx+0x12>
 80143c2:	2221      	movs	r2, #33	@ 0x21
 80143c4:	2105      	movs	r1, #5
 80143c6:	4620      	mov	r0, r4
 80143c8:	f7ff fd80 	bl	8013ecc <bot_error>
 80143cc:	e5a1      	b.n	8013f12 <bot_rx+0x12>
 80143ce:	4b3d      	ldr	r3, [pc, #244]	@ (80144c4 <bot_rx+0x5c4>)
 80143d0:	2204      	movs	r2, #4
 80143d2:	705a      	strb	r2, [r3, #1]
 80143d4:	2200      	movs	r2, #0
 80143d6:	f883 2029 	strb.w	r2, [r3, #41]	@ 0x29
 80143da:	f883 202a 	strb.w	r2, [r3, #42]	@ 0x2a
 80143de:	f883 202b 	strb.w	r2, [r3, #43]	@ 0x2b
 80143e2:	f883 202c 	strb.w	r2, [r3, #44]	@ 0x2c
 80143e6:	f883 202d 	strb.w	r2, [r3, #45]	@ 0x2d
 80143ea:	4620      	mov	r0, r4
 80143ec:	f7ff fce0 	bl	8013db0 <bot_tx>
 80143f0:	e58f      	b.n	8013f12 <bot_rx+0x12>
 80143f2:	2700      	movs	r7, #0
 80143f4:	9701      	str	r7, [sp, #4]
 80143f6:	9702      	str	r7, [sp, #8]
 80143f8:	9703      	str	r7, [sp, #12]
 80143fa:	4d32      	ldr	r5, [pc, #200]	@ (80144c4 <bot_rx+0x5c4>)
 80143fc:	7e2b      	ldrb	r3, [r5, #24]
 80143fe:	7e6a      	ldrb	r2, [r5, #25]
 8014400:	ea42 2603 	orr.w	r6, r2, r3, lsl #8
 8014404:	4b2e      	ldr	r3, [pc, #184]	@ (80144c0 <bot_rx+0x5c0>)
 8014406:	68db      	ldr	r3, [r3, #12]
 8014408:	4798      	blx	r3
 801440a:	2208      	movs	r2, #8
 801440c:	f88d 2007 	strb.w	r2, [sp, #7]
 8014410:	78c2      	ldrb	r2, [r0, #3]
 8014412:	f88d 2008 	strb.w	r2, [sp, #8]
 8014416:	8842      	ldrh	r2, [r0, #2]
 8014418:	f88d 2009 	strb.w	r2, [sp, #9]
 801441c:	6802      	ldr	r2, [r0, #0]
 801441e:	0a12      	lsrs	r2, r2, #8
 8014420:	f88d 200a 	strb.w	r2, [sp, #10]
 8014424:	6802      	ldr	r2, [r0, #0]
 8014426:	f88d 200b 	strb.w	r2, [sp, #11]
 801442a:	2202      	movs	r2, #2
 801442c:	f88d 200c 	strb.w	r2, [sp, #12]
 8014430:	88c2      	ldrh	r2, [r0, #6]
 8014432:	f88d 200d 	strb.w	r2, [sp, #13]
 8014436:	6842      	ldr	r2, [r0, #4]
 8014438:	0a12      	lsrs	r2, r2, #8
 801443a:	f88d 200e 	strb.w	r2, [sp, #14]
 801443e:	6843      	ldr	r3, [r0, #4]
 8014440:	f88d 300f 	strb.w	r3, [sp, #15]
 8014444:	4632      	mov	r2, r6
 8014446:	2e0c      	cmp	r6, #12
 8014448:	bf28      	it	cs
 801444a:	220c      	movcs	r2, #12
 801444c:	f8c5 2230 	str.w	r2, [r5, #560]	@ 0x230
 8014450:	a901      	add	r1, sp, #4
 8014452:	f105 0030 	add.w	r0, r5, #48	@ 0x30
 8014456:	f7fe f8a5 	bl	80125a4 <memcpy>
 801445a:	2301      	movs	r3, #1
 801445c:	706b      	strb	r3, [r5, #1]
 801445e:	f8d5 300a 	ldr.w	r3, [r5, #10]
 8014462:	f8d5 2230 	ldr.w	r2, [r5, #560]	@ 0x230
 8014466:	1a9b      	subs	r3, r3, r2
 8014468:	f8c5 3029 	str.w	r3, [r5, #41]	@ 0x29
 801446c:	f885 702d 	strb.w	r7, [r5, #45]	@ 0x2d
 8014470:	4620      	mov	r0, r4
 8014472:	f7ff fc9d 	bl	8013db0 <bot_tx>
 8014476:	e54c      	b.n	8013f12 <bot_rx+0x12>
 8014478:	4b12      	ldr	r3, [pc, #72]	@ (80144c4 <bot_rx+0x5c4>)
 801447a:	2204      	movs	r2, #4
 801447c:	705a      	strb	r2, [r3, #1]
 801447e:	2200      	movs	r2, #0
 8014480:	f883 2029 	strb.w	r2, [r3, #41]	@ 0x29
 8014484:	f883 202a 	strb.w	r2, [r3, #42]	@ 0x2a
 8014488:	f883 202b 	strb.w	r2, [r3, #43]	@ 0x2b
 801448c:	f883 202c 	strb.w	r2, [r3, #44]	@ 0x2c
 8014490:	f883 202d 	strb.w	r2, [r3, #45]	@ 0x2d
 8014494:	4620      	mov	r0, r4
 8014496:	f7ff fc8b 	bl	8013db0 <bot_tx>
 801449a:	e53a      	b.n	8013f12 <bot_rx+0x12>
 801449c:	4b09      	ldr	r3, [pc, #36]	@ (80144c4 <bot_rx+0x5c4>)
 801449e:	2204      	movs	r2, #4
 80144a0:	705a      	strb	r2, [r3, #1]
 80144a2:	2200      	movs	r2, #0
 80144a4:	f883 2029 	strb.w	r2, [r3, #41]	@ 0x29
 80144a8:	f883 202a 	strb.w	r2, [r3, #42]	@ 0x2a
 80144ac:	f883 202b 	strb.w	r2, [r3, #43]	@ 0x2b
 80144b0:	f883 202c 	strb.w	r2, [r3, #44]	@ 0x2c
 80144b4:	f883 202d 	strb.w	r2, [r3, #45]	@ 0x2d
 80144b8:	4620      	mov	r0, r4
 80144ba:	f7ff fc79 	bl	8013db0 <bot_tx>
 80144be:	e528      	b.n	8013f12 <bot_rx+0x12>
 80144c0:	08019eb0 	.word	0x08019eb0
 80144c4:	200001c4 	.word	0x200001c4
 80144c8:	2220      	movs	r2, #32
 80144ca:	2105      	movs	r1, #5
 80144cc:	4620      	mov	r0, r4
 80144ce:	f7ff fcfd 	bl	8013ecc <bot_error>
 80144d2:	e51e      	b.n	8013f12 <bot_rx+0x12>
 80144d4:	4d1f      	ldr	r5, [pc, #124]	@ (8014554 <bot_rx+0x654>)
 80144d6:	f8d5 1230 	ldr.w	r1, [r5, #560]	@ 0x230
 80144da:	f105 0030 	add.w	r0, r5, #48	@ 0x30
 80144de:	6823      	ldr	r3, [r4, #0]
 80144e0:	699b      	ldr	r3, [r3, #24]
 80144e2:	2240      	movs	r2, #64	@ 0x40
 80144e4:	4401      	add	r1, r0
 80144e6:	2001      	movs	r0, #1
 80144e8:	4798      	blx	r3
 80144ea:	f8d5 3230 	ldr.w	r3, [r5, #560]	@ 0x230
 80144ee:	4418      	add	r0, r3
 80144f0:	f8c5 0230 	str.w	r0, [r5, #560]	@ 0x230
 80144f4:	f5b0 7f00 	cmp.w	r0, #512	@ 0x200
 80144f8:	f47f ad0b 	bne.w	8013f12 <bot_rx+0x12>
 80144fc:	4b16      	ldr	r3, [pc, #88]	@ (8014558 <bot_rx+0x658>)
 80144fe:	689b      	ldr	r3, [r3, #8]
 8014500:	4814      	ldr	r0, [pc, #80]	@ (8014554 <bot_rx+0x654>)
 8014502:	2201      	movs	r2, #1
 8014504:	f8d0 1234 	ldr.w	r1, [r0, #564]	@ 0x234
 8014508:	3030      	adds	r0, #48	@ 0x30
 801450a:	4798      	blx	r3
 801450c:	280b      	cmp	r0, #11
 801450e:	d0f5      	beq.n	80144fc <bot_rx+0x5fc>
 8014510:	4b10      	ldr	r3, [pc, #64]	@ (8014554 <bot_rx+0x654>)
 8014512:	2200      	movs	r2, #0
 8014514:	f8c3 2230 	str.w	r2, [r3, #560]	@ 0x230
 8014518:	f8d3 2234 	ldr.w	r2, [r3, #564]	@ 0x234
 801451c:	3201      	adds	r2, #1
 801451e:	f8c3 2234 	str.w	r2, [r3, #564]	@ 0x234
 8014522:	f8d3 2238 	ldr.w	r2, [r3, #568]	@ 0x238
 8014526:	3a01      	subs	r2, #1
 8014528:	f8c3 2238 	str.w	r2, [r3, #568]	@ 0x238
 801452c:	2a00      	cmp	r2, #0
 801452e:	f47f acf0 	bne.w	8013f12 <bot_rx+0x12>
 8014532:	2204      	movs	r2, #4
 8014534:	705a      	strb	r2, [r3, #1]
 8014536:	2200      	movs	r2, #0
 8014538:	f883 2029 	strb.w	r2, [r3, #41]	@ 0x29
 801453c:	f883 202a 	strb.w	r2, [r3, #42]	@ 0x2a
 8014540:	f883 202b 	strb.w	r2, [r3, #43]	@ 0x2b
 8014544:	f883 202c 	strb.w	r2, [r3, #44]	@ 0x2c
 8014548:	f883 202d 	strb.w	r2, [r3, #45]	@ 0x2d
 801454c:	4620      	mov	r0, r4
 801454e:	f7ff fc2f 	bl	8013db0 <bot_tx>
 8014552:	e4de      	b.n	8013f12 <bot_rx+0x12>
 8014554:	200001c4 	.word	0x200001c4
 8014558:	08019eb0 	.word	0x08019eb0

0801455c <bot_callback>:
 801455c:	b508      	push	{r3, lr}
 801455e:	2904      	cmp	r1, #4
 8014560:	d002      	beq.n	8014568 <bot_callback+0xc>
 8014562:	2905      	cmp	r1, #5
 8014564:	d003      	beq.n	801456e <bot_callback+0x12>
 8014566:	bd08      	pop	{r3, pc}
 8014568:	f7ff fc22 	bl	8013db0 <bot_tx>
 801456c:	e7fb      	b.n	8014566 <bot_callback+0xa>
 801456e:	f7ff fcc7 	bl	8013f00 <bot_rx>
 8014572:	e7f8      	b.n	8014566 <bot_callback+0xa>

08014574 <msc_control>:
 8014574:	b508      	push	{r3, lr}
 8014576:	780b      	ldrb	r3, [r1, #0]
 8014578:	f003 0363 	and.w	r3, r3, #99	@ 0x63
 801457c:	2b21      	cmp	r3, #33	@ 0x21
 801457e:	d118      	bne.n	80145b2 <msc_control+0x3e>
 8014580:	784b      	ldrb	r3, [r1, #1]
 8014582:	2bfe      	cmp	r3, #254	@ 0xfe
 8014584:	d006      	beq.n	8014594 <msc_control+0x20>
 8014586:	2bff      	cmp	r3, #255	@ 0xff
 8014588:	d00b      	beq.n	80145a2 <msc_control+0x2e>
 801458a:	480b      	ldr	r0, [pc, #44]	@ (80145b8 <msc_control+0x44>)
 801458c:	f7fc fb7a 	bl	8010c84 <kprintf>
 8014590:	2000      	movs	r0, #0
 8014592:	e00f      	b.n	80145b4 <msc_control+0x40>
 8014594:	4b09      	ldr	r3, [pc, #36]	@ (80145bc <msc_control+0x48>)
 8014596:	6583      	str	r3, [r0, #88]	@ 0x58
 8014598:	2301      	movs	r3, #1
 801459a:	f8a0 305c 	strh.w	r3, [r0, #92]	@ 0x5c
 801459e:	4618      	mov	r0, r3
 80145a0:	e008      	b.n	80145b4 <msc_control+0x40>
 80145a2:	f44f 7210 	mov.w	r2, #576	@ 0x240
 80145a6:	2100      	movs	r1, #0
 80145a8:	4804      	ldr	r0, [pc, #16]	@ (80145bc <msc_control+0x48>)
 80145aa:	f7fd fff4 	bl	8012596 <memset>
 80145ae:	2001      	movs	r0, #1
 80145b0:	e000      	b.n	80145b4 <msc_control+0x40>
 80145b2:	2000      	movs	r0, #0
 80145b4:	bd08      	pop	{r3, pc}
 80145b6:	bf00      	nop
 80145b8:	0801a1e4 	.word	0x0801a1e4
 80145bc:	200001c4 	.word	0x200001c4

080145c0 <check_msc>:
 80145c0:	b510      	push	{r4, lr}
 80145c2:	2100      	movs	r1, #0
 80145c4:	4819      	ldr	r0, [pc, #100]	@ (801462c <check_msc+0x6c>)
 80145c6:	f7fe f9cd 	bl	8012964 <hw_get_pin>
 80145ca:	bb68      	cbnz	r0, 8014628 <check_msc+0x68>
 80145cc:	4c18      	ldr	r4, [pc, #96]	@ (8014630 <check_msc+0x70>)
 80145ce:	6823      	ldr	r3, [r4, #0]
 80145d0:	4798      	blx	r3
 80145d2:	68e3      	ldr	r3, [r4, #12]
 80145d4:	4798      	blx	r3
 80145d6:	4c17      	ldr	r4, [pc, #92]	@ (8014634 <check_msc+0x74>)
 80145d8:	f504 7010 	add.w	r0, r4, #576	@ 0x240
 80145dc:	f7ff f830 	bl	8013640 <usbd_hw_init>
 80145e0:	4b15      	ldr	r3, [pc, #84]	@ (8014638 <check_msc+0x78>)
 80145e2:	f8c4 3240 	str.w	r3, [r4, #576]	@ 0x240
 80145e6:	2240      	movs	r2, #64	@ 0x40
 80145e8:	f884 22a0 	strb.w	r2, [r4, #672]	@ 0x2a0
 80145ec:	f504 7229 	add.w	r2, r4, #676	@ 0x2a4
 80145f0:	f8c4 2298 	str.w	r2, [r4, #664]	@ 0x298
 80145f4:	f8c4 2294 	str.w	r2, [r4, #660]	@ 0x294
 80145f8:	2218      	movs	r2, #24
 80145fa:	f8a4 229e 	strh.w	r2, [r4, #670]	@ 0x29e
 80145fe:	4a0f      	ldr	r2, [pc, #60]	@ (801463c <check_msc+0x7c>)
 8014600:	f8c4 2244 	str.w	r2, [r4, #580]	@ 0x244
 8014604:	4a0e      	ldr	r2, [pc, #56]	@ (8014640 <check_msc+0x80>)
 8014606:	f8c4 224c 	str.w	r2, [r4, #588]	@ 0x24c
 801460a:	4a0e      	ldr	r2, [pc, #56]	@ (8014644 <check_msc+0x84>)
 801460c:	f8c4 2250 	str.w	r2, [r4, #592]	@ 0x250
 8014610:	685b      	ldr	r3, [r3, #4]
 8014612:	2001      	movs	r0, #1
 8014614:	4798      	blx	r3
 8014616:	f8d4 3240 	ldr.w	r3, [r4, #576]	@ 0x240
 801461a:	689b      	ldr	r3, [r3, #8]
 801461c:	2001      	movs	r0, #1
 801461e:	4798      	blx	r3
 8014620:	4809      	ldr	r0, [pc, #36]	@ (8014648 <check_msc+0x88>)
 8014622:	f7ff f805 	bl	8013630 <usbd_poll>
 8014626:	e7fb      	b.n	8014620 <check_msc+0x60>
 8014628:	bd10      	pop	{r4, pc}
 801462a:	bf00      	nop
 801462c:	40020000 	.word	0x40020000
 8014630:	08019eb0 	.word	0x08019eb0
 8014634:	200001c4 	.word	0x200001c4
 8014638:	08019c88 	.word	0x08019c88
 801463c:	08014575 	.word	0x08014575
 8014640:	08013d09 	.word	0x08013d09
 8014644:	08013d59 	.word	0x08013d59
 8014648:	20000404 	.word	0x20000404

0801464c <cdc_getdesc>:
 801464c:	8843      	ldrh	r3, [r0, #2]
 801464e:	0a18      	lsrs	r0, r3, #8
 8014650:	b2db      	uxtb	r3, r3
 8014652:	2802      	cmp	r0, #2
 8014654:	d012      	beq.n	801467c <cdc_getdesc+0x30>
 8014656:	2803      	cmp	r0, #3
 8014658:	d003      	beq.n	8014662 <cdc_getdesc+0x16>
 801465a:	2801      	cmp	r0, #1
 801465c:	d008      	beq.n	8014670 <cdc_getdesc+0x24>
 801465e:	2000      	movs	r0, #0
 8014660:	4770      	bx	lr
 8014662:	2b02      	cmp	r3, #2
 8014664:	d80d      	bhi.n	8014682 <cdc_getdesc+0x36>
 8014666:	4808      	ldr	r0, [pc, #32]	@ (8014688 <cdc_getdesc+0x3c>)
 8014668:	eb00 0383 	add.w	r3, r0, r3, lsl #2
 801466c:	6e1b      	ldr	r3, [r3, #96]	@ 0x60
 801466e:	e000      	b.n	8014672 <cdc_getdesc+0x26>
 8014670:	4b05      	ldr	r3, [pc, #20]	@ (8014688 <cdc_getdesc+0x3c>)
 8014672:	7818      	ldrb	r0, [r3, #0]
 8014674:	600b      	str	r3, [r1, #0]
 8014676:	8010      	strh	r0, [r2, #0]
 8014678:	2001      	movs	r0, #1
 801467a:	4770      	bx	lr
 801467c:	4b03      	ldr	r3, [pc, #12]	@ (801468c <cdc_getdesc+0x40>)
 801467e:	204b      	movs	r0, #75	@ 0x4b
 8014680:	e7f8      	b.n	8014674 <cdc_getdesc+0x28>
 8014682:	2000      	movs	r0, #0
 8014684:	4770      	bx	lr
 8014686:	bf00      	nop
 8014688:	08019d8c 	.word	0x08019d8c
 801468c:	08019da0 	.word	0x08019da0

08014690 <cdc_loopback>:
 8014690:	b510      	push	{r4, lr}
 8014692:	b672      	cpsid	i
 8014694:	6803      	ldr	r3, [r0, #0]
 8014696:	699b      	ldr	r3, [r3, #24]
 8014698:	4c12      	ldr	r4, [pc, #72]	@ (80146e4 <cdc_loopback+0x54>)
 801469a:	2240      	movs	r2, #64	@ 0x40
 801469c:	4621      	mov	r1, r4
 801469e:	2001      	movs	r0, #1
 80146a0:	4798      	blx	r3
 80146a2:	f8c4 0200 	str.w	r0, [r4, #512]	@ 0x200
 80146a6:	2100      	movs	r1, #0
 80146a8:	e004      	b.n	80146b4 <cdc_loopback+0x24>
 80146aa:	4b0e      	ldr	r3, [pc, #56]	@ (80146e4 <cdc_loopback+0x54>)
 80146ac:	2202      	movs	r2, #2
 80146ae:	f883 2248 	strb.w	r2, [r3, #584]	@ 0x248
 80146b2:	3101      	adds	r1, #1
 80146b4:	4281      	cmp	r1, r0
 80146b6:	da12      	bge.n	80146de <cdc_loopback+0x4e>
 80146b8:	4a0a      	ldr	r2, [pc, #40]	@ (80146e4 <cdc_loopback+0x54>)
 80146ba:	f892 3204 	ldrb.w	r3, [r2, #516]	@ 0x204
 80146be:	3301      	adds	r3, #1
 80146c0:	f003 033f 	and.w	r3, r3, #63	@ 0x3f
 80146c4:	f892 2205 	ldrb.w	r2, [r2, #517]	@ 0x205
 80146c8:	429a      	cmp	r2, r3
 80146ca:	d0ee      	beq.n	80146aa <cdc_loopback+0x1a>
 80146cc:	4a05      	ldr	r2, [pc, #20]	@ (80146e4 <cdc_loopback+0x54>)
 80146ce:	f882 3204 	strb.w	r3, [r2, #516]	@ 0x204
 80146d2:	f812 c001 	ldrb.w	ip, [r2, r1]
 80146d6:	441a      	add	r2, r3
 80146d8:	f882 c208 	strb.w	ip, [r2, #520]	@ 0x208
 80146dc:	e7e5      	b.n	80146aa <cdc_loopback+0x1a>
 80146de:	b662      	cpsie	i
 80146e0:	bd10      	pop	{r4, pc}
 80146e2:	bf00      	nop
 80146e4:	20000488 	.word	0x20000488

080146e8 <cdc_setconf>:
 80146e8:	b538      	push	{r3, r4, r5, lr}
 80146ea:	4604      	mov	r4, r0
 80146ec:	b121      	cbz	r1, 80146f8 <cdc_setconf+0x10>
 80146ee:	460d      	mov	r5, r1
 80146f0:	2901      	cmp	r1, #1
 80146f2:	d011      	beq.n	8014718 <cdc_setconf+0x30>
 80146f4:	2000      	movs	r0, #0
 80146f6:	bd38      	pop	{r3, r4, r5, pc}
 80146f8:	6803      	ldr	r3, [r0, #0]
 80146fa:	695b      	ldr	r3, [r3, #20]
 80146fc:	2082      	movs	r0, #130	@ 0x82
 80146fe:	4798      	blx	r3
 8014700:	6823      	ldr	r3, [r4, #0]
 8014702:	695b      	ldr	r3, [r3, #20]
 8014704:	2081      	movs	r0, #129	@ 0x81
 8014706:	4798      	blx	r3
 8014708:	6823      	ldr	r3, [r4, #0]
 801470a:	695b      	ldr	r3, [r3, #20]
 801470c:	2001      	movs	r0, #1
 801470e:	4798      	blx	r3
 8014710:	2300      	movs	r3, #0
 8014712:	63a3      	str	r3, [r4, #56]	@ 0x38
 8014714:	2001      	movs	r0, #1
 8014716:	e7ee      	b.n	80146f6 <cdc_setconf+0xe>
 8014718:	6803      	ldr	r3, [r0, #0]
 801471a:	691b      	ldr	r3, [r3, #16]
 801471c:	2240      	movs	r2, #64	@ 0x40
 801471e:	2102      	movs	r1, #2
 8014720:	2001      	movs	r0, #1
 8014722:	4798      	blx	r3
 8014724:	6823      	ldr	r3, [r4, #0]
 8014726:	691b      	ldr	r3, [r3, #16]
 8014728:	2240      	movs	r2, #64	@ 0x40
 801472a:	2102      	movs	r1, #2
 801472c:	2081      	movs	r0, #129	@ 0x81
 801472e:	4798      	blx	r3
 8014730:	6823      	ldr	r3, [r4, #0]
 8014732:	691b      	ldr	r3, [r3, #16]
 8014734:	2208      	movs	r2, #8
 8014736:	2103      	movs	r1, #3
 8014738:	2082      	movs	r0, #130	@ 0x82
 801473a:	4798      	blx	r3
 801473c:	4b01      	ldr	r3, [pc, #4]	@ (8014744 <cdc_setconf+0x5c>)
 801473e:	63a3      	str	r3, [r4, #56]	@ 0x38
 8014740:	4628      	mov	r0, r5
 8014742:	e7d8      	b.n	80146f6 <cdc_setconf+0xe>
 8014744:	08014691 	.word	0x08014691

08014748 <cdc_control>:
 8014748:	b508      	push	{r3, lr}
 801474a:	780b      	ldrb	r3, [r1, #0]
 801474c:	f003 0363 	and.w	r3, r3, #99	@ 0x63
 8014750:	2b21      	cmp	r3, #33	@ 0x21
 8014752:	d001      	beq.n	8014758 <cdc_control+0x10>
 8014754:	2000      	movs	r0, #0
 8014756:	bd08      	pop	{r3, pc}
 8014758:	888b      	ldrh	r3, [r1, #4]
 801475a:	b9b3      	cbnz	r3, 801478a <cdc_control+0x42>
 801475c:	784b      	ldrb	r3, [r1, #1]
 801475e:	2b21      	cmp	r3, #33	@ 0x21
 8014760:	d00c      	beq.n	801477c <cdc_control+0x34>
 8014762:	2b22      	cmp	r3, #34	@ 0x22
 8014764:	d013      	beq.n	801478e <cdc_control+0x46>
 8014766:	2b20      	cmp	r3, #32
 8014768:	d001      	beq.n	801476e <cdc_control+0x26>
 801476a:	2000      	movs	r0, #0
 801476c:	e7f3      	b.n	8014756 <cdc_control+0xe>
 801476e:	2207      	movs	r2, #7
 8014770:	3108      	adds	r1, #8
 8014772:	4808      	ldr	r0, [pc, #32]	@ (8014794 <cdc_control+0x4c>)
 8014774:	f7fd ff16 	bl	80125a4 <memcpy>
 8014778:	2001      	movs	r0, #1
 801477a:	e7ec      	b.n	8014756 <cdc_control+0xe>
 801477c:	4b05      	ldr	r3, [pc, #20]	@ (8014794 <cdc_control+0x4c>)
 801477e:	6583      	str	r3, [r0, #88]	@ 0x58
 8014780:	2307      	movs	r3, #7
 8014782:	f8a0 305c 	strh.w	r3, [r0, #92]	@ 0x5c
 8014786:	2001      	movs	r0, #1
 8014788:	e7e5      	b.n	8014756 <cdc_control+0xe>
 801478a:	2000      	movs	r0, #0
 801478c:	e7e3      	b.n	8014756 <cdc_control+0xe>
 801478e:	2001      	movs	r0, #1
 8014790:	e7e1      	b.n	8014756 <cdc_control+0xe>
 8014792:	bf00      	nop
 8014794:	20000084 	.word	0x20000084

08014798 <usb_available>:
 8014798:	4b04      	ldr	r3, [pc, #16]	@ (80147ac <usb_available+0x14>)
 801479a:	f893 0204 	ldrb.w	r0, [r3, #516]	@ 0x204
 801479e:	f893 3205 	ldrb.w	r3, [r3, #517]	@ 0x205
 80147a2:	1ac0      	subs	r0, r0, r3
 80147a4:	f000 003f 	and.w	r0, r0, #63	@ 0x3f
 80147a8:	4770      	bx	lr
 80147aa:	bf00      	nop
 80147ac:	20000488 	.word	0x20000488

080147b0 <usb_getc>:
 80147b0:	4b0c      	ldr	r3, [pc, #48]	@ (80147e4 <usb_getc+0x34>)
 80147b2:	f893 2204 	ldrb.w	r2, [r3, #516]	@ 0x204
 80147b6:	f893 3205 	ldrb.w	r3, [r3, #517]	@ 0x205
 80147ba:	429a      	cmp	r2, r3
 80147bc:	d00e      	beq.n	80147dc <usb_getc+0x2c>
 80147be:	3301      	adds	r3, #1
 80147c0:	f003 033f 	and.w	r3, r3, #63	@ 0x3f
 80147c4:	4a07      	ldr	r2, [pc, #28]	@ (80147e4 <usb_getc+0x34>)
 80147c6:	f882 3205 	strb.w	r3, [r2, #517]	@ 0x205
 80147ca:	4413      	add	r3, r2
 80147cc:	f893 0208 	ldrb.w	r0, [r3, #520]	@ 0x208
 80147d0:	f892 3248 	ldrb.w	r3, [r2, #584]	@ 0x248
 80147d4:	eb00 2003 	add.w	r0, r0, r3, lsl #8
 80147d8:	b280      	uxth	r0, r0
 80147da:	4770      	bx	lr
 80147dc:	f44f 7080 	mov.w	r0, #256	@ 0x100
 80147e0:	4770      	bx	lr
 80147e2:	bf00      	nop
 80147e4:	20000488 	.word	0x20000488

080147e8 <readBytes>:
 80147e8:	b570      	push	{r4, r5, r6, lr}
 80147ea:	4604      	mov	r4, r0
 80147ec:	460e      	mov	r6, r1
 80147ee:	2500      	movs	r5, #0
 80147f0:	e008      	b.n	8014804 <readBytes+0x1c>
 80147f2:	f7ff ffdd 	bl	80147b0 <usb_getc>
 80147f6:	f804 0b01 	strb.w	r0, [r4], #1
 80147fa:	3501      	adds	r5, #1
 80147fc:	b2ed      	uxtb	r5, r5
 80147fe:	2005      	movs	r0, #5
 8014800:	f004 ff72 	bl	80196e8 <delay>
 8014804:	42b5      	cmp	r5, r6
 8014806:	d3f4      	bcc.n	80147f2 <readBytes+0xa>
 8014808:	4628      	mov	r0, r5
 801480a:	bd70      	pop	{r4, r5, r6, pc}

0801480c <cdc_init_usbd>:
 801480c:	4b11      	ldr	r3, [pc, #68]	@ (8014854 <cdc_init_usbd+0x48>)
 801480e:	4a12      	ldr	r2, [pc, #72]	@ (8014858 <cdc_init_usbd+0x4c>)
 8014810:	f8c3 224c 	str.w	r2, [r3, #588]	@ 0x24c
 8014814:	2208      	movs	r2, #8
 8014816:	f883 22ac 	strb.w	r2, [r3, #684]	@ 0x2ac
 801481a:	f503 722c 	add.w	r2, r3, #688	@ 0x2b0
 801481e:	f8c3 22a4 	str.w	r2, [r3, #676]	@ 0x2a4
 8014822:	f8c3 22a0 	str.w	r2, [r3, #672]	@ 0x2a0
 8014826:	2278      	movs	r2, #120	@ 0x78
 8014828:	f8a3 22aa 	strh.w	r2, [r3, #682]	@ 0x2aa
 801482c:	4a0b      	ldr	r2, [pc, #44]	@ (801485c <cdc_init_usbd+0x50>)
 801482e:	f8c3 2258 	str.w	r2, [r3, #600]	@ 0x258
 8014832:	4a0b      	ldr	r2, [pc, #44]	@ (8014860 <cdc_init_usbd+0x54>)
 8014834:	f8c3 2250 	str.w	r2, [r3, #592]	@ 0x250
 8014838:	4a0a      	ldr	r2, [pc, #40]	@ (8014864 <cdc_init_usbd+0x58>)
 801483a:	f8c3 225c 	str.w	r2, [r3, #604]	@ 0x25c
 801483e:	2200      	movs	r2, #0
 8014840:	f883 2330 	strb.w	r2, [r3, #816]	@ 0x330
 8014844:	f883 2331 	strb.w	r2, [r3, #817]	@ 0x331
 8014848:	f883 2204 	strb.w	r2, [r3, #516]	@ 0x204
 801484c:	f883 2205 	strb.w	r2, [r3, #517]	@ 0x205
 8014850:	4770      	bx	lr
 8014852:	bf00      	nop
 8014854:	20000488 	.word	0x20000488
 8014858:	08019c88 	.word	0x08019c88
 801485c:	080146e9 	.word	0x080146e9
 8014860:	08014749 	.word	0x08014749
 8014864:	0801464d 	.word	0x0801464d

08014868 <OTG_FS_Handler>:
 8014868:	b508      	push	{r3, lr}
 801486a:	b672      	cpsid	i
 801486c:	4802      	ldr	r0, [pc, #8]	@ (8014878 <OTG_FS_Handler+0x10>)
 801486e:	f7fe fedf 	bl	8013630 <usbd_poll>
 8014872:	b662      	cpsie	i
 8014874:	bd08      	pop	{r3, pc}
 8014876:	bf00      	nop
 8014878:	200006d4 	.word	0x200006d4

0801487c <sd_init>:
 801487c:	b510      	push	{r4, lr}
 801487e:	4c03      	ldr	r4, [pc, #12]	@ (801488c <sd_init+0x10>)
 8014880:	6823      	ldr	r3, [r4, #0]
 8014882:	4798      	blx	r3
 8014884:	68e3      	ldr	r3, [r4, #12]
 8014886:	4798      	blx	r3
 8014888:	6800      	ldr	r0, [r0, #0]
 801488a:	bd10      	pop	{r4, pc}
 801488c:	08019eb0 	.word	0x08019eb0

08014890 <sd_readsector>:
 8014890:	b508      	push	{r3, lr}
 8014892:	4684      	mov	ip, r0
 8014894:	4608      	mov	r0, r1
 8014896:	4b03      	ldr	r3, [pc, #12]	@ (80148a4 <sd_readsector+0x14>)
 8014898:	685b      	ldr	r3, [r3, #4]
 801489a:	4661      	mov	r1, ip
 801489c:	4798      	blx	r3
 801489e:	2001      	movs	r0, #1
 80148a0:	bd08      	pop	{r3, pc}
 80148a2:	bf00      	nop
 80148a4:	08019eb0 	.word	0x08019eb0

080148a8 <sd_writesector>:
 80148a8:	b508      	push	{r3, lr}
 80148aa:	4684      	mov	ip, r0
 80148ac:	4608      	mov	r0, r1
 80148ae:	4b03      	ldr	r3, [pc, #12]	@ (80148bc <sd_writesector+0x14>)
 80148b0:	689b      	ldr	r3, [r3, #8]
 80148b2:	4661      	mov	r1, ip
 80148b4:	4798      	blx	r3
 80148b6:	2001      	movs	r0, #1
 80148b8:	bd08      	pop	{r3, pc}
 80148ba:	bf00      	nop
 80148bc:	08019eb0 	.word	0x08019eb0

080148c0 <fatfs_init>:
 80148c0:	e92d 47f0 	stmdb	sp!, {r4, r5, r6, r7, r8, r9, sl, lr}
 80148c4:	4604      	mov	r4, r0
 80148c6:	f04f 33ff 	mov.w	r3, #4294967295	@ 0xffffffff
 80148ca:	f8c0 3240 	str.w	r3, [r0, #576]	@ 0x240
 80148ce:	2300      	movs	r3, #0
 80148d0:	f8c0 3244 	str.w	r3, [r0, #580]	@ 0x244
 80148d4:	6243      	str	r3, [r0, #36]	@ 0x24
 80148d6:	f002 fc2d 	bl	8017134 <fatfs_fat_init>
 80148da:	6b23      	ldr	r3, [r4, #48]	@ 0x30
 80148dc:	2b00      	cmp	r3, #0
 80148de:	f000 80f8 	beq.w	8014ad2 <fatfs_init+0x212>
 80148e2:	f104 0540 	add.w	r5, r4, #64	@ 0x40
 80148e6:	2201      	movs	r2, #1
 80148e8:	4629      	mov	r1, r5
 80148ea:	2000      	movs	r0, #0
 80148ec:	4798      	blx	r3
 80148ee:	2800      	cmp	r0, #0
 80148f0:	f000 80f2 	beq.w	8014ad8 <fatfs_init+0x218>
 80148f4:	f8b4 223e 	ldrh.w	r2, [r4, #574]	@ 0x23e
 80148f8:	f64a 2355 	movw	r3, #43605	@ 0xaa55
 80148fc:	429a      	cmp	r2, r3
 80148fe:	f040 80ee 	bne.w	8014ade <fatfs_init+0x21e>
 8014902:	f894 223f 	ldrb.w	r2, [r4, #575]	@ 0x23f
 8014906:	f894 323e 	ldrb.w	r3, [r4, #574]	@ 0x23e
 801490a:	eb03 2302 	add.w	r3, r3, r2, lsl #8
 801490e:	f64a 2255 	movw	r2, #43605	@ 0xaa55
 8014912:	4293      	cmp	r3, r2
 8014914:	f040 80e6 	bne.w	8014ae4 <fatfs_init+0x224>
 8014918:	f894 3202 	ldrb.w	r3, [r4, #514]	@ 0x202
 801491c:	2b0f      	cmp	r3, #15
 801491e:	d809      	bhi.n	8014934 <fatfs_init+0x74>
 8014920:	e8df f003 	tbb	[pc, r3]
 8014924:	080808b0 	.word	0x080808b0
 8014928:	080b0b08 	.word	0x080b0b08
 801492c:	0b080808 	.word	0x0b080808
 8014930:	0b0b080b 	.word	0x0b0b080b
 8014934:	2b06      	cmp	r3, #6
 8014936:	f200 80a5 	bhi.w	8014a84 <fatfs_init+0x1c4>
 801493a:	f894 2209 	ldrb.w	r2, [r4, #521]	@ 0x209
 801493e:	f894 3208 	ldrb.w	r3, [r4, #520]	@ 0x208
 8014942:	041b      	lsls	r3, r3, #16
 8014944:	eb03 6302 	add.w	r3, r3, r2, lsl #24
 8014948:	f894 2207 	ldrb.w	r2, [r4, #519]	@ 0x207
 801494c:	eb03 2302 	add.w	r3, r3, r2, lsl #8
 8014950:	f894 2206 	ldrb.w	r2, [r4, #518]	@ 0x206
 8014954:	4413      	add	r3, r2
 8014956:	61e3      	str	r3, [r4, #28]
 8014958:	6b23      	ldr	r3, [r4, #48]	@ 0x30
 801495a:	2201      	movs	r2, #1
 801495c:	4629      	mov	r1, r5
 801495e:	69e0      	ldr	r0, [r4, #28]
 8014960:	4798      	blx	r3
 8014962:	2800      	cmp	r0, #0
 8014964:	f000 80c1 	beq.w	8014aea <fatfs_init+0x22a>
 8014968:	f894 304c 	ldrb.w	r3, [r4, #76]	@ 0x4c
 801496c:	f894 704b 	ldrb.w	r7, [r4, #75]	@ 0x4b
 8014970:	eb07 2703 	add.w	r7, r7, r3, lsl #8
 8014974:	f5b7 7f00 	cmp.w	r7, #512	@ 0x200
 8014978:	f040 80ba 	bne.w	8014af0 <fatfs_init+0x230>
 801497c:	f894 004d 	ldrb.w	r0, [r4, #77]	@ 0x4d
 8014980:	7020      	strb	r0, [r4, #0]
 8014982:	f894 e04f 	ldrb.w	lr, [r4, #79]	@ 0x4f
 8014986:	f894 104e 	ldrb.w	r1, [r4, #78]	@ 0x4e
 801498a:	eb01 260e 	add.w	r6, r1, lr, lsl #8
 801498e:	b2b6      	uxth	r6, r6
 8014990:	f894 c050 	ldrb.w	ip, [r4, #80]	@ 0x50
 8014994:	f894 9052 	ldrb.w	r9, [r4, #82]	@ 0x52
 8014998:	f894 8051 	ldrb.w	r8, [r4, #81]	@ 0x51
 801499c:	eb08 2209 	add.w	r2, r8, r9, lsl #8
 80149a0:	b292      	uxth	r2, r2
 80149a2:	8522      	strh	r2, [r4, #40]	@ 0x28
 80149a4:	f894 5057 	ldrb.w	r5, [r4, #87]	@ 0x57
 80149a8:	f894 3056 	ldrb.w	r3, [r4, #86]	@ 0x56
 80149ac:	eb13 2305 	adds.w	r3, r3, r5, lsl #8
 80149b0:	d06b      	beq.n	8014a8a <fatfs_init+0x1ca>
 80149b2:	6223      	str	r3, [r4, #32]
 80149b4:	f894 a06f 	ldrb.w	sl, [r4, #111]	@ 0x6f
 80149b8:	f894 506e 	ldrb.w	r5, [r4, #110]	@ 0x6e
 80149bc:	042d      	lsls	r5, r5, #16
 80149be:	eb05 650a 	add.w	r5, r5, sl, lsl #24
 80149c2:	f894 a06d 	ldrb.w	sl, [r4, #109]	@ 0x6d
 80149c6:	eb05 250a 	add.w	r5, r5, sl, lsl #8
 80149ca:	f894 a06c 	ldrb.w	sl, [r4, #108]	@ 0x6c
 80149ce:	4455      	add	r5, sl
 80149d0:	60a5      	str	r5, [r4, #8]
 80149d2:	f894 a071 	ldrb.w	sl, [r4, #113]	@ 0x71
 80149d6:	f894 5070 	ldrb.w	r5, [r4, #112]	@ 0x70
 80149da:	eb05 250a 	add.w	r5, r5, sl, lsl #8
 80149de:	8325      	strh	r5, [r4, #24]
 80149e0:	6a25      	ldr	r5, [r4, #32]
 80149e2:	fb05 f50c 	mul.w	r5, r5, ip
 80149e6:	eb06 0a05 	add.w	sl, r6, r5
 80149ea:	f8c4 a00c 	str.w	sl, [r4, #12]
 80149ee:	0152      	lsls	r2, r2, #5
 80149f0:	f202 12ff 	addw	r2, r2, #511	@ 0x1ff
 80149f4:	1252      	asrs	r2, r2, #9
 80149f6:	6122      	str	r2, [r4, #16]
 80149f8:	69e2      	ldr	r2, [r4, #28]
 80149fa:	4416      	add	r6, r2
 80149fc:	6166      	str	r6, [r4, #20]
 80149fe:	4435      	add	r5, r6
 8014a00:	6065      	str	r5, [r4, #4]
 8014a02:	f894 523f 	ldrb.w	r5, [r4, #575]	@ 0x23f
 8014a06:	f894 223e 	ldrb.w	r2, [r4, #574]	@ 0x23e
 8014a0a:	eb02 2205 	add.w	r2, r2, r5, lsl #8
 8014a0e:	f64a 2555 	movw	r5, #43605	@ 0xaa55
 8014a12:	42aa      	cmp	r2, r5
 8014a14:	d16f      	bne.n	8014af6 <fatfs_init+0x236>
 8014a16:	eb08 2809 	add.w	r8, r8, r9, lsl #8
 8014a1a:	1e7a      	subs	r2, r7, #1
 8014a1c:	eb02 1248 	add.w	r2, r2, r8, lsl #5
 8014a20:	fb92 f2f7 	sdiv	r2, r2, r7
 8014a24:	2b00      	cmp	r3, #0
 8014a26:	d040      	beq.n	8014aaa <fatfs_init+0x1ea>
 8014a28:	461d      	mov	r5, r3
 8014a2a:	f894 6054 	ldrb.w	r6, [r4, #84]	@ 0x54
 8014a2e:	f894 3053 	ldrb.w	r3, [r4, #83]	@ 0x53
 8014a32:	eb13 2306 	adds.w	r3, r3, r6, lsl #8
 8014a36:	d10d      	bne.n	8014a54 <fatfs_init+0x194>
 8014a38:	f894 6063 	ldrb.w	r6, [r4, #99]	@ 0x63
 8014a3c:	f894 3062 	ldrb.w	r3, [r4, #98]	@ 0x62
 8014a40:	041b      	lsls	r3, r3, #16
 8014a42:	eb03 6306 	add.w	r3, r3, r6, lsl #24
 8014a46:	f894 6061 	ldrb.w	r6, [r4, #97]	@ 0x61
 8014a4a:	eb03 2306 	add.w	r3, r3, r6, lsl #8
 8014a4e:	f894 6060 	ldrb.w	r6, [r4, #96]	@ 0x60
 8014a52:	4433      	add	r3, r6
 8014a54:	eb01 210e 	add.w	r1, r1, lr, lsl #8
 8014a58:	fb05 110c 	mla	r1, r5, ip, r1
 8014a5c:	4411      	add	r1, r2
 8014a5e:	1a5b      	subs	r3, r3, r1
 8014a60:	2800      	cmp	r0, #0
 8014a62:	d04b      	beq.n	8014afc <fatfs_init+0x23c>
 8014a64:	fbb3 f3f0 	udiv	r3, r3, r0
 8014a68:	f640 72f4 	movw	r2, #4084	@ 0xff4
 8014a6c:	4293      	cmp	r3, r2
 8014a6e:	d948      	bls.n	8014b02 <fatfs_init+0x242>
 8014a70:	f64f 72f4 	movw	r2, #65524	@ 0xfff4
 8014a74:	4293      	cmp	r3, r2
 8014a76:	d827      	bhi.n	8014ac8 <fatfs_init+0x208>
 8014a78:	2000      	movs	r0, #0
 8014a7a:	60a0      	str	r0, [r4, #8]
 8014a7c:	f884 002d 	strb.w	r0, [r4, #45]	@ 0x2d
 8014a80:	e8bd 87f0 	ldmia.w	sp!, {r4, r5, r6, r7, r8, r9, sl, pc}
 8014a84:	2300      	movs	r3, #0
 8014a86:	61e3      	str	r3, [r4, #28]
 8014a88:	e766      	b.n	8014958 <fatfs_init+0x98>
 8014a8a:	f894 a067 	ldrb.w	sl, [r4, #103]	@ 0x67
 8014a8e:	f894 5066 	ldrb.w	r5, [r4, #102]	@ 0x66
 8014a92:	042d      	lsls	r5, r5, #16
 8014a94:	eb05 650a 	add.w	r5, r5, sl, lsl #24
 8014a98:	f894 a065 	ldrb.w	sl, [r4, #101]	@ 0x65
 8014a9c:	eb05 250a 	add.w	r5, r5, sl, lsl #8
 8014aa0:	f894 a064 	ldrb.w	sl, [r4, #100]	@ 0x64
 8014aa4:	4455      	add	r5, sl
 8014aa6:	6225      	str	r5, [r4, #32]
 8014aa8:	e784      	b.n	80149b4 <fatfs_init+0xf4>
 8014aaa:	f894 5067 	ldrb.w	r5, [r4, #103]	@ 0x67
 8014aae:	f894 3066 	ldrb.w	r3, [r4, #102]	@ 0x66
 8014ab2:	041b      	lsls	r3, r3, #16
 8014ab4:	eb03 6305 	add.w	r3, r3, r5, lsl #24
 8014ab8:	f894 5065 	ldrb.w	r5, [r4, #101]	@ 0x65
 8014abc:	eb03 2305 	add.w	r3, r3, r5, lsl #8
 8014ac0:	f894 5064 	ldrb.w	r5, [r4, #100]	@ 0x64
 8014ac4:	441d      	add	r5, r3
 8014ac6:	e7b0      	b.n	8014a2a <fatfs_init+0x16a>
 8014ac8:	2301      	movs	r3, #1
 8014aca:	f884 302d 	strb.w	r3, [r4, #45]	@ 0x2d
 8014ace:	2000      	movs	r0, #0
 8014ad0:	e7d6      	b.n	8014a80 <fatfs_init+0x1c0>
 8014ad2:	f04f 30ff 	mov.w	r0, #4294967295	@ 0xffffffff
 8014ad6:	e7d3      	b.n	8014a80 <fatfs_init+0x1c0>
 8014ad8:	f04f 30ff 	mov.w	r0, #4294967295	@ 0xffffffff
 8014adc:	e7d0      	b.n	8014a80 <fatfs_init+0x1c0>
 8014ade:	f06f 0002 	mvn.w	r0, #2
 8014ae2:	e7cd      	b.n	8014a80 <fatfs_init+0x1c0>
 8014ae4:	f06f 0003 	mvn.w	r0, #3
 8014ae8:	e7ca      	b.n	8014a80 <fatfs_init+0x1c0>
 8014aea:	f04f 30ff 	mov.w	r0, #4294967295	@ 0xffffffff
 8014aee:	e7c7      	b.n	8014a80 <fatfs_init+0x1c0>
 8014af0:	f06f 0001 	mvn.w	r0, #1
 8014af4:	e7c4      	b.n	8014a80 <fatfs_init+0x1c0>
 8014af6:	f06f 0002 	mvn.w	r0, #2
 8014afa:	e7c1      	b.n	8014a80 <fatfs_init+0x1c0>
 8014afc:	f06f 0004 	mvn.w	r0, #4
 8014b00:	e7be      	b.n	8014a80 <fatfs_init+0x1c0>
 8014b02:	f06f 0004 	mvn.w	r0, #4
 8014b06:	e7bb      	b.n	8014a80 <fatfs_init+0x1c0>

08014b08 <fatfs_lba_of_cluster>:
 8014b08:	f890 302d 	ldrb.w	r3, [r0, #45]	@ 0x2d
 8014b0c:	b943      	cbnz	r3, 8014b20 <fatfs_lba_of_cluster+0x18>
 8014b0e:	6843      	ldr	r3, [r0, #4]
 8014b10:	8d02      	ldrh	r2, [r0, #40]	@ 0x28
 8014b12:	eb03 1322 	add.w	r3, r3, r2, asr #4
 8014b16:	3902      	subs	r1, #2
 8014b18:	7802      	ldrb	r2, [r0, #0]
 8014b1a:	fb02 3001 	mla	r0, r2, r1, r3
 8014b1e:	4770      	bx	lr
 8014b20:	6843      	ldr	r3, [r0, #4]
 8014b22:	3902      	subs	r1, #2
 8014b24:	7802      	ldrb	r2, [r0, #0]
 8014b26:	fb02 3001 	mla	r0, r2, r1, r3
 8014b2a:	4770      	bx	lr

08014b2c <fatfs_sector_read>:
 8014b2c:	b510      	push	{r4, lr}
 8014b2e:	4604      	mov	r4, r0
 8014b30:	4608      	mov	r0, r1
 8014b32:	4611      	mov	r1, r2
 8014b34:	6b24      	ldr	r4, [r4, #48]	@ 0x30
 8014b36:	461a      	mov	r2, r3
 8014b38:	47a0      	blx	r4
 8014b3a:	bd10      	pop	{r4, pc}

08014b3c <fatfs_sector_write>:
 8014b3c:	b510      	push	{r4, lr}
 8014b3e:	4604      	mov	r4, r0
 8014b40:	4608      	mov	r0, r1
 8014b42:	4611      	mov	r1, r2
 8014b44:	6b64      	ldr	r4, [r4, #52]	@ 0x34
 8014b46:	461a      	mov	r2, r3
 8014b48:	47a0      	blx	r4
 8014b4a:	bd10      	pop	{r4, pc}

08014b4c <fatfs_sector_reader>:
 8014b4c:	e92d 41f0 	stmdb	sp!, {r4, r5, r6, r7, r8, lr}
 8014b50:	4605      	mov	r5, r0
 8014b52:	4698      	mov	r8, r3
 8014b54:	f890 302d 	ldrb.w	r3, [r0, #45]	@ 0x2d
 8014b58:	b943      	cbnz	r3, 8014b6c <fatfs_sector_reader+0x20>
 8014b5a:	b939      	cbnz	r1, 8014b6c <fatfs_sector_reader+0x20>
 8014b5c:	6903      	ldr	r3, [r0, #16]
 8014b5e:	4293      	cmp	r3, r2
 8014b60:	d92e      	bls.n	8014bc0 <fatfs_sector_reader+0x74>
 8014b62:	69c0      	ldr	r0, [r0, #28]
 8014b64:	68eb      	ldr	r3, [r5, #12]
 8014b66:	4418      	add	r0, r3
 8014b68:	4410      	add	r0, r2
 8014b6a:	e014      	b.n	8014b96 <fatfs_sector_reader+0x4a>
 8014b6c:	782b      	ldrb	r3, [r5, #0]
 8014b6e:	fbb2 f6f3 	udiv	r6, r2, r3
 8014b72:	fb06 2713 	mls	r7, r6, r3, r2
 8014b76:	2400      	movs	r4, #0
 8014b78:	e004      	b.n	8014b84 <fatfs_sector_reader+0x38>
 8014b7a:	4628      	mov	r0, r5
 8014b7c:	f002 fb1e 	bl	80171bc <fatfs_find_next_cluster>
 8014b80:	4601      	mov	r1, r0
 8014b82:	3401      	adds	r4, #1
 8014b84:	42b4      	cmp	r4, r6
 8014b86:	d3f8      	bcc.n	8014b7a <fatfs_sector_reader+0x2e>
 8014b88:	f1b1 3fff 	cmp.w	r1, #4294967295	@ 0xffffffff
 8014b8c:	d01a      	beq.n	8014bc4 <fatfs_sector_reader+0x78>
 8014b8e:	4628      	mov	r0, r5
 8014b90:	f7ff ffba 	bl	8014b08 <fatfs_lba_of_cluster>
 8014b94:	4438      	add	r0, r7
 8014b96:	f1b8 0f00 	cmp.w	r8, #0
 8014b9a:	d005      	beq.n	8014ba8 <fatfs_sector_reader+0x5c>
 8014b9c:	6b2b      	ldr	r3, [r5, #48]	@ 0x30
 8014b9e:	2201      	movs	r2, #1
 8014ba0:	4641      	mov	r1, r8
 8014ba2:	4798      	blx	r3
 8014ba4:	e8bd 81f0 	ldmia.w	sp!, {r4, r5, r6, r7, r8, pc}
 8014ba8:	f8d5 3240 	ldr.w	r3, [r5, #576]	@ 0x240
 8014bac:	4283      	cmp	r3, r0
 8014bae:	d00b      	beq.n	8014bc8 <fatfs_sector_reader+0x7c>
 8014bb0:	f8c5 0240 	str.w	r0, [r5, #576]	@ 0x240
 8014bb4:	6b2b      	ldr	r3, [r5, #48]	@ 0x30
 8014bb6:	2201      	movs	r2, #1
 8014bb8:	f105 0140 	add.w	r1, r5, #64	@ 0x40
 8014bbc:	4798      	blx	r3
 8014bbe:	e7f1      	b.n	8014ba4 <fatfs_sector_reader+0x58>
 8014bc0:	2000      	movs	r0, #0
 8014bc2:	e7ef      	b.n	8014ba4 <fatfs_sector_reader+0x58>
 8014bc4:	2000      	movs	r0, #0
 8014bc6:	e7ed      	b.n	8014ba4 <fatfs_sector_reader+0x58>
 8014bc8:	2001      	movs	r0, #1
 8014bca:	e7eb      	b.n	8014ba4 <fatfs_sector_reader+0x58>

08014bcc <fatfs_read_sector>:
 8014bcc:	b570      	push	{r4, r5, r6, lr}
 8014bce:	4604      	mov	r4, r0
 8014bd0:	4616      	mov	r6, r2
 8014bd2:	461d      	mov	r5, r3
 8014bd4:	f890 302d 	ldrb.w	r3, [r0, #45]	@ 0x2d
 8014bd8:	b9ab      	cbnz	r3, 8014c06 <fatfs_read_sector+0x3a>
 8014bda:	b9a1      	cbnz	r1, 8014c06 <fatfs_read_sector+0x3a>
 8014bdc:	6903      	ldr	r3, [r0, #16]
 8014bde:	4293      	cmp	r3, r2
 8014be0:	d927      	bls.n	8014c32 <fatfs_read_sector+0x66>
 8014be2:	69c0      	ldr	r0, [r0, #28]
 8014be4:	68e3      	ldr	r3, [r4, #12]
 8014be6:	4418      	add	r0, r3
 8014be8:	4410      	add	r0, r2
 8014bea:	b125      	cbz	r5, 8014bf6 <fatfs_read_sector+0x2a>
 8014bec:	6b23      	ldr	r3, [r4, #48]	@ 0x30
 8014bee:	2201      	movs	r2, #1
 8014bf0:	4629      	mov	r1, r5
 8014bf2:	4798      	blx	r3
 8014bf4:	e010      	b.n	8014c18 <fatfs_read_sector+0x4c>
 8014bf6:	f8c4 0240 	str.w	r0, [r4, #576]	@ 0x240
 8014bfa:	6b23      	ldr	r3, [r4, #48]	@ 0x30
 8014bfc:	2201      	movs	r2, #1
 8014bfe:	f104 0140 	add.w	r1, r4, #64	@ 0x40
 8014c02:	4798      	blx	r3
 8014c04:	e008      	b.n	8014c18 <fatfs_read_sector+0x4c>
 8014c06:	b145      	cbz	r5, 8014c1a <fatfs_read_sector+0x4e>
 8014c08:	4620      	mov	r0, r4
 8014c0a:	f7ff ff7d 	bl	8014b08 <fatfs_lba_of_cluster>
 8014c0e:	6b23      	ldr	r3, [r4, #48]	@ 0x30
 8014c10:	2201      	movs	r2, #1
 8014c12:	4629      	mov	r1, r5
 8014c14:	4430      	add	r0, r6
 8014c16:	4798      	blx	r3
 8014c18:	bd70      	pop	{r4, r5, r6, pc}
 8014c1a:	4620      	mov	r0, r4
 8014c1c:	f7ff ff74 	bl	8014b08 <fatfs_lba_of_cluster>
 8014c20:	4430      	add	r0, r6
 8014c22:	f8c4 0240 	str.w	r0, [r4, #576]	@ 0x240
 8014c26:	6b23      	ldr	r3, [r4, #48]	@ 0x30
 8014c28:	2201      	movs	r2, #1
 8014c2a:	f104 0140 	add.w	r1, r4, #64	@ 0x40
 8014c2e:	4798      	blx	r3
 8014c30:	e7f2      	b.n	8014c18 <fatfs_read_sector+0x4c>
 8014c32:	2000      	movs	r0, #0
 8014c34:	e7f0      	b.n	8014c18 <fatfs_read_sector+0x4c>

08014c36 <fatfs_write_sector>:
 8014c36:	b5f8      	push	{r3, r4, r5, r6, r7, lr}
 8014c38:	6b46      	ldr	r6, [r0, #52]	@ 0x34
 8014c3a:	b36e      	cbz	r6, 8014c98 <fatfs_write_sector+0x62>
 8014c3c:	4604      	mov	r4, r0
 8014c3e:	4617      	mov	r7, r2
 8014c40:	461d      	mov	r5, r3
 8014c42:	f890 302d 	ldrb.w	r3, [r0, #45]	@ 0x2d
 8014c46:	b99b      	cbnz	r3, 8014c70 <fatfs_write_sector+0x3a>
 8014c48:	b991      	cbnz	r1, 8014c70 <fatfs_write_sector+0x3a>
 8014c4a:	6903      	ldr	r3, [r0, #16]
 8014c4c:	4293      	cmp	r3, r2
 8014c4e:	d925      	bls.n	8014c9c <fatfs_write_sector+0x66>
 8014c50:	69c0      	ldr	r0, [r0, #28]
 8014c52:	68e3      	ldr	r3, [r4, #12]
 8014c54:	4418      	add	r0, r3
 8014c56:	4410      	add	r0, r2
 8014c58:	b11d      	cbz	r5, 8014c62 <fatfs_write_sector+0x2c>
 8014c5a:	2201      	movs	r2, #1
 8014c5c:	4629      	mov	r1, r5
 8014c5e:	47b0      	blx	r6
 8014c60:	e00e      	b.n	8014c80 <fatfs_write_sector+0x4a>
 8014c62:	f8c4 0240 	str.w	r0, [r4, #576]	@ 0x240
 8014c66:	2201      	movs	r2, #1
 8014c68:	f104 0140 	add.w	r1, r4, #64	@ 0x40
 8014c6c:	47b0      	blx	r6
 8014c6e:	e007      	b.n	8014c80 <fatfs_write_sector+0x4a>
 8014c70:	b13d      	cbz	r5, 8014c82 <fatfs_write_sector+0x4c>
 8014c72:	4620      	mov	r0, r4
 8014c74:	f7ff ff48 	bl	8014b08 <fatfs_lba_of_cluster>
 8014c78:	2201      	movs	r2, #1
 8014c7a:	4629      	mov	r1, r5
 8014c7c:	4438      	add	r0, r7
 8014c7e:	47b0      	blx	r6
 8014c80:	bdf8      	pop	{r3, r4, r5, r6, r7, pc}
 8014c82:	4620      	mov	r0, r4
 8014c84:	f7ff ff40 	bl	8014b08 <fatfs_lba_of_cluster>
 8014c88:	4438      	add	r0, r7
 8014c8a:	f8c4 0240 	str.w	r0, [r4, #576]	@ 0x240
 8014c8e:	2201      	movs	r2, #1
 8014c90:	f104 0140 	add.w	r1, r4, #64	@ 0x40
 8014c94:	47b0      	blx	r6
 8014c96:	e7f3      	b.n	8014c80 <fatfs_write_sector+0x4a>
 8014c98:	2000      	movs	r0, #0
 8014c9a:	e7f1      	b.n	8014c80 <fatfs_write_sector+0x4a>
 8014c9c:	2000      	movs	r0, #0
 8014c9e:	e7ef      	b.n	8014c80 <fatfs_write_sector+0x4a>

08014ca0 <fatfs_show_details>:
 8014ca0:	b510      	push	{r4, lr}
 8014ca2:	4604      	mov	r4, r0
 8014ca4:	480e      	ldr	r0, [pc, #56]	@ (8014ce0 <fatfs_show_details+0x40>)
 8014ca6:	f7fb ffed 	bl	8010c84 <kprintf>
 8014caa:	f894 302d 	ldrb.w	r3, [r4, #45]	@ 0x2d
 8014cae:	2b01      	cmp	r3, #1
 8014cb0:	d014      	beq.n	8014cdc <fatfs_show_details+0x3c>
 8014cb2:	490c      	ldr	r1, [pc, #48]	@ (8014ce4 <fatfs_show_details+0x44>)
 8014cb4:	480c      	ldr	r0, [pc, #48]	@ (8014ce8 <fatfs_show_details+0x48>)
 8014cb6:	f7fb ffe5 	bl	8010c84 <kprintf>
 8014cba:	68a1      	ldr	r1, [r4, #8]
 8014cbc:	480b      	ldr	r0, [pc, #44]	@ (8014cec <fatfs_show_details+0x4c>)
 8014cbe:	f7fb ffe1 	bl	8010c84 <kprintf>
 8014cc2:	6961      	ldr	r1, [r4, #20]
 8014cc4:	480a      	ldr	r0, [pc, #40]	@ (8014cf0 <fatfs_show_details+0x50>)
 8014cc6:	f7fb ffdd 	bl	8010c84 <kprintf>
 8014cca:	6861      	ldr	r1, [r4, #4]
 8014ccc:	4809      	ldr	r0, [pc, #36]	@ (8014cf4 <fatfs_show_details+0x54>)
 8014cce:	f7fb ffd9 	bl	8010c84 <kprintf>
 8014cd2:	7821      	ldrb	r1, [r4, #0]
 8014cd4:	4808      	ldr	r0, [pc, #32]	@ (8014cf8 <fatfs_show_details+0x58>)
 8014cd6:	f7fb ffd5 	bl	8010c84 <kprintf>
 8014cda:	bd10      	pop	{r4, pc}
 8014cdc:	4907      	ldr	r1, [pc, #28]	@ (8014cfc <fatfs_show_details+0x5c>)
 8014cde:	e7e9      	b.n	8014cb4 <fatfs_show_details+0x14>
 8014ce0:	0801a208 	.word	0x0801a208
 8014ce4:	0801a200 	.word	0x0801a200
 8014ce8:	0801a218 	.word	0x0801a218
 8014cec:	0801a224 	.word	0x0801a224
 8014cf0:	0801a244 	.word	0x0801a244
 8014cf4:	0801a25c 	.word	0x0801a25c
 8014cf8:	0801a278 	.word	0x0801a278
 8014cfc:	0801a1f8 	.word	0x0801a1f8

08014d00 <fatfs_get_root_cluster>:
 8014d00:	6880      	ldr	r0, [r0, #8]
 8014d02:	4770      	bx	lr

08014d04 <fatfs_get_file_entry>:
 8014d04:	e92d 4ff0 	stmdb	sp!, {r4, r5, r6, r7, r8, r9, sl, fp, lr}
 8014d08:	b0c7      	sub	sp, #284	@ 0x11c
 8014d0a:	4606      	mov	r6, r0
 8014d0c:	4689      	mov	r9, r1
 8014d0e:	4690      	mov	r8, r2
 8014d10:	469a      	mov	sl, r3
 8014d12:	2101      	movs	r1, #1
 8014d14:	4668      	mov	r0, sp
 8014d16:	f001 fdd7 	bl	80168c8 <fatfs_lfn_cache_init>
 8014d1a:	2700      	movs	r7, #0
 8014d1c:	463a      	mov	r2, r7
 8014d1e:	2300      	movs	r3, #0
 8014d20:	3701      	adds	r7, #1
 8014d22:	4649      	mov	r1, r9
 8014d24:	4630      	mov	r0, r6
 8014d26:	f7ff ff11 	bl	8014b4c <fatfs_sector_reader>
 8014d2a:	b398      	cbz	r0, 8014d94 <fatfs_get_file_entry+0x90>
 8014d2c:	2400      	movs	r4, #0
 8014d2e:	e009      	b.n	8014d44 <fatfs_get_file_entry+0x40>
 8014d30:	4628      	mov	r0, r5
 8014d32:	f001 fe45 	bl	80169c0 <fatfs_entry_lfn_invalid>
 8014d36:	b1a8      	cbz	r0, 8014d64 <fatfs_get_file_entry+0x60>
 8014d38:	2100      	movs	r1, #0
 8014d3a:	4668      	mov	r0, sp
 8014d3c:	f001 fdc4 	bl	80168c8 <fatfs_lfn_cache_init>
 8014d40:	3401      	adds	r4, #1
 8014d42:	b2e4      	uxtb	r4, r4
 8014d44:	2c0f      	cmp	r4, #15
 8014d46:	d8e9      	bhi.n	8014d1c <fatfs_get_file_entry+0x18>
 8014d48:	f106 0540 	add.w	r5, r6, #64	@ 0x40
 8014d4c:	eb05 1544 	add.w	r5, r5, r4, lsl #5
 8014d50:	4628      	mov	r0, r5
 8014d52:	f001 fe2c 	bl	80169ae <fatfs_entry_lfn_text>
 8014d56:	2800      	cmp	r0, #0
 8014d58:	d0ea      	beq.n	8014d30 <fatfs_get_file_entry+0x2c>
 8014d5a:	4629      	mov	r1, r5
 8014d5c:	4668      	mov	r0, sp
 8014d5e:	f001 fdc9 	bl	80168f4 <fatfs_lfn_cache_entry>
 8014d62:	e7ed      	b.n	8014d40 <fatfs_get_file_entry+0x3c>
 8014d64:	4629      	mov	r1, r5
 8014d66:	4668      	mov	r0, sp
 8014d68:	f001 fe3e 	bl	80169e8 <fatfs_entry_lfn_exists>
 8014d6c:	4683      	mov	fp, r0
 8014d6e:	b1a0      	cbz	r0, 8014d9a <fatfs_get_file_entry+0x96>
 8014d70:	4668      	mov	r0, sp
 8014d72:	f001 fe09 	bl	8016988 <fatfs_lfn_cache_get>
 8014d76:	4641      	mov	r1, r8
 8014d78:	f002 f889 	bl	8016e8e <fatfs_compare_names>
 8014d7c:	b920      	cbnz	r0, 8014d88 <fatfs_get_file_entry+0x84>
 8014d7e:	2100      	movs	r1, #0
 8014d80:	4668      	mov	r0, sp
 8014d82:	f001 fda1 	bl	80168c8 <fatfs_lfn_cache_init>
 8014d86:	e7db      	b.n	8014d40 <fatfs_get_file_entry+0x3c>
 8014d88:	2220      	movs	r2, #32
 8014d8a:	4629      	mov	r1, r5
 8014d8c:	4650      	mov	r0, sl
 8014d8e:	f7fd fc09 	bl	80125a4 <memcpy>
 8014d92:	2001      	movs	r0, #1
 8014d94:	b047      	add	sp, #284	@ 0x11c
 8014d96:	e8bd 8ff0 	ldmia.w	sp!, {r4, r5, r6, r7, r8, r9, sl, fp, pc}
 8014d9a:	4628      	mov	r0, r5
 8014d9c:	f001 fe41 	bl	8016a22 <fatfs_entry_sfn_only>
 8014da0:	2800      	cmp	r0, #0
 8014da2:	d0cd      	beq.n	8014d40 <fatfs_get_file_entry+0x3c>
 8014da4:	220d      	movs	r2, #13
 8014da6:	2100      	movs	r1, #0
 8014da8:	a842      	add	r0, sp, #264	@ 0x108
 8014daa:	f7fd fbf4 	bl	8012596 <memset>
 8014dae:	2300      	movs	r3, #0
 8014db0:	e007      	b.n	8014dc2 <fatfs_get_file_entry+0xbe>
 8014db2:	5ce9      	ldrb	r1, [r5, r3]
 8014db4:	f503 728c 	add.w	r2, r3, #280	@ 0x118
 8014db8:	446a      	add	r2, sp
 8014dba:	f802 1c10 	strb.w	r1, [r2, #-16]
 8014dbe:	3301      	adds	r3, #1
 8014dc0:	b2db      	uxtb	r3, r3
 8014dc2:	2b07      	cmp	r3, #7
 8014dc4:	d9f5      	bls.n	8014db2 <fatfs_get_file_entry+0xae>
 8014dc6:	2308      	movs	r3, #8
 8014dc8:	e001      	b.n	8014dce <fatfs_get_file_entry+0xca>
 8014dca:	3301      	adds	r3, #1
 8014dcc:	b2db      	uxtb	r3, r3
 8014dce:	2b0a      	cmp	r3, #10
 8014dd0:	d80a      	bhi.n	8014de8 <fatfs_get_file_entry+0xe4>
 8014dd2:	5ce9      	ldrb	r1, [r5, r3]
 8014dd4:	f203 1219 	addw	r2, r3, #281	@ 0x119
 8014dd8:	446a      	add	r2, sp
 8014dda:	f802 1c10 	strb.w	r1, [r2, #-16]
 8014dde:	2920      	cmp	r1, #32
 8014de0:	d0f3      	beq.n	8014dca <fatfs_get_file_entry+0xc6>
 8014de2:	f04f 0b01 	mov.w	fp, #1
 8014de6:	e7f0      	b.n	8014dca <fatfs_get_file_entry+0xc6>
 8014de8:	f1bb 0f00 	cmp.w	fp, #0
 8014dec:	d00b      	beq.n	8014e06 <fatfs_get_file_entry+0x102>
 8014dee:	f89d 3108 	ldrb.w	r3, [sp, #264]	@ 0x108
 8014df2:	2b2e      	cmp	r3, #46	@ 0x2e
 8014df4:	d003      	beq.n	8014dfe <fatfs_get_file_entry+0xfa>
 8014df6:	232e      	movs	r3, #46	@ 0x2e
 8014df8:	f88d 3110 	strb.w	r3, [sp, #272]	@ 0x110
 8014dfc:	e006      	b.n	8014e0c <fatfs_get_file_entry+0x108>
 8014dfe:	2320      	movs	r3, #32
 8014e00:	f88d 3110 	strb.w	r3, [sp, #272]	@ 0x110
 8014e04:	e002      	b.n	8014e0c <fatfs_get_file_entry+0x108>
 8014e06:	2320      	movs	r3, #32
 8014e08:	f88d 3110 	strb.w	r3, [sp, #272]	@ 0x110
 8014e0c:	4641      	mov	r1, r8
 8014e0e:	a842      	add	r0, sp, #264	@ 0x108
 8014e10:	f002 f83d 	bl	8016e8e <fatfs_compare_names>
 8014e14:	b920      	cbnz	r0, 8014e20 <fatfs_get_file_entry+0x11c>
 8014e16:	2100      	movs	r1, #0
 8014e18:	4668      	mov	r0, sp
 8014e1a:	f001 fd55 	bl	80168c8 <fatfs_lfn_cache_init>
 8014e1e:	e78f      	b.n	8014d40 <fatfs_get_file_entry+0x3c>
 8014e20:	2220      	movs	r2, #32
 8014e22:	4629      	mov	r1, r5
 8014e24:	4650      	mov	r0, sl
 8014e26:	f7fd fbbd 	bl	80125a4 <memcpy>
 8014e2a:	2001      	movs	r0, #1
 8014e2c:	e7b2      	b.n	8014d94 <fatfs_get_file_entry+0x90>

08014e2e <fatfs_sfn_exists>:
 8014e2e:	e92d 43f8 	stmdb	sp!, {r3, r4, r5, r6, r7, r8, r9, lr}
 8014e32:	4606      	mov	r6, r0
 8014e34:	4688      	mov	r8, r1
 8014e36:	4691      	mov	r9, r2
 8014e38:	2700      	movs	r7, #0
 8014e3a:	463a      	mov	r2, r7
 8014e3c:	2300      	movs	r3, #0
 8014e3e:	3701      	adds	r7, #1
 8014e40:	4641      	mov	r1, r8
 8014e42:	4630      	mov	r0, r6
 8014e44:	f7ff fe82 	bl	8014b4c <fatfs_sector_reader>
 8014e48:	4603      	mov	r3, r0
 8014e4a:	b300      	cbz	r0, 8014e8e <fatfs_sfn_exists+0x60>
 8014e4c:	2400      	movs	r4, #0
 8014e4e:	e001      	b.n	8014e54 <fatfs_sfn_exists+0x26>
 8014e50:	3401      	adds	r4, #1
 8014e52:	b2e4      	uxtb	r4, r4
 8014e54:	2c0f      	cmp	r4, #15
 8014e56:	d8f0      	bhi.n	8014e3a <fatfs_sfn_exists+0xc>
 8014e58:	f106 0540 	add.w	r5, r6, #64	@ 0x40
 8014e5c:	eb05 1544 	add.w	r5, r5, r4, lsl #5
 8014e60:	4628      	mov	r0, r5
 8014e62:	f001 fda4 	bl	80169ae <fatfs_entry_lfn_text>
 8014e66:	2800      	cmp	r0, #0
 8014e68:	d1f2      	bne.n	8014e50 <fatfs_sfn_exists+0x22>
 8014e6a:	4628      	mov	r0, r5
 8014e6c:	f001 fda8 	bl	80169c0 <fatfs_entry_lfn_invalid>
 8014e70:	2800      	cmp	r0, #0
 8014e72:	d1ed      	bne.n	8014e50 <fatfs_sfn_exists+0x22>
 8014e74:	4628      	mov	r0, r5
 8014e76:	f001 fdd4 	bl	8016a22 <fatfs_entry_sfn_only>
 8014e7a:	2800      	cmp	r0, #0
 8014e7c:	d0e8      	beq.n	8014e50 <fatfs_sfn_exists+0x22>
 8014e7e:	220b      	movs	r2, #11
 8014e80:	4649      	mov	r1, r9
 8014e82:	4628      	mov	r0, r5
 8014e84:	f7fd fbee 	bl	8012664 <strncmp>
 8014e88:	2800      	cmp	r0, #0
 8014e8a:	d1e1      	bne.n	8014e50 <fatfs_sfn_exists+0x22>
 8014e8c:	2301      	movs	r3, #1
 8014e8e:	4618      	mov	r0, r3
 8014e90:	e8bd 83f8 	ldmia.w	sp!, {r3, r4, r5, r6, r7, r8, r9, pc}

08014e94 <fatfs_update_file_length>:
 8014e94:	e92d 4ff8 	stmdb	sp!, {r3, r4, r5, r6, r7, r8, r9, sl, fp, lr}
 8014e98:	469b      	mov	fp, r3
 8014e9a:	6b43      	ldr	r3, [r0, #52]	@ 0x34
 8014e9c:	2b00      	cmp	r3, #0
 8014e9e:	d03f      	beq.n	8014f20 <fatfs_update_file_length+0x8c>
 8014ea0:	4607      	mov	r7, r0
 8014ea2:	4689      	mov	r9, r1
 8014ea4:	4692      	mov	sl, r2
 8014ea6:	f04f 0800 	mov.w	r8, #0
 8014eaa:	4642      	mov	r2, r8
 8014eac:	2300      	movs	r3, #0
 8014eae:	f108 0801 	add.w	r8, r8, #1
 8014eb2:	4649      	mov	r1, r9
 8014eb4:	4638      	mov	r0, r7
 8014eb6:	f7ff fe49 	bl	8014b4c <fatfs_sector_reader>
 8014eba:	4603      	mov	r3, r0
 8014ebc:	b368      	cbz	r0, 8014f1a <fatfs_update_file_length+0x86>
 8014ebe:	2400      	movs	r4, #0
 8014ec0:	e001      	b.n	8014ec6 <fatfs_update_file_length+0x32>
 8014ec2:	3401      	adds	r4, #1
 8014ec4:	b2e4      	uxtb	r4, r4
 8014ec6:	2c0f      	cmp	r4, #15
 8014ec8:	d8ef      	bhi.n	8014eaa <fatfs_update_file_length+0x16>
 8014eca:	f107 0640 	add.w	r6, r7, #64	@ 0x40
 8014ece:	eb06 1544 	add.w	r5, r6, r4, lsl #5
 8014ed2:	4628      	mov	r0, r5
 8014ed4:	f001 fd6b 	bl	80169ae <fatfs_entry_lfn_text>
 8014ed8:	2800      	cmp	r0, #0
 8014eda:	d1f2      	bne.n	8014ec2 <fatfs_update_file_length+0x2e>
 8014edc:	4628      	mov	r0, r5
 8014ede:	f001 fd6f 	bl	80169c0 <fatfs_entry_lfn_invalid>
 8014ee2:	2800      	cmp	r0, #0
 8014ee4:	d1ed      	bne.n	8014ec2 <fatfs_update_file_length+0x2e>
 8014ee6:	4628      	mov	r0, r5
 8014ee8:	f001 fd9b 	bl	8016a22 <fatfs_entry_sfn_only>
 8014eec:	2800      	cmp	r0, #0
 8014eee:	d0e8      	beq.n	8014ec2 <fatfs_update_file_length+0x2e>
 8014ef0:	220b      	movs	r2, #11
 8014ef2:	4651      	mov	r1, sl
 8014ef4:	4628      	mov	r0, r5
 8014ef6:	f7fd fbb5 	bl	8012664 <strncmp>
 8014efa:	2800      	cmp	r0, #0
 8014efc:	d1e1      	bne.n	8014ec2 <fatfs_update_file_length+0x2e>
 8014efe:	f8c5 b01c 	str.w	fp, [r5, #28]
 8014f02:	2220      	movs	r2, #32
 8014f04:	4629      	mov	r1, r5
 8014f06:	4628      	mov	r0, r5
 8014f08:	f7fd fb4c 	bl	80125a4 <memcpy>
 8014f0c:	6b7b      	ldr	r3, [r7, #52]	@ 0x34
 8014f0e:	2201      	movs	r2, #1
 8014f10:	4631      	mov	r1, r6
 8014f12:	f8d7 0240 	ldr.w	r0, [r7, #576]	@ 0x240
 8014f16:	4798      	blx	r3
 8014f18:	4603      	mov	r3, r0
 8014f1a:	4618      	mov	r0, r3
 8014f1c:	e8bd 8ff8 	ldmia.w	sp!, {r3, r4, r5, r6, r7, r8, r9, sl, fp, pc}
 8014f20:	2300      	movs	r3, #0
 8014f22:	e7fa      	b.n	8014f1a <fatfs_update_file_length+0x86>

08014f24 <fatfs_mark_file_deleted>:
 8014f24:	e92d 4ff8 	stmdb	sp!, {r3, r4, r5, r6, r7, r8, r9, sl, fp, lr}
 8014f28:	6b43      	ldr	r3, [r0, #52]	@ 0x34
 8014f2a:	2b00      	cmp	r3, #0
 8014f2c:	d042      	beq.n	8014fb4 <fatfs_mark_file_deleted+0x90>
 8014f2e:	4607      	mov	r7, r0
 8014f30:	468a      	mov	sl, r1
 8014f32:	4693      	mov	fp, r2
 8014f34:	f04f 0900 	mov.w	r9, #0
 8014f38:	464a      	mov	r2, r9
 8014f3a:	2300      	movs	r3, #0
 8014f3c:	f109 0901 	add.w	r9, r9, #1
 8014f40:	4651      	mov	r1, sl
 8014f42:	4638      	mov	r0, r7
 8014f44:	f7ff fe02 	bl	8014b4c <fatfs_sector_reader>
 8014f48:	4603      	mov	r3, r0
 8014f4a:	b380      	cbz	r0, 8014fae <fatfs_mark_file_deleted+0x8a>
 8014f4c:	2400      	movs	r4, #0
 8014f4e:	e001      	b.n	8014f54 <fatfs_mark_file_deleted+0x30>
 8014f50:	3401      	adds	r4, #1
 8014f52:	b2e4      	uxtb	r4, r4
 8014f54:	2c0f      	cmp	r4, #15
 8014f56:	d8ef      	bhi.n	8014f38 <fatfs_mark_file_deleted+0x14>
 8014f58:	ea4f 1844 	mov.w	r8, r4, lsl #5
 8014f5c:	f107 0640 	add.w	r6, r7, #64	@ 0x40
 8014f60:	eb06 1544 	add.w	r5, r6, r4, lsl #5
 8014f64:	4628      	mov	r0, r5
 8014f66:	f001 fd22 	bl	80169ae <fatfs_entry_lfn_text>
 8014f6a:	2800      	cmp	r0, #0
 8014f6c:	d1f0      	bne.n	8014f50 <fatfs_mark_file_deleted+0x2c>
 8014f6e:	4628      	mov	r0, r5
 8014f70:	f001 fd26 	bl	80169c0 <fatfs_entry_lfn_invalid>
 8014f74:	2800      	cmp	r0, #0
 8014f76:	d1eb      	bne.n	8014f50 <fatfs_mark_file_deleted+0x2c>
 8014f78:	4628      	mov	r0, r5
 8014f7a:	f001 fd52 	bl	8016a22 <fatfs_entry_sfn_only>
 8014f7e:	2800      	cmp	r0, #0
 8014f80:	d0e6      	beq.n	8014f50 <fatfs_mark_file_deleted+0x2c>
 8014f82:	220b      	movs	r2, #11
 8014f84:	4659      	mov	r1, fp
 8014f86:	4628      	mov	r0, r5
 8014f88:	f7fd fb6c 	bl	8012664 <strncmp>
 8014f8c:	2800      	cmp	r0, #0
 8014f8e:	d1df      	bne.n	8014f50 <fatfs_mark_file_deleted+0x2c>
 8014f90:	23e5      	movs	r3, #229	@ 0xe5
 8014f92:	f806 3008 	strb.w	r3, [r6, r8]
 8014f96:	2220      	movs	r2, #32
 8014f98:	4629      	mov	r1, r5
 8014f9a:	4628      	mov	r0, r5
 8014f9c:	f7fd fb02 	bl	80125a4 <memcpy>
 8014fa0:	6b7b      	ldr	r3, [r7, #52]	@ 0x34
 8014fa2:	2201      	movs	r2, #1
 8014fa4:	4631      	mov	r1, r6
 8014fa6:	f8d7 0240 	ldr.w	r0, [r7, #576]	@ 0x240
 8014faa:	4798      	blx	r3
 8014fac:	4603      	mov	r3, r0
 8014fae:	4618      	mov	r0, r3
 8014fb0:	e8bd 8ff8 	ldmia.w	sp!, {r3, r4, r5, r6, r7, r8, r9, sl, fp, pc}
 8014fb4:	2300      	movs	r3, #0
 8014fb6:	e7fa      	b.n	8014fae <fatfs_mark_file_deleted+0x8a>

08014fb8 <fatfs_list_directory_start>:
 8014fb8:	604a      	str	r2, [r1, #4]
 8014fba:	2300      	movs	r3, #0
 8014fbc:	600b      	str	r3, [r1, #0]
 8014fbe:	720b      	strb	r3, [r1, #8]
 8014fc0:	4770      	bx	lr

08014fc2 <fatfs_list_directory_next>:
 8014fc2:	e92d 43f0 	stmdb	sp!, {r4, r5, r6, r7, r8, r9, lr}
 8014fc6:	b0c7      	sub	sp, #284	@ 0x11c
 8014fc8:	4606      	mov	r6, r0
 8014fca:	460f      	mov	r7, r1
 8014fcc:	4690      	mov	r8, r2
 8014fce:	2100      	movs	r1, #0
 8014fd0:	4668      	mov	r0, sp
 8014fd2:	f001 fc79 	bl	80168c8 <fatfs_lfn_cache_init>
 8014fd6:	e0a1      	b.n	801511c <fatfs_list_directory_next+0x15a>
 8014fd8:	4628      	mov	r0, r5
 8014fda:	f001 fcf1 	bl	80169c0 <fatfs_entry_lfn_invalid>
 8014fde:	b1b0      	cbz	r0, 801500e <fatfs_list_directory_next+0x4c>
 8014fe0:	2100      	movs	r1, #0
 8014fe2:	4668      	mov	r0, sp
 8014fe4:	f001 fc70 	bl	80168c8 <fatfs_lfn_cache_init>
 8014fe8:	3401      	adds	r4, #1
 8014fea:	b2e4      	uxtb	r4, r4
 8014fec:	2c0f      	cmp	r4, #15
 8014fee:	f200 8090 	bhi.w	8015112 <fatfs_list_directory_next+0x150>
 8014ff2:	f106 0540 	add.w	r5, r6, #64	@ 0x40
 8014ff6:	eb05 1544 	add.w	r5, r5, r4, lsl #5
 8014ffa:	4628      	mov	r0, r5
 8014ffc:	f001 fcd7 	bl	80169ae <fatfs_entry_lfn_text>
 8015000:	2800      	cmp	r0, #0
 8015002:	d0e9      	beq.n	8014fd8 <fatfs_list_directory_next+0x16>
 8015004:	4629      	mov	r1, r5
 8015006:	4668      	mov	r0, sp
 8015008:	f001 fc74 	bl	80168f4 <fatfs_lfn_cache_entry>
 801500c:	e7ec      	b.n	8014fe8 <fatfs_list_directory_next+0x26>
 801500e:	4629      	mov	r1, r5
 8015010:	4668      	mov	r0, sp
 8015012:	f001 fce9 	bl	80169e8 <fatfs_entry_lfn_exists>
 8015016:	4681      	mov	r9, r0
 8015018:	b978      	cbnz	r0, 801503a <fatfs_list_directory_next+0x78>
 801501a:	4628      	mov	r0, r5
 801501c:	f001 fd01 	bl	8016a22 <fatfs_entry_sfn_only>
 8015020:	2800      	cmp	r0, #0
 8015022:	d0e1      	beq.n	8014fe8 <fatfs_list_directory_next+0x26>
 8015024:	2100      	movs	r1, #0
 8015026:	4668      	mov	r0, sp
 8015028:	f001 fc4e 	bl	80168c8 <fatfs_lfn_cache_init>
 801502c:	220d      	movs	r2, #13
 801502e:	2100      	movs	r1, #0
 8015030:	a842      	add	r0, sp, #264	@ 0x108
 8015032:	f7fd fab0 	bl	8012596 <memset>
 8015036:	2300      	movs	r3, #0
 8015038:	e02a      	b.n	8015090 <fatfs_list_directory_next+0xce>
 801503a:	4668      	mov	r0, sp
 801503c:	f001 fca4 	bl	8016988 <fatfs_lfn_cache_get>
 8015040:	4601      	mov	r1, r0
 8015042:	223f      	movs	r2, #63	@ 0x3f
 8015044:	4640      	mov	r0, r8
 8015046:	f7fd fb28 	bl	801269a <strncpy>
 801504a:	4628      	mov	r0, r5
 801504c:	f001 fd01 	bl	8016a52 <fatfs_entry_is_dir>
 8015050:	b190      	cbz	r0, 8015078 <fatfs_list_directory_next+0xb6>
 8015052:	2301      	movs	r3, #1
 8015054:	f888 3040 	strb.w	r3, [r8, #64]	@ 0x40
 8015058:	69eb      	ldr	r3, [r5, #28]
 801505a:	f8c8 3048 	str.w	r3, [r8, #72]	@ 0x48
 801505e:	8aaa      	ldrh	r2, [r5, #20]
 8015060:	8b6b      	ldrh	r3, [r5, #26]
 8015062:	ea43 4302 	orr.w	r3, r3, r2, lsl #16
 8015066:	f8c8 3044 	str.w	r3, [r8, #68]	@ 0x44
 801506a:	3401      	adds	r4, #1
 801506c:	723c      	strb	r4, [r7, #8]
 801506e:	2301      	movs	r3, #1
 8015070:	4618      	mov	r0, r3
 8015072:	b047      	add	sp, #284	@ 0x11c
 8015074:	e8bd 83f0 	ldmia.w	sp!, {r4, r5, r6, r7, r8, r9, pc}
 8015078:	2300      	movs	r3, #0
 801507a:	f888 3040 	strb.w	r3, [r8, #64]	@ 0x40
 801507e:	e7eb      	b.n	8015058 <fatfs_list_directory_next+0x96>
 8015080:	5ce9      	ldrb	r1, [r5, r3]
 8015082:	f503 728c 	add.w	r2, r3, #280	@ 0x118
 8015086:	446a      	add	r2, sp
 8015088:	f802 1c10 	strb.w	r1, [r2, #-16]
 801508c:	3301      	adds	r3, #1
 801508e:	b2db      	uxtb	r3, r3
 8015090:	2b07      	cmp	r3, #7
 8015092:	d9f5      	bls.n	8015080 <fatfs_list_directory_next+0xbe>
 8015094:	2308      	movs	r3, #8
 8015096:	e001      	b.n	801509c <fatfs_list_directory_next+0xda>
 8015098:	3301      	adds	r3, #1
 801509a:	b2db      	uxtb	r3, r3
 801509c:	2b0a      	cmp	r3, #10
 801509e:	d80a      	bhi.n	80150b6 <fatfs_list_directory_next+0xf4>
 80150a0:	5ce9      	ldrb	r1, [r5, r3]
 80150a2:	f203 1219 	addw	r2, r3, #281	@ 0x119
 80150a6:	446a      	add	r2, sp
 80150a8:	f802 1c10 	strb.w	r1, [r2, #-16]
 80150ac:	2920      	cmp	r1, #32
 80150ae:	d0f3      	beq.n	8015098 <fatfs_list_directory_next+0xd6>
 80150b0:	f04f 0901 	mov.w	r9, #1
 80150b4:	e7f0      	b.n	8015098 <fatfs_list_directory_next+0xd6>
 80150b6:	f1b9 0f00 	cmp.w	r9, #0
 80150ba:	d00b      	beq.n	80150d4 <fatfs_list_directory_next+0x112>
 80150bc:	f89d 3108 	ldrb.w	r3, [sp, #264]	@ 0x108
 80150c0:	2b2e      	cmp	r3, #46	@ 0x2e
 80150c2:	d003      	beq.n	80150cc <fatfs_list_directory_next+0x10a>
 80150c4:	232e      	movs	r3, #46	@ 0x2e
 80150c6:	f88d 3110 	strb.w	r3, [sp, #272]	@ 0x110
 80150ca:	e006      	b.n	80150da <fatfs_list_directory_next+0x118>
 80150cc:	2320      	movs	r3, #32
 80150ce:	f88d 3110 	strb.w	r3, [sp, #272]	@ 0x110
 80150d2:	e002      	b.n	80150da <fatfs_list_directory_next+0x118>
 80150d4:	2320      	movs	r3, #32
 80150d6:	f88d 3110 	strb.w	r3, [sp, #272]	@ 0x110
 80150da:	a942      	add	r1, sp, #264	@ 0x108
 80150dc:	4640      	mov	r0, r8
 80150de:	f001 ff40 	bl	8016f62 <fatfs_get_sfn_display_name>
 80150e2:	4628      	mov	r0, r5
 80150e4:	f001 fcb5 	bl	8016a52 <fatfs_entry_is_dir>
 80150e8:	b178      	cbz	r0, 801510a <fatfs_list_directory_next+0x148>
 80150ea:	2301      	movs	r3, #1
 80150ec:	f888 3040 	strb.w	r3, [r8, #64]	@ 0x40
 80150f0:	69eb      	ldr	r3, [r5, #28]
 80150f2:	f8c8 3048 	str.w	r3, [r8, #72]	@ 0x48
 80150f6:	8aaa      	ldrh	r2, [r5, #20]
 80150f8:	8b6b      	ldrh	r3, [r5, #26]
 80150fa:	ea43 4302 	orr.w	r3, r3, r2, lsl #16
 80150fe:	f8c8 3044 	str.w	r3, [r8, #68]	@ 0x44
 8015102:	3401      	adds	r4, #1
 8015104:	723c      	strb	r4, [r7, #8]
 8015106:	2301      	movs	r3, #1
 8015108:	e7b2      	b.n	8015070 <fatfs_list_directory_next+0xae>
 801510a:	2300      	movs	r3, #0
 801510c:	f888 3040 	strb.w	r3, [r8, #64]	@ 0x40
 8015110:	e7ee      	b.n	80150f0 <fatfs_list_directory_next+0x12e>
 8015112:	683b      	ldr	r3, [r7, #0]
 8015114:	3301      	adds	r3, #1
 8015116:	603b      	str	r3, [r7, #0]
 8015118:	2300      	movs	r3, #0
 801511a:	723b      	strb	r3, [r7, #8]
 801511c:	2300      	movs	r3, #0
 801511e:	683a      	ldr	r2, [r7, #0]
 8015120:	6879      	ldr	r1, [r7, #4]
 8015122:	4630      	mov	r0, r6
 8015124:	f7ff fd12 	bl	8014b4c <fatfs_sector_reader>
 8015128:	4603      	mov	r3, r0
 801512a:	2800      	cmp	r0, #0
 801512c:	d0a0      	beq.n	8015070 <fatfs_list_directory_next+0xae>
 801512e:	7a3c      	ldrb	r4, [r7, #8]
 8015130:	e75c      	b.n	8014fec <fatfs_list_directory_next+0x2a>
 8015132:	bf00      	nop

08015134 <fatfs_cache_init>:
 8015134:	2001      	movs	r0, #1
 8015136:	4770      	bx	lr

08015138 <fatfs_cache_get_next_cluster>:
 8015138:	2000      	movs	r0, #0
 801513a:	4770      	bx	lr

0801513c <fatfs_cache_set_next_cluster>:
 801513c:	2001      	movs	r0, #1
 801513e:	4770      	bx	lr

08015140 <fat_list_init>:
 8015140:	2300      	movs	r3, #0
 8015142:	6043      	str	r3, [r0, #4]
 8015144:	6003      	str	r3, [r0, #0]
 8015146:	4770      	bx	lr

08015148 <fat_list_remove>:
 8015148:	680b      	ldr	r3, [r1, #0]
 801514a:	b133      	cbz	r3, 801515a <fat_list_remove+0x12>
 801514c:	684a      	ldr	r2, [r1, #4]
 801514e:	605a      	str	r2, [r3, #4]
 8015150:	684b      	ldr	r3, [r1, #4]
 8015152:	b12b      	cbz	r3, 8015160 <fat_list_remove+0x18>
 8015154:	680a      	ldr	r2, [r1, #0]
 8015156:	601a      	str	r2, [r3, #0]
 8015158:	4770      	bx	lr
 801515a:	684b      	ldr	r3, [r1, #4]
 801515c:	6003      	str	r3, [r0, #0]
 801515e:	e7f7      	b.n	8015150 <fat_list_remove+0x8>
 8015160:	680b      	ldr	r3, [r1, #0]
 8015162:	6043      	str	r3, [r0, #4]
 8015164:	4770      	bx	lr

08015166 <fat_list_insert_after>:
 8015166:	6011      	str	r1, [r2, #0]
 8015168:	684b      	ldr	r3, [r1, #4]
 801516a:	6053      	str	r3, [r2, #4]
 801516c:	b113      	cbz	r3, 8015174 <fat_list_insert_after+0xe>
 801516e:	601a      	str	r2, [r3, #0]
 8015170:	604a      	str	r2, [r1, #4]
 8015172:	4770      	bx	lr
 8015174:	6042      	str	r2, [r0, #4]
 8015176:	e7fb      	b.n	8015170 <fat_list_insert_after+0xa>

08015178 <fat_list_insert_before>:
 8015178:	680b      	ldr	r3, [r1, #0]
 801517a:	6013      	str	r3, [r2, #0]
 801517c:	6051      	str	r1, [r2, #4]
 801517e:	680b      	ldr	r3, [r1, #0]
 8015180:	b113      	cbz	r3, 8015188 <fat_list_insert_before+0x10>
 8015182:	605a      	str	r2, [r3, #4]
 8015184:	600a      	str	r2, [r1, #0]
 8015186:	4770      	bx	lr
 8015188:	6002      	str	r2, [r0, #0]
 801518a:	e7fb      	b.n	8015184 <fat_list_insert_before+0xc>

0801518c <fat_list_insert_first>:
 801518c:	b508      	push	{r3, lr}
 801518e:	460a      	mov	r2, r1
 8015190:	6801      	ldr	r1, [r0, #0]
 8015192:	b111      	cbz	r1, 801519a <fat_list_insert_first+0xe>
 8015194:	f7ff fff0 	bl	8015178 <fat_list_insert_before>
 8015198:	bd08      	pop	{r3, pc}
 801519a:	6002      	str	r2, [r0, #0]
 801519c:	6042      	str	r2, [r0, #4]
 801519e:	2300      	movs	r3, #0
 80151a0:	6013      	str	r3, [r2, #0]
 80151a2:	6053      	str	r3, [r2, #4]
 80151a4:	e7f8      	b.n	8015198 <fat_list_insert_first+0xc>

080151a6 <fat_list_insert_last>:
 80151a6:	b508      	push	{r3, lr}
 80151a8:	460a      	mov	r2, r1
 80151aa:	6841      	ldr	r1, [r0, #4]
 80151ac:	b111      	cbz	r1, 80151b4 <fat_list_insert_last+0xe>
 80151ae:	f7ff ffda 	bl	8015166 <fat_list_insert_after>
 80151b2:	bd08      	pop	{r3, pc}
 80151b4:	4611      	mov	r1, r2
 80151b6:	f7ff ffe9 	bl	801518c <fat_list_insert_first>
 80151ba:	e7fa      	b.n	80151b2 <fat_list_insert_last+0xc>

080151bc <fat_list_pop_head>:
 80151bc:	b510      	push	{r4, lr}
 80151be:	6804      	ldr	r4, [r0, #0]
 80151c0:	b114      	cbz	r4, 80151c8 <fat_list_pop_head+0xc>
 80151c2:	4621      	mov	r1, r4
 80151c4:	f7ff ffc0 	bl	8015148 <fat_list_remove>
 80151c8:	4620      	mov	r0, r4
 80151ca:	bd10      	pop	{r4, pc}

080151cc <_allocate_file>:
 80151cc:	b510      	push	{r4, lr}
 80151ce:	4806      	ldr	r0, [pc, #24]	@ (80151e8 <_allocate_file+0x1c>)
 80151d0:	f7ff fff4 	bl	80151bc <fat_list_pop_head>
 80151d4:	4604      	mov	r4, r0
 80151d6:	b128      	cbz	r0, 80151e4 <_allocate_file+0x18>
 80151d8:	4601      	mov	r1, r0
 80151da:	4804      	ldr	r0, [pc, #16]	@ (80151ec <_allocate_file+0x20>)
 80151dc:	f7ff ffe3 	bl	80151a6 <fat_list_insert_last>
 80151e0:	f5a4 742d 	sub.w	r4, r4, #692	@ 0x2b4
 80151e4:	4620      	mov	r0, r4
 80151e6:	bd10      	pop	{r4, pc}
 80151e8:	200007c0 	.word	0x200007c0
 80151ec:	200007c8 	.word	0x200007c8

080151f0 <_free_file>:
 80151f0:	b538      	push	{r3, r4, r5, lr}
 80151f2:	f500 742d 	add.w	r4, r0, #692	@ 0x2b4
 80151f6:	4d05      	ldr	r5, [pc, #20]	@ (801520c <_free_file+0x1c>)
 80151f8:	4621      	mov	r1, r4
 80151fa:	f105 0008 	add.w	r0, r5, #8
 80151fe:	f7ff ffa3 	bl	8015148 <fat_list_remove>
 8015202:	4621      	mov	r1, r4
 8015204:	4628      	mov	r0, r5
 8015206:	f7ff ffce 	bl	80151a6 <fat_list_insert_last>
 801520a:	bd38      	pop	{r3, r4, r5, pc}
 801520c:	200007c0 	.word	0x200007c0

08015210 <_check_file_open>:
 8015210:	b570      	push	{r4, r5, r6, lr}
 8015212:	4606      	mov	r6, r0
 8015214:	4b0e      	ldr	r3, [pc, #56]	@ (8015250 <_check_file_open+0x40>)
 8015216:	689c      	ldr	r4, [r3, #8]
 8015218:	e000      	b.n	801521c <_check_file_open+0xc>
 801521a:	6864      	ldr	r4, [r4, #4]
 801521c:	b1ac      	cbz	r4, 801524a <_check_file_open+0x3a>
 801521e:	f5a4 752d 	sub.w	r5, r4, #692	@ 0x2b4
 8015222:	42b5      	cmp	r5, r6
 8015224:	d0f9      	beq.n	801521a <_check_file_open+0xa>
 8015226:	f106 0114 	add.w	r1, r6, #20
 801522a:	f5a4 7028 	sub.w	r0, r4, #672	@ 0x2a0
 801522e:	f001 fe2e 	bl	8016e8e <fatfs_compare_names>
 8015232:	2800      	cmp	r0, #0
 8015234:	d0f1      	beq.n	801521a <_check_file_open+0xa>
 8015236:	f106 0154 	add.w	r1, r6, #84	@ 0x54
 801523a:	f5a4 7018 	sub.w	r0, r4, #608	@ 0x260
 801523e:	f001 fe26 	bl	8016e8e <fatfs_compare_names>
 8015242:	2800      	cmp	r0, #0
 8015244:	d0e9      	beq.n	801521a <_check_file_open+0xa>
 8015246:	2001      	movs	r0, #1
 8015248:	e000      	b.n	801524c <_check_file_open+0x3c>
 801524a:	2000      	movs	r0, #0
 801524c:	bd70      	pop	{r4, r5, r6, pc}
 801524e:	bf00      	nop
 8015250:	200007c0 	.word	0x200007c0

08015254 <_open_directory>:
 8015254:	e92d 41f0 	stmdb	sp!, {r4, r5, r6, r7, r8, lr}
 8015258:	b098      	sub	sp, #96	@ 0x60
 801525a:	4606      	mov	r6, r0
 801525c:	460f      	mov	r7, r1
 801525e:	4819      	ldr	r0, [pc, #100]	@ (80152c4 <_open_directory+0x70>)
 8015260:	f7ff fd4e 	bl	8014d00 <fatfs_get_root_cluster>
 8015264:	4604      	mov	r4, r0
 8015266:	4630      	mov	r0, r6
 8015268:	f001 fd70 	bl	8016d4c <fatfs_total_path_levels>
 801526c:	4680      	mov	r8, r0
 801526e:	2500      	movs	r5, #0
 8015270:	4545      	cmp	r5, r8
 8015272:	dc1c      	bgt.n	80152ae <_open_directory+0x5a>
 8015274:	2340      	movs	r3, #64	@ 0x40
 8015276:	aa08      	add	r2, sp, #32
 8015278:	4629      	mov	r1, r5
 801527a:	4630      	mov	r0, r6
 801527c:	f001 fd8a 	bl	8016d94 <fatfs_get_substring>
 8015280:	f1b0 3fff 	cmp.w	r0, #4294967295	@ 0xffffffff
 8015284:	d019      	beq.n	80152ba <_open_directory+0x66>
 8015286:	466b      	mov	r3, sp
 8015288:	aa08      	add	r2, sp, #32
 801528a:	4621      	mov	r1, r4
 801528c:	480d      	ldr	r0, [pc, #52]	@ (80152c4 <_open_directory+0x70>)
 801528e:	f7ff fd39 	bl	8014d04 <fatfs_get_file_entry>
 8015292:	b1a0      	cbz	r0, 80152be <_open_directory+0x6a>
 8015294:	4668      	mov	r0, sp
 8015296:	f001 fbdc 	bl	8016a52 <fatfs_entry_is_dir>
 801529a:	4603      	mov	r3, r0
 801529c:	b148      	cbz	r0, 80152b2 <_open_directory+0x5e>
 801529e:	f8bd 3014 	ldrh.w	r3, [sp, #20]
 80152a2:	f8bd 401a 	ldrh.w	r4, [sp, #26]
 80152a6:	eb04 4403 	add.w	r4, r4, r3, lsl #16
 80152aa:	3501      	adds	r5, #1
 80152ac:	e7e0      	b.n	8015270 <_open_directory+0x1c>
 80152ae:	603c      	str	r4, [r7, #0]
 80152b0:	2301      	movs	r3, #1
 80152b2:	4618      	mov	r0, r3
 80152b4:	b018      	add	sp, #96	@ 0x60
 80152b6:	e8bd 81f0 	ldmia.w	sp!, {r4, r5, r6, r7, r8, pc}
 80152ba:	2300      	movs	r3, #0
 80152bc:	e7f9      	b.n	80152b2 <_open_directory+0x5e>
 80152be:	2300      	movs	r3, #0
 80152c0:	e7f7      	b.n	80152b2 <_open_directory+0x5e>
 80152c2:	bf00      	nop
 80152c4:	200007d0 	.word	0x200007d0

080152c8 <_create_file>:
 80152c8:	b5f0      	push	{r4, r5, r6, r7, lr}
 80152ca:	b091      	sub	sp, #68	@ 0x44
 80152cc:	4b5e      	ldr	r3, [pc, #376]	@ (8015448 <_create_file+0x180>)
 80152ce:	6c5b      	ldr	r3, [r3, #68]	@ 0x44
 80152d0:	2b00      	cmp	r3, #0
 80152d2:	f000 80b6 	beq.w	8015442 <_create_file+0x17a>
 80152d6:	4604      	mov	r4, r0
 80152d8:	f7ff ff78 	bl	80151cc <_allocate_file>
 80152dc:	4606      	mov	r6, r0
 80152de:	2800      	cmp	r0, #0
 80152e0:	f000 809a 	beq.w	8015418 <_create_file+0x150>
 80152e4:	f100 0514 	add.w	r5, r0, #20
 80152e8:	2240      	movs	r2, #64	@ 0x40
 80152ea:	2100      	movs	r1, #0
 80152ec:	4628      	mov	r0, r5
 80152ee:	f7fd f952 	bl	8012596 <memset>
 80152f2:	f106 0754 	add.w	r7, r6, #84	@ 0x54
 80152f6:	2240      	movs	r2, #64	@ 0x40
 80152f8:	2100      	movs	r1, #0
 80152fa:	4638      	mov	r0, r7
 80152fc:	f7fd f94b 	bl	8012596 <memset>
 8015300:	2240      	movs	r2, #64	@ 0x40
 8015302:	9200      	str	r2, [sp, #0]
 8015304:	463b      	mov	r3, r7
 8015306:	4629      	mov	r1, r5
 8015308:	4620      	mov	r0, r4
 801530a:	f001 fd8c 	bl	8016e26 <fatfs_split_path>
 801530e:	f1b0 3fff 	cmp.w	r0, #4294967295	@ 0xffffffff
 8015312:	d021      	beq.n	8015358 <_create_file+0x90>
 8015314:	4630      	mov	r0, r6
 8015316:	f7ff ff7b 	bl	8015210 <_check_file_open>
 801531a:	4604      	mov	r4, r0
 801531c:	bb08      	cbnz	r0, 8015362 <_create_file+0x9a>
 801531e:	7d33      	ldrb	r3, [r6, #20]
 8015320:	bb23      	cbnz	r3, 801536c <_create_file+0xa4>
 8015322:	484a      	ldr	r0, [pc, #296]	@ (801544c <_create_file+0x184>)
 8015324:	f7ff fcec 	bl	8014d00 <fatfs_get_root_cluster>
 8015328:	6030      	str	r0, [r6, #0]
 801532a:	ab08      	add	r3, sp, #32
 801532c:	463a      	mov	r2, r7
 801532e:	6831      	ldr	r1, [r6, #0]
 8015330:	4846      	ldr	r0, [pc, #280]	@ (801544c <_create_file+0x184>)
 8015332:	f7ff fce7 	bl	8014d04 <fatfs_get_file_entry>
 8015336:	2801      	cmp	r0, #1
 8015338:	d023      	beq.n	8015382 <_create_file+0xba>
 801533a:	4632      	mov	r2, r6
 801533c:	2300      	movs	r3, #0
 801533e:	f842 3f04 	str.w	r3, [r2, #4]!
 8015342:	2301      	movs	r3, #1
 8015344:	4619      	mov	r1, r3
 8015346:	4841      	ldr	r0, [pc, #260]	@ (801544c <_create_file+0x184>)
 8015348:	f002 f961 	bl	801760e <fatfs_allocate_free_space>
 801534c:	bb88      	cbnz	r0, 80153b2 <_create_file+0xea>
 801534e:	4630      	mov	r0, r6
 8015350:	f7ff ff4e 	bl	80151f0 <_free_file>
 8015354:	2600      	movs	r6, #0
 8015356:	e05f      	b.n	8015418 <_create_file+0x150>
 8015358:	4630      	mov	r0, r6
 801535a:	f7ff ff49 	bl	80151f0 <_free_file>
 801535e:	2600      	movs	r6, #0
 8015360:	e05a      	b.n	8015418 <_create_file+0x150>
 8015362:	4630      	mov	r0, r6
 8015364:	f7ff ff44 	bl	80151f0 <_free_file>
 8015368:	2600      	movs	r6, #0
 801536a:	e055      	b.n	8015418 <_create_file+0x150>
 801536c:	4631      	mov	r1, r6
 801536e:	4628      	mov	r0, r5
 8015370:	f7ff ff70 	bl	8015254 <_open_directory>
 8015374:	2800      	cmp	r0, #0
 8015376:	d1d8      	bne.n	801532a <_create_file+0x62>
 8015378:	4630      	mov	r0, r6
 801537a:	f7ff ff39 	bl	80151f0 <_free_file>
 801537e:	2600      	movs	r6, #0
 8015380:	e04a      	b.n	8015418 <_create_file+0x150>
 8015382:	4630      	mov	r0, r6
 8015384:	f7ff ff34 	bl	80151f0 <_free_file>
 8015388:	2600      	movs	r6, #0
 801538a:	e045      	b.n	8015418 <_create_file+0x150>
 801538c:	4622      	mov	r2, r4
 801538e:	a905      	add	r1, sp, #20
 8015390:	f106 0094 	add.w	r0, r6, #148	@ 0x94
 8015394:	f001 fc6d 	bl	8016c72 <fatfs_lfn_generate_tail>
 8015398:	4635      	mov	r5, r6
 801539a:	f855 1b94 	ldr.w	r1, [r5], #148
 801539e:	462a      	mov	r2, r5
 80153a0:	482a      	ldr	r0, [pc, #168]	@ (801544c <_create_file+0x184>)
 80153a2:	f7ff fd44 	bl	8014e2e <fatfs_sfn_exists>
 80153a6:	b188      	cbz	r0, 80153cc <_create_file+0x104>
 80153a8:	3401      	adds	r4, #1
 80153aa:	f242 730e 	movw	r3, #9998	@ 0x270e
 80153ae:	429c      	cmp	r4, r3
 80153b0:	dc0c      	bgt.n	80153cc <_create_file+0x104>
 80153b2:	4639      	mov	r1, r7
 80153b4:	a805      	add	r0, sp, #20
 80153b6:	f001 fbf6 	bl	8016ba6 <fatfs_lfn_create_sfn>
 80153ba:	2c00      	cmp	r4, #0
 80153bc:	d1e6      	bne.n	801538c <_create_file+0xc4>
 80153be:	220b      	movs	r2, #11
 80153c0:	a905      	add	r1, sp, #20
 80153c2:	f106 0094 	add.w	r0, r6, #148	@ 0x94
 80153c6:	f7fd f8ed 	bl	80125a4 <memcpy>
 80153ca:	e7e5      	b.n	8015398 <_create_file+0xd0>
 80153cc:	f242 730f 	movw	r3, #9999	@ 0x270f
 80153d0:	429c      	cmp	r4, r3
 80153d2:	d024      	beq.n	801541e <_create_file+0x156>
 80153d4:	6831      	ldr	r1, [r6, #0]
 80153d6:	2300      	movs	r3, #0
 80153d8:	9302      	str	r3, [sp, #8]
 80153da:	9301      	str	r3, [sp, #4]
 80153dc:	6873      	ldr	r3, [r6, #4]
 80153de:	9300      	str	r3, [sp, #0]
 80153e0:	462b      	mov	r3, r5
 80153e2:	463a      	mov	r2, r7
 80153e4:	4819      	ldr	r0, [pc, #100]	@ (801544c <_create_file+0x184>)
 80153e6:	f002 f951 	bl	801768c <fatfs_add_file_entry>
 80153ea:	b308      	cbz	r0, 8015430 <_create_file+0x168>
 80153ec:	2300      	movs	r3, #0
 80153ee:	60f3      	str	r3, [r6, #12]
 80153f0:	60b3      	str	r3, [r6, #8]
 80153f2:	f04f 32ff 	mov.w	r2, #4294967295	@ 0xffffffff
 80153f6:	f8c6 22a8 	str.w	r2, [r6, #680]	@ 0x2a8
 80153fa:	f8c6 32ac 	str.w	r3, [r6, #684]	@ 0x2ac
 80153fe:	6133      	str	r3, [r6, #16]
 8015400:	f8c6 20a0 	str.w	r2, [r6, #160]	@ 0xa0
 8015404:	f8c6 20a4 	str.w	r2, [r6, #164]	@ 0xa4
 8015408:	4c10      	ldr	r4, [pc, #64]	@ (801544c <_create_file+0x184>)
 801540a:	4631      	mov	r1, r6
 801540c:	4620      	mov	r0, r4
 801540e:	f7ff fe91 	bl	8015134 <fatfs_cache_init>
 8015412:	4620      	mov	r0, r4
 8015414:	f001 febb 	bl	801718e <fatfs_fat_purge>
 8015418:	4630      	mov	r0, r6
 801541a:	b011      	add	sp, #68	@ 0x44
 801541c:	bdf0      	pop	{r4, r5, r6, r7, pc}
 801541e:	6871      	ldr	r1, [r6, #4]
 8015420:	480a      	ldr	r0, [pc, #40]	@ (801544c <_create_file+0x184>)
 8015422:	f001 ffce 	bl	80173c2 <fatfs_free_cluster_chain>
 8015426:	4630      	mov	r0, r6
 8015428:	f7ff fee2 	bl	80151f0 <_free_file>
 801542c:	2600      	movs	r6, #0
 801542e:	e7f3      	b.n	8015418 <_create_file+0x150>
 8015430:	6871      	ldr	r1, [r6, #4]
 8015432:	4806      	ldr	r0, [pc, #24]	@ (801544c <_create_file+0x184>)
 8015434:	f001 ffc5 	bl	80173c2 <fatfs_free_cluster_chain>
 8015438:	4630      	mov	r0, r6
 801543a:	f7ff fed9 	bl	80151f0 <_free_file>
 801543e:	2600      	movs	r6, #0
 8015440:	e7ea      	b.n	8015418 <_create_file+0x150>
 8015442:	2600      	movs	r6, #0
 8015444:	e7e8      	b.n	8015418 <_create_file+0x150>
 8015446:	bf00      	nop
 8015448:	200007c0 	.word	0x200007c0
 801544c:	200007d0 	.word	0x200007d0

08015450 <_open_file>:
 8015450:	b5f0      	push	{r4, r5, r6, r7, lr}
 8015452:	b08b      	sub	sp, #44	@ 0x2c
 8015454:	4605      	mov	r5, r0
 8015456:	f7ff feb9 	bl	80151cc <_allocate_file>
 801545a:	4604      	mov	r4, r0
 801545c:	b380      	cbz	r0, 80154c0 <_open_file+0x70>
 801545e:	f100 0714 	add.w	r7, r0, #20
 8015462:	2240      	movs	r2, #64	@ 0x40
 8015464:	2100      	movs	r1, #0
 8015466:	4638      	mov	r0, r7
 8015468:	f7fd f895 	bl	8012596 <memset>
 801546c:	f104 0654 	add.w	r6, r4, #84	@ 0x54
 8015470:	2240      	movs	r2, #64	@ 0x40
 8015472:	2100      	movs	r1, #0
 8015474:	4630      	mov	r0, r6
 8015476:	f7fd f88e 	bl	8012596 <memset>
 801547a:	2240      	movs	r2, #64	@ 0x40
 801547c:	9200      	str	r2, [sp, #0]
 801547e:	4633      	mov	r3, r6
 8015480:	4639      	mov	r1, r7
 8015482:	4628      	mov	r0, r5
 8015484:	f001 fccf 	bl	8016e26 <fatfs_split_path>
 8015488:	f1b0 3fff 	cmp.w	r0, #4294967295	@ 0xffffffff
 801548c:	d01b      	beq.n	80154c6 <_open_file+0x76>
 801548e:	4620      	mov	r0, r4
 8015490:	f7ff febe 	bl	8015210 <_check_file_open>
 8015494:	b9e0      	cbnz	r0, 80154d0 <_open_file+0x80>
 8015496:	7d23      	ldrb	r3, [r4, #20]
 8015498:	b9fb      	cbnz	r3, 80154da <_open_file+0x8a>
 801549a:	4828      	ldr	r0, [pc, #160]	@ (801553c <_open_file+0xec>)
 801549c:	f7ff fc30 	bl	8014d00 <fatfs_get_root_cluster>
 80154a0:	6020      	str	r0, [r4, #0]
 80154a2:	ab02      	add	r3, sp, #8
 80154a4:	4632      	mov	r2, r6
 80154a6:	6821      	ldr	r1, [r4, #0]
 80154a8:	4824      	ldr	r0, [pc, #144]	@ (801553c <_open_file+0xec>)
 80154aa:	f7ff fc2b 	bl	8014d04 <fatfs_get_file_entry>
 80154ae:	b118      	cbz	r0, 80154b8 <_open_file+0x68>
 80154b0:	a802      	add	r0, sp, #8
 80154b2:	f001 fad6 	bl	8016a62 <fatfs_entry_is_file>
 80154b6:	b9d8      	cbnz	r0, 80154f0 <_open_file+0xa0>
 80154b8:	4620      	mov	r0, r4
 80154ba:	f7ff fe99 	bl	80151f0 <_free_file>
 80154be:	2400      	movs	r4, #0
 80154c0:	4620      	mov	r0, r4
 80154c2:	b00b      	add	sp, #44	@ 0x2c
 80154c4:	bdf0      	pop	{r4, r5, r6, r7, pc}
 80154c6:	4620      	mov	r0, r4
 80154c8:	f7ff fe92 	bl	80151f0 <_free_file>
 80154cc:	2400      	movs	r4, #0
 80154ce:	e7f7      	b.n	80154c0 <_open_file+0x70>
 80154d0:	4620      	mov	r0, r4
 80154d2:	f7ff fe8d 	bl	80151f0 <_free_file>
 80154d6:	2400      	movs	r4, #0
 80154d8:	e7f2      	b.n	80154c0 <_open_file+0x70>
 80154da:	4621      	mov	r1, r4
 80154dc:	4638      	mov	r0, r7
 80154de:	f7ff feb9 	bl	8015254 <_open_directory>
 80154e2:	2800      	cmp	r0, #0
 80154e4:	d1dd      	bne.n	80154a2 <_open_file+0x52>
 80154e6:	4620      	mov	r0, r4
 80154e8:	f7ff fe82 	bl	80151f0 <_free_file>
 80154ec:	2400      	movs	r4, #0
 80154ee:	e7e7      	b.n	80154c0 <_open_file+0x70>
 80154f0:	220b      	movs	r2, #11
 80154f2:	a902      	add	r1, sp, #8
 80154f4:	f104 0094 	add.w	r0, r4, #148	@ 0x94
 80154f8:	f7fd f854 	bl	80125a4 <memcpy>
 80154fc:	9b09      	ldr	r3, [sp, #36]	@ 0x24
 80154fe:	60e3      	str	r3, [r4, #12]
 8015500:	2200      	movs	r2, #0
 8015502:	60a2      	str	r2, [r4, #8]
 8015504:	f8bd 101c 	ldrh.w	r1, [sp, #28]
 8015508:	f8bd 3022 	ldrh.w	r3, [sp, #34]	@ 0x22
 801550c:	eb03 4301 	add.w	r3, r3, r1, lsl #16
 8015510:	6063      	str	r3, [r4, #4]
 8015512:	f04f 33ff 	mov.w	r3, #4294967295	@ 0xffffffff
 8015516:	f8c4 32a8 	str.w	r3, [r4, #680]	@ 0x2a8
 801551a:	f8c4 22ac 	str.w	r2, [r4, #684]	@ 0x2ac
 801551e:	6122      	str	r2, [r4, #16]
 8015520:	f8c4 30a0 	str.w	r3, [r4, #160]	@ 0xa0
 8015524:	f8c4 30a4 	str.w	r3, [r4, #164]	@ 0xa4
 8015528:	4d04      	ldr	r5, [pc, #16]	@ (801553c <_open_file+0xec>)
 801552a:	4621      	mov	r1, r4
 801552c:	4628      	mov	r0, r5
 801552e:	f7ff fe01 	bl	8015134 <fatfs_cache_init>
 8015532:	4628      	mov	r0, r5
 8015534:	f001 fe2b 	bl	801718e <fatfs_fat_purge>
 8015538:	e7c2      	b.n	80154c0 <_open_file+0x70>
 801553a:	bf00      	nop
 801553c:	200007d0 	.word	0x200007d0

08015540 <_write_sectors>:
 8015540:	e92d 4ff0 	stmdb	sp!, {r4, r5, r6, r7, r8, r9, sl, fp, lr}
 8015544:	b085      	sub	sp, #20
 8015546:	4606      	mov	r6, r0
 8015548:	9201      	str	r2, [sp, #4]
 801554a:	469a      	mov	sl, r3
 801554c:	f04f 33ff 	mov.w	r3, #4294967295	@ 0xffffffff
 8015550:	9303      	str	r3, [sp, #12]
 8015552:	4b36      	ldr	r3, [pc, #216]	@ (801562c <_write_sectors+0xec>)
 8015554:	7c1b      	ldrb	r3, [r3, #16]
 8015556:	fbb1 f7f3 	udiv	r7, r1, r3
 801555a:	fb07 f803 	mul.w	r8, r7, r3
 801555e:	eba1 0b08 	sub.w	fp, r1, r8
 8015562:	eb0a 020b 	add.w	r2, sl, fp
 8015566:	4293      	cmp	r3, r2
 8015568:	d203      	bcs.n	8015572 <_write_sectors+0x32>
 801556a:	eba8 0801 	sub.w	r8, r8, r1
 801556e:	4498      	add	r8, r3
 8015570:	e000      	b.n	8015574 <_write_sectors+0x34>
 8015572:	46d0      	mov	r8, sl
 8015574:	f8d6 40a0 	ldr.w	r4, [r6, #160]	@ 0xa0
 8015578:	42bc      	cmp	r4, r7
 801557a:	d007      	beq.n	801558c <_write_sectors+0x4c>
 801557c:	428b      	cmp	r3, r1
 801557e:	d802      	bhi.n	8015586 <_write_sectors+0x46>
 8015580:	1c63      	adds	r3, r4, #1
 8015582:	42bb      	cmp	r3, r7
 8015584:	d005      	beq.n	8015592 <_write_sectors+0x52>
 8015586:	6875      	ldr	r5, [r6, #4]
 8015588:	2400      	movs	r4, #0
 801558a:	e00b      	b.n	80155a4 <_write_sectors+0x64>
 801558c:	f8d6 50a4 	ldr.w	r5, [r6, #164]	@ 0xa4
 8015590:	e027      	b.n	80155e2 <_write_sectors+0xa2>
 8015592:	f8d6 50a4 	ldr.w	r5, [r6, #164]	@ 0xa4
 8015596:	e005      	b.n	80155a4 <_write_sectors+0x64>
 8015598:	9503      	str	r5, [sp, #12]
 801559a:	9d02      	ldr	r5, [sp, #8]
 801559c:	f1b5 3fff 	cmp.w	r5, #4294967295	@ 0xffffffff
 80155a0:	d018      	beq.n	80155d4 <_write_sectors+0x94>
 80155a2:	3401      	adds	r4, #1
 80155a4:	42bc      	cmp	r4, r7
 80155a6:	d215      	bcs.n	80155d4 <_write_sectors+0x94>
 80155a8:	ab02      	add	r3, sp, #8
 80155aa:	4622      	mov	r2, r4
 80155ac:	4631      	mov	r1, r6
 80155ae:	4820      	ldr	r0, [pc, #128]	@ (8015630 <_write_sectors+0xf0>)
 80155b0:	f7ff fdc2 	bl	8015138 <fatfs_cache_get_next_cluster>
 80155b4:	2800      	cmp	r0, #0
 80155b6:	d1ef      	bne.n	8015598 <_write_sectors+0x58>
 80155b8:	f8df 9074 	ldr.w	r9, [pc, #116]	@ 8015630 <_write_sectors+0xf0>
 80155bc:	4629      	mov	r1, r5
 80155be:	4648      	mov	r0, r9
 80155c0:	f001 fdfc 	bl	80171bc <fatfs_find_next_cluster>
 80155c4:	4603      	mov	r3, r0
 80155c6:	9002      	str	r0, [sp, #8]
 80155c8:	4622      	mov	r2, r4
 80155ca:	4631      	mov	r1, r6
 80155cc:	4648      	mov	r0, r9
 80155ce:	f7ff fdb5 	bl	801513c <fatfs_cache_set_next_cluster>
 80155d2:	e7e1      	b.n	8015598 <_write_sectors+0x58>
 80155d4:	f1b5 3fff 	cmp.w	r5, #4294967295	@ 0xffffffff
 80155d8:	d014      	beq.n	8015604 <_write_sectors+0xc4>
 80155da:	f8c6 50a4 	str.w	r5, [r6, #164]	@ 0xa4
 80155de:	f8c6 70a0 	str.w	r7, [r6, #160]	@ 0xa0
 80155e2:	4c13      	ldr	r4, [pc, #76]	@ (8015630 <_write_sectors+0xf0>)
 80155e4:	4629      	mov	r1, r5
 80155e6:	4620      	mov	r0, r4
 80155e8:	f7ff fa8e 	bl	8014b08 <fatfs_lba_of_cluster>
 80155ec:	4643      	mov	r3, r8
 80155ee:	9a01      	ldr	r2, [sp, #4]
 80155f0:	eb00 010b 	add.w	r1, r0, fp
 80155f4:	4620      	mov	r0, r4
 80155f6:	f7ff faa1 	bl	8014b3c <fatfs_sector_write>
 80155fa:	b1a0      	cbz	r0, 8015626 <_write_sectors+0xe6>
 80155fc:	4640      	mov	r0, r8
 80155fe:	b005      	add	sp, #20
 8015600:	e8bd 8ff0 	ldmia.w	sp!, {r4, r5, r6, r7, r8, r9, sl, fp, pc}
 8015604:	4809      	ldr	r0, [pc, #36]	@ (801562c <_write_sectors+0xec>)
 8015606:	f810 2f10 	ldrb.w	r2, [r0, #16]!
 801560a:	4492      	add	sl, r2
 801560c:	f10a 3aff 	add.w	sl, sl, #4294967295	@ 0xffffffff
 8015610:	fbba f2f2 	udiv	r2, sl, r2
 8015614:	a903      	add	r1, sp, #12
 8015616:	f001 ffc8 	bl	80175aa <fatfs_add_free_space>
 801561a:	b108      	cbz	r0, 8015620 <_write_sectors+0xe0>
 801561c:	9d03      	ldr	r5, [sp, #12]
 801561e:	e7dc      	b.n	80155da <_write_sectors+0x9a>
 8015620:	f04f 0800 	mov.w	r8, #0
 8015624:	e7ea      	b.n	80155fc <_write_sectors+0xbc>
 8015626:	f04f 0800 	mov.w	r8, #0
 801562a:	e7e7      	b.n	80155fc <_write_sectors+0xbc>
 801562c:	200007c0 	.word	0x200007c0
 8015630:	200007d0 	.word	0x200007d0

08015634 <_read_sectors>:
 8015634:	e92d 4ff0 	stmdb	sp!, {r4, r5, r6, r7, r8, r9, sl, fp, lr}
 8015638:	b083      	sub	sp, #12
 801563a:	4605      	mov	r5, r0
 801563c:	4691      	mov	r9, r2
 801563e:	4698      	mov	r8, r3
 8015640:	4b2c      	ldr	r3, [pc, #176]	@ (80156f4 <_read_sectors+0xc0>)
 8015642:	7c1b      	ldrb	r3, [r3, #16]
 8015644:	fbb1 f7f3 	udiv	r7, r1, r3
 8015648:	fb07 f203 	mul.w	r2, r7, r3
 801564c:	eba1 0a02 	sub.w	sl, r1, r2
 8015650:	eb0a 0008 	add.w	r0, sl, r8
 8015654:	4283      	cmp	r3, r0
 8015656:	d202      	bcs.n	801565e <_read_sectors+0x2a>
 8015658:	1a52      	subs	r2, r2, r1
 801565a:	eb02 0803 	add.w	r8, r2, r3
 801565e:	f8d5 40a0 	ldr.w	r4, [r5, #160]	@ 0xa0
 8015662:	42bc      	cmp	r4, r7
 8015664:	d007      	beq.n	8015676 <_read_sectors+0x42>
 8015666:	428b      	cmp	r3, r1
 8015668:	d802      	bhi.n	8015670 <_read_sectors+0x3c>
 801566a:	1c63      	adds	r3, r4, #1
 801566c:	42bb      	cmp	r3, r7
 801566e:	d005      	beq.n	801567c <_read_sectors+0x48>
 8015670:	686e      	ldr	r6, [r5, #4]
 8015672:	2400      	movs	r4, #0
 8015674:	e007      	b.n	8015686 <_read_sectors+0x52>
 8015676:	f8d5 60a4 	ldr.w	r6, [r5, #164]	@ 0xa4
 801567a:	e023      	b.n	80156c4 <_read_sectors+0x90>
 801567c:	f8d5 60a4 	ldr.w	r6, [r5, #164]	@ 0xa4
 8015680:	e001      	b.n	8015686 <_read_sectors+0x52>
 8015682:	9e01      	ldr	r6, [sp, #4]
 8015684:	3401      	adds	r4, #1
 8015686:	42bc      	cmp	r4, r7
 8015688:	d215      	bcs.n	80156b6 <_read_sectors+0x82>
 801568a:	ab01      	add	r3, sp, #4
 801568c:	4622      	mov	r2, r4
 801568e:	4629      	mov	r1, r5
 8015690:	4819      	ldr	r0, [pc, #100]	@ (80156f8 <_read_sectors+0xc4>)
 8015692:	f7ff fd51 	bl	8015138 <fatfs_cache_get_next_cluster>
 8015696:	2800      	cmp	r0, #0
 8015698:	d1f3      	bne.n	8015682 <_read_sectors+0x4e>
 801569a:	f8df b05c 	ldr.w	fp, [pc, #92]	@ 80156f8 <_read_sectors+0xc4>
 801569e:	4631      	mov	r1, r6
 80156a0:	4658      	mov	r0, fp
 80156a2:	f001 fd8b 	bl	80171bc <fatfs_find_next_cluster>
 80156a6:	4603      	mov	r3, r0
 80156a8:	9001      	str	r0, [sp, #4]
 80156aa:	4622      	mov	r2, r4
 80156ac:	4629      	mov	r1, r5
 80156ae:	4658      	mov	r0, fp
 80156b0:	f7ff fd44 	bl	801513c <fatfs_cache_set_next_cluster>
 80156b4:	e7e5      	b.n	8015682 <_read_sectors+0x4e>
 80156b6:	f1b6 3fff 	cmp.w	r6, #4294967295	@ 0xffffffff
 80156ba:	d015      	beq.n	80156e8 <_read_sectors+0xb4>
 80156bc:	f8c5 60a4 	str.w	r6, [r5, #164]	@ 0xa4
 80156c0:	f8c5 70a0 	str.w	r7, [r5, #160]	@ 0xa0
 80156c4:	f1b6 3fff 	cmp.w	r6, #4294967295	@ 0xffffffff
 80156c8:	d00e      	beq.n	80156e8 <_read_sectors+0xb4>
 80156ca:	4c0b      	ldr	r4, [pc, #44]	@ (80156f8 <_read_sectors+0xc4>)
 80156cc:	4631      	mov	r1, r6
 80156ce:	4620      	mov	r0, r4
 80156d0:	f7ff fa1a 	bl	8014b08 <fatfs_lba_of_cluster>
 80156d4:	4643      	mov	r3, r8
 80156d6:	464a      	mov	r2, r9
 80156d8:	eb00 010a 	add.w	r1, r0, sl
 80156dc:	4620      	mov	r0, r4
 80156de:	f7ff fa25 	bl	8014b2c <fatfs_sector_read>
 80156e2:	b128      	cbz	r0, 80156f0 <_read_sectors+0xbc>
 80156e4:	4640      	mov	r0, r8
 80156e6:	e000      	b.n	80156ea <_read_sectors+0xb6>
 80156e8:	2000      	movs	r0, #0
 80156ea:	b003      	add	sp, #12
 80156ec:	e8bd 8ff0 	ldmia.w	sp!, {r4, r5, r6, r7, r8, r9, sl, fp, pc}
 80156f0:	2000      	movs	r0, #0
 80156f2:	e7fa      	b.n	80156ea <_read_sectors+0xb6>
 80156f4:	200007c0 	.word	0x200007c0
 80156f8:	200007d0 	.word	0x200007d0

080156fc <_create_directory>:
 80156fc:	e92d 43f0 	stmdb	sp!, {r4, r5, r6, r7, r8, r9, lr}
 8015700:	b091      	sub	sp, #68	@ 0x44
 8015702:	4605      	mov	r5, r0
 8015704:	f7ff fd62 	bl	80151cc <_allocate_file>
 8015708:	2800      	cmp	r0, #0
 801570a:	f000 80cc 	beq.w	80158a6 <_create_directory+0x1aa>
 801570e:	4604      	mov	r4, r0
 8015710:	f100 0614 	add.w	r6, r0, #20
 8015714:	2240      	movs	r2, #64	@ 0x40
 8015716:	2100      	movs	r1, #0
 8015718:	4630      	mov	r0, r6
 801571a:	f7fc ff3c 	bl	8012596 <memset>
 801571e:	f104 0754 	add.w	r7, r4, #84	@ 0x54
 8015722:	2240      	movs	r2, #64	@ 0x40
 8015724:	2100      	movs	r1, #0
 8015726:	4638      	mov	r0, r7
 8015728:	f7fc ff35 	bl	8012596 <memset>
 801572c:	2240      	movs	r2, #64	@ 0x40
 801572e:	9200      	str	r2, [sp, #0]
 8015730:	463b      	mov	r3, r7
 8015732:	4631      	mov	r1, r6
 8015734:	4628      	mov	r0, r5
 8015736:	f001 fb76 	bl	8016e26 <fatfs_split_path>
 801573a:	f1b0 3fff 	cmp.w	r0, #4294967295	@ 0xffffffff
 801573e:	d027      	beq.n	8015790 <_create_directory+0x94>
 8015740:	4620      	mov	r0, r4
 8015742:	f7ff fd65 	bl	8015210 <_check_file_open>
 8015746:	4680      	mov	r8, r0
 8015748:	bb38      	cbnz	r0, 801579a <_create_directory+0x9e>
 801574a:	7d23      	ldrb	r3, [r4, #20]
 801574c:	bb53      	cbnz	r3, 80157a4 <_create_directory+0xa8>
 801574e:	4858      	ldr	r0, [pc, #352]	@ (80158b0 <_create_directory+0x1b4>)
 8015750:	f7ff fad6 	bl	8014d00 <fatfs_get_root_cluster>
 8015754:	6020      	str	r0, [r4, #0]
 8015756:	ab08      	add	r3, sp, #32
 8015758:	463a      	mov	r2, r7
 801575a:	6821      	ldr	r1, [r4, #0]
 801575c:	4854      	ldr	r0, [pc, #336]	@ (80158b0 <_create_directory+0x1b4>)
 801575e:	f7ff fad1 	bl	8014d04 <fatfs_get_file_entry>
 8015762:	2801      	cmp	r0, #1
 8015764:	d029      	beq.n	80157ba <_create_directory+0xbe>
 8015766:	4622      	mov	r2, r4
 8015768:	2300      	movs	r3, #0
 801576a:	f842 3f04 	str.w	r3, [r2, #4]!
 801576e:	2301      	movs	r3, #1
 8015770:	4619      	mov	r1, r3
 8015772:	484f      	ldr	r0, [pc, #316]	@ (80158b0 <_create_directory+0x1b4>)
 8015774:	f001 ff4b 	bl	801760e <fatfs_allocate_free_space>
 8015778:	4606      	mov	r6, r0
 801577a:	b318      	cbz	r0, 80157c4 <_create_directory+0xc8>
 801577c:	f104 09a8 	add.w	r9, r4, #168	@ 0xa8
 8015780:	f44f 7200 	mov.w	r2, #512	@ 0x200
 8015784:	2100      	movs	r1, #0
 8015786:	4648      	mov	r0, r9
 8015788:	f7fc ff05 	bl	8012596 <memset>
 801578c:	4645      	mov	r5, r8
 801578e:	e01e      	b.n	80157ce <_create_directory+0xd2>
 8015790:	4620      	mov	r0, r4
 8015792:	f7ff fd2d 	bl	80151f0 <_free_file>
 8015796:	2600      	movs	r6, #0
 8015798:	e086      	b.n	80158a8 <_create_directory+0x1ac>
 801579a:	4620      	mov	r0, r4
 801579c:	f7ff fd28 	bl	80151f0 <_free_file>
 80157a0:	2600      	movs	r6, #0
 80157a2:	e081      	b.n	80158a8 <_create_directory+0x1ac>
 80157a4:	4621      	mov	r1, r4
 80157a6:	4630      	mov	r0, r6
 80157a8:	f7ff fd54 	bl	8015254 <_open_directory>
 80157ac:	4606      	mov	r6, r0
 80157ae:	2800      	cmp	r0, #0
 80157b0:	d1d1      	bne.n	8015756 <_create_directory+0x5a>
 80157b2:	4620      	mov	r0, r4
 80157b4:	f7ff fd1c 	bl	80151f0 <_free_file>
 80157b8:	e076      	b.n	80158a8 <_create_directory+0x1ac>
 80157ba:	4620      	mov	r0, r4
 80157bc:	f7ff fd18 	bl	80151f0 <_free_file>
 80157c0:	4646      	mov	r6, r8
 80157c2:	e071      	b.n	80158a8 <_create_directory+0x1ac>
 80157c4:	4620      	mov	r0, r4
 80157c6:	f7ff fd13 	bl	80151f0 <_free_file>
 80157ca:	e06d      	b.n	80158a8 <_create_directory+0x1ac>
 80157cc:	3501      	adds	r5, #1
 80157ce:	4b39      	ldr	r3, [pc, #228]	@ (80158b4 <_create_directory+0x1b8>)
 80157d0:	7c1b      	ldrb	r3, [r3, #16]
 80157d2:	42ab      	cmp	r3, r5
 80157d4:	dd0c      	ble.n	80157f0 <_create_directory+0xf4>
 80157d6:	464b      	mov	r3, r9
 80157d8:	462a      	mov	r2, r5
 80157da:	6861      	ldr	r1, [r4, #4]
 80157dc:	4834      	ldr	r0, [pc, #208]	@ (80158b0 <_create_directory+0x1b4>)
 80157de:	f7ff fa2a 	bl	8014c36 <fatfs_write_sector>
 80157e2:	4606      	mov	r6, r0
 80157e4:	2800      	cmp	r0, #0
 80157e6:	d1f1      	bne.n	80157cc <_create_directory+0xd0>
 80157e8:	4620      	mov	r0, r4
 80157ea:	f7ff fd01 	bl	80151f0 <_free_file>
 80157ee:	e05b      	b.n	80158a8 <_create_directory+0x1ac>
 80157f0:	4645      	mov	r5, r8
 80157f2:	e012      	b.n	801581a <_create_directory+0x11e>
 80157f4:	220b      	movs	r2, #11
 80157f6:	a905      	add	r1, sp, #20
 80157f8:	f104 0094 	add.w	r0, r4, #148	@ 0x94
 80157fc:	f7fc fed2 	bl	80125a4 <memcpy>
 8015800:	4626      	mov	r6, r4
 8015802:	f856 1b94 	ldr.w	r1, [r6], #148
 8015806:	4632      	mov	r2, r6
 8015808:	4829      	ldr	r0, [pc, #164]	@ (80158b0 <_create_directory+0x1b4>)
 801580a:	f7ff fb10 	bl	8014e2e <fatfs_sfn_exists>
 801580e:	b188      	cbz	r0, 8015834 <_create_directory+0x138>
 8015810:	3501      	adds	r5, #1
 8015812:	f242 730e 	movw	r3, #9998	@ 0x270e
 8015816:	429d      	cmp	r5, r3
 8015818:	dc0c      	bgt.n	8015834 <_create_directory+0x138>
 801581a:	4639      	mov	r1, r7
 801581c:	a805      	add	r0, sp, #20
 801581e:	f001 f9c2 	bl	8016ba6 <fatfs_lfn_create_sfn>
 8015822:	2d00      	cmp	r5, #0
 8015824:	d0e6      	beq.n	80157f4 <_create_directory+0xf8>
 8015826:	462a      	mov	r2, r5
 8015828:	a905      	add	r1, sp, #20
 801582a:	f104 0094 	add.w	r0, r4, #148	@ 0x94
 801582e:	f001 fa20 	bl	8016c72 <fatfs_lfn_generate_tail>
 8015832:	e7e5      	b.n	8015800 <_create_directory+0x104>
 8015834:	f242 730f 	movw	r3, #9999	@ 0x270f
 8015838:	429d      	cmp	r5, r3
 801583a:	d023      	beq.n	8015884 <_create_directory+0x188>
 801583c:	6821      	ldr	r1, [r4, #0]
 801583e:	2301      	movs	r3, #1
 8015840:	9302      	str	r3, [sp, #8]
 8015842:	2300      	movs	r3, #0
 8015844:	9301      	str	r3, [sp, #4]
 8015846:	6863      	ldr	r3, [r4, #4]
 8015848:	9300      	str	r3, [sp, #0]
 801584a:	4633      	mov	r3, r6
 801584c:	463a      	mov	r2, r7
 801584e:	4818      	ldr	r0, [pc, #96]	@ (80158b0 <_create_directory+0x1b4>)
 8015850:	f001 ff1c 	bl	801768c <fatfs_add_file_entry>
 8015854:	4606      	mov	r6, r0
 8015856:	b1f0      	cbz	r0, 8015896 <_create_directory+0x19a>
 8015858:	2300      	movs	r3, #0
 801585a:	60e3      	str	r3, [r4, #12]
 801585c:	60a3      	str	r3, [r4, #8]
 801585e:	f04f 32ff 	mov.w	r2, #4294967295	@ 0xffffffff
 8015862:	f8c4 22a8 	str.w	r2, [r4, #680]	@ 0x2a8
 8015866:	f8c4 32ac 	str.w	r3, [r4, #684]	@ 0x2ac
 801586a:	6123      	str	r3, [r4, #16]
 801586c:	f8c4 20a0 	str.w	r2, [r4, #160]	@ 0xa0
 8015870:	f8c4 20a4 	str.w	r2, [r4, #164]	@ 0xa4
 8015874:	480e      	ldr	r0, [pc, #56]	@ (80158b0 <_create_directory+0x1b4>)
 8015876:	f001 fc8a 	bl	801718e <fatfs_fat_purge>
 801587a:	4620      	mov	r0, r4
 801587c:	f7ff fcb8 	bl	80151f0 <_free_file>
 8015880:	2601      	movs	r6, #1
 8015882:	e011      	b.n	80158a8 <_create_directory+0x1ac>
 8015884:	6861      	ldr	r1, [r4, #4]
 8015886:	480a      	ldr	r0, [pc, #40]	@ (80158b0 <_create_directory+0x1b4>)
 8015888:	f001 fd9b 	bl	80173c2 <fatfs_free_cluster_chain>
 801588c:	4620      	mov	r0, r4
 801588e:	f7ff fcaf 	bl	80151f0 <_free_file>
 8015892:	4646      	mov	r6, r8
 8015894:	e008      	b.n	80158a8 <_create_directory+0x1ac>
 8015896:	6861      	ldr	r1, [r4, #4]
 8015898:	4805      	ldr	r0, [pc, #20]	@ (80158b0 <_create_directory+0x1b4>)
 801589a:	f001 fd92 	bl	80173c2 <fatfs_free_cluster_chain>
 801589e:	4620      	mov	r0, r4
 80158a0:	f7ff fca6 	bl	80151f0 <_free_file>
 80158a4:	e000      	b.n	80158a8 <_create_directory+0x1ac>
 80158a6:	2600      	movs	r6, #0
 80158a8:	4630      	mov	r0, r6
 80158aa:	b011      	add	sp, #68	@ 0x44
 80158ac:	e8bd 83f0 	ldmia.w	sp!, {r4, r5, r6, r7, r8, r9, pc}
 80158b0:	200007d0 	.word	0x200007d0
 80158b4:	200007c0 	.word	0x200007c0

080158b8 <fl_init>:
 80158b8:	b510      	push	{r4, lr}
 80158ba:	4c0f      	ldr	r4, [pc, #60]	@ (80158f8 <fl_init+0x40>)
 80158bc:	4620      	mov	r0, r4
 80158be:	f7ff fc3f 	bl	8015140 <fat_list_init>
 80158c2:	f104 0008 	add.w	r0, r4, #8
 80158c6:	f7ff fc3b 	bl	8015140 <fat_list_init>
 80158ca:	2400      	movs	r4, #0
 80158cc:	e00d      	b.n	80158ea <fl_init+0x32>
 80158ce:	480a      	ldr	r0, [pc, #40]	@ (80158f8 <fl_init+0x40>)
 80158d0:	f200 4174 	addw	r1, r0, #1140	@ 0x474
 80158d4:	f44f 732f 	mov.w	r3, #700	@ 0x2bc
 80158d8:	fb04 f303 	mul.w	r3, r4, r3
 80158dc:	f503 732c 	add.w	r3, r3, #688	@ 0x2b0
 80158e0:	4419      	add	r1, r3
 80158e2:	3104      	adds	r1, #4
 80158e4:	f7ff fc5f 	bl	80151a6 <fat_list_insert_last>
 80158e8:	3401      	adds	r4, #1
 80158ea:	2c02      	cmp	r4, #2
 80158ec:	ddef      	ble.n	80158ce <fl_init+0x16>
 80158ee:	4b02      	ldr	r3, [pc, #8]	@ (80158f8 <fl_init+0x40>)
 80158f0:	2201      	movs	r2, #1
 80158f2:	f8c3 2ca8 	str.w	r2, [r3, #3240]	@ 0xca8
 80158f6:	bd10      	pop	{r4, pc}
 80158f8:	200007c0 	.word	0x200007c0

080158fc <fl_attach_locks>:
 80158fc:	4b01      	ldr	r3, [pc, #4]	@ (8015904 <fl_attach_locks+0x8>)
 80158fe:	6498      	str	r0, [r3, #72]	@ 0x48
 8015900:	64d9      	str	r1, [r3, #76]	@ 0x4c
 8015902:	4770      	bx	lr
 8015904:	200007c0 	.word	0x200007c0

08015908 <fl_attach_media>:
 8015908:	b538      	push	{r3, r4, r5, lr}
 801590a:	4605      	mov	r5, r0
 801590c:	460c      	mov	r4, r1
 801590e:	4b0d      	ldr	r3, [pc, #52]	@ (8015944 <fl_attach_media+0x3c>)
 8015910:	f8d3 3ca8 	ldr.w	r3, [r3, #3240]	@ 0xca8
 8015914:	b16b      	cbz	r3, 8015932 <fl_attach_media+0x2a>
 8015916:	480b      	ldr	r0, [pc, #44]	@ (8015944 <fl_attach_media+0x3c>)
 8015918:	6405      	str	r5, [r0, #64]	@ 0x40
 801591a:	6444      	str	r4, [r0, #68]	@ 0x44
 801591c:	3010      	adds	r0, #16
 801591e:	f7fe ffcf 	bl	80148c0 <fatfs_init>
 8015922:	4604      	mov	r4, r0
 8015924:	b940      	cbnz	r0, 8015938 <fl_attach_media+0x30>
 8015926:	4b07      	ldr	r3, [pc, #28]	@ (8015944 <fl_attach_media+0x3c>)
 8015928:	2201      	movs	r2, #1
 801592a:	f8c3 2cac 	str.w	r2, [r3, #3244]	@ 0xcac
 801592e:	4620      	mov	r0, r4
 8015930:	bd38      	pop	{r3, r4, r5, pc}
 8015932:	f7ff ffc1 	bl	80158b8 <fl_init>
 8015936:	e7ee      	b.n	8015916 <fl_attach_media+0xe>
 8015938:	4601      	mov	r1, r0
 801593a:	4803      	ldr	r0, [pc, #12]	@ (8015948 <fl_attach_media+0x40>)
 801593c:	f7fb f9a2 	bl	8010c84 <kprintf>
 8015940:	e7f5      	b.n	801592e <fl_attach_media+0x26>
 8015942:	bf00      	nop
 8015944:	200007c0 	.word	0x200007c0
 8015948:	0801a294 	.word	0x0801a294

0801594c <fl_shutdown>:
 801594c:	b510      	push	{r4, lr}
 801594e:	4b0a      	ldr	r3, [pc, #40]	@ (8015978 <fl_shutdown+0x2c>)
 8015950:	f8d3 3ca8 	ldr.w	r3, [r3, #3240]	@ 0xca8
 8015954:	b163      	cbz	r3, 8015970 <fl_shutdown+0x24>
 8015956:	4b08      	ldr	r3, [pc, #32]	@ (8015978 <fl_shutdown+0x2c>)
 8015958:	6c9b      	ldr	r3, [r3, #72]	@ 0x48
 801595a:	b103      	cbz	r3, 801595e <fl_shutdown+0x12>
 801595c:	4798      	blx	r3
 801595e:	4c06      	ldr	r4, [pc, #24]	@ (8015978 <fl_shutdown+0x2c>)
 8015960:	f104 0010 	add.w	r0, r4, #16
 8015964:	f001 fc13 	bl	801718e <fatfs_fat_purge>
 8015968:	6ce3      	ldr	r3, [r4, #76]	@ 0x4c
 801596a:	b103      	cbz	r3, 801596e <fl_shutdown+0x22>
 801596c:	4798      	blx	r3
 801596e:	bd10      	pop	{r4, pc}
 8015970:	f7ff ffa2 	bl	80158b8 <fl_init>
 8015974:	e7ef      	b.n	8015956 <fl_shutdown+0xa>
 8015976:	bf00      	nop
 8015978:	200007c0 	.word	0x200007c0

0801597c <fl_fopen>:
 801597c:	b5f8      	push	{r3, r4, r5, r6, r7, lr}
 801597e:	4607      	mov	r7, r0
 8015980:	460d      	mov	r5, r1
 8015982:	4b77      	ldr	r3, [pc, #476]	@ (8015b60 <fl_fopen+0x1e4>)
 8015984:	f8d3 3ca8 	ldr.w	r3, [r3, #3240]	@ 0xca8
 8015988:	b173      	cbz	r3, 80159a8 <fl_fopen+0x2c>
 801598a:	4b75      	ldr	r3, [pc, #468]	@ (8015b60 <fl_fopen+0x1e4>)
 801598c:	f8d3 3cac 	ldr.w	r3, [r3, #3244]	@ 0xcac
 8015990:	2b00      	cmp	r3, #0
 8015992:	f000 80e0 	beq.w	8015b56 <fl_fopen+0x1da>
 8015996:	2f00      	cmp	r7, #0
 8015998:	f000 80df 	beq.w	8015b5a <fl_fopen+0x1de>
 801599c:	2d00      	cmp	r5, #0
 801599e:	f000 80c4 	beq.w	8015b2a <fl_fopen+0x1ae>
 80159a2:	2600      	movs	r6, #0
 80159a4:	4634      	mov	r4, r6
 80159a6:	e005      	b.n	80159b4 <fl_fopen+0x38>
 80159a8:	f7ff ff86 	bl	80158b8 <fl_init>
 80159ac:	e7ed      	b.n	801598a <fl_fopen+0xe>
 80159ae:	f046 0601 	orr.w	r6, r6, #1
 80159b2:	3401      	adds	r4, #1
 80159b4:	4628      	mov	r0, r5
 80159b6:	f7fc fe24 	bl	8012602 <strlen>
 80159ba:	42a0      	cmp	r0, r4
 80159bc:	f340 8098 	ble.w	8015af0 <fl_fopen+0x174>
 80159c0:	5d2b      	ldrb	r3, [r5, r4]
 80159c2:	2b2b      	cmp	r3, #43	@ 0x2b
 80159c4:	d07e      	beq.n	8015ac4 <fl_fopen+0x148>
 80159c6:	d3f4      	bcc.n	80159b2 <fl_fopen+0x36>
 80159c8:	2b77      	cmp	r3, #119	@ 0x77
 80159ca:	d8f2      	bhi.n	80159b2 <fl_fopen+0x36>
 80159cc:	2b41      	cmp	r3, #65	@ 0x41
 80159ce:	d3f0      	bcc.n	80159b2 <fl_fopen+0x36>
 80159d0:	3b41      	subs	r3, #65	@ 0x41
 80159d2:	2b36      	cmp	r3, #54	@ 0x36
 80159d4:	d8ed      	bhi.n	80159b2 <fl_fopen+0x36>
 80159d6:	a201      	add	r2, pc, #4	@ (adr r2, 80159dc <fl_fopen+0x60>)
 80159d8:	f852 f023 	ldr.w	pc, [r2, r3, lsl #2]
 80159dc:	08015abf 	.word	0x08015abf
 80159e0:	08015aeb 	.word	0x08015aeb
 80159e4:	080159b3 	.word	0x080159b3
 80159e8:	080159b3 	.word	0x080159b3
 80159ec:	080159b3 	.word	0x080159b3
 80159f0:	080159b3 	.word	0x080159b3
 80159f4:	080159b3 	.word	0x080159b3
 80159f8:	080159b3 	.word	0x080159b3
 80159fc:	080159b3 	.word	0x080159b3
 8015a00:	080159b3 	.word	0x080159b3
 8015a04:	080159b3 	.word	0x080159b3
 8015a08:	080159b3 	.word	0x080159b3
 8015a0c:	080159b3 	.word	0x080159b3
 8015a10:	080159b3 	.word	0x080159b3
 8015a14:	080159b3 	.word	0x080159b3
 8015a18:	080159b3 	.word	0x080159b3
 8015a1c:	080159b3 	.word	0x080159b3
 8015a20:	080159af 	.word	0x080159af
 8015a24:	080159b3 	.word	0x080159b3
 8015a28:	080159b3 	.word	0x080159b3
 8015a2c:	080159b3 	.word	0x080159b3
 8015a30:	080159b3 	.word	0x080159b3
 8015a34:	08015ab9 	.word	0x08015ab9
 8015a38:	080159b3 	.word	0x080159b3
 8015a3c:	080159b3 	.word	0x080159b3
 8015a40:	080159b3 	.word	0x080159b3
 8015a44:	080159b3 	.word	0x080159b3
 8015a48:	080159b3 	.word	0x080159b3
 8015a4c:	080159b3 	.word	0x080159b3
 8015a50:	080159b3 	.word	0x080159b3
 8015a54:	080159b3 	.word	0x080159b3
 8015a58:	080159b3 	.word	0x080159b3
 8015a5c:	08015abf 	.word	0x08015abf
 8015a60:	08015aeb 	.word	0x08015aeb
 8015a64:	080159b3 	.word	0x080159b3
 8015a68:	080159b3 	.word	0x080159b3
 8015a6c:	080159b3 	.word	0x080159b3
 8015a70:	080159b3 	.word	0x080159b3
 8015a74:	080159b3 	.word	0x080159b3
 8015a78:	080159b3 	.word	0x080159b3
 8015a7c:	080159b3 	.word	0x080159b3
 8015a80:	080159b3 	.word	0x080159b3
 8015a84:	080159b3 	.word	0x080159b3
 8015a88:	080159b3 	.word	0x080159b3
 8015a8c:	080159b3 	.word	0x080159b3
 8015a90:	080159b3 	.word	0x080159b3
 8015a94:	080159b3 	.word	0x080159b3
 8015a98:	080159b3 	.word	0x080159b3
 8015a9c:	080159b3 	.word	0x080159b3
 8015aa0:	080159af 	.word	0x080159af
 8015aa4:	080159b3 	.word	0x080159b3
 8015aa8:	080159b3 	.word	0x080159b3
 8015aac:	080159b3 	.word	0x080159b3
 8015ab0:	080159b3 	.word	0x080159b3
 8015ab4:	08015ab9 	.word	0x08015ab9
 8015ab8:	f046 0632 	orr.w	r6, r6, #50	@ 0x32
 8015abc:	e779      	b.n	80159b2 <fl_fopen+0x36>
 8015abe:	f046 0626 	orr.w	r6, r6, #38	@ 0x26
 8015ac2:	e776      	b.n	80159b2 <fl_fopen+0x36>
 8015ac4:	f016 0f01 	tst.w	r6, #1
 8015ac8:	d002      	beq.n	8015ad0 <fl_fopen+0x154>
 8015aca:	f046 0602 	orr.w	r6, r6, #2
 8015ace:	e770      	b.n	80159b2 <fl_fopen+0x36>
 8015ad0:	f016 0f02 	tst.w	r6, #2
 8015ad4:	d002      	beq.n	8015adc <fl_fopen+0x160>
 8015ad6:	f046 0631 	orr.w	r6, r6, #49	@ 0x31
 8015ada:	e76a      	b.n	80159b2 <fl_fopen+0x36>
 8015adc:	f016 0f04 	tst.w	r6, #4
 8015ae0:	f43f af67 	beq.w	80159b2 <fl_fopen+0x36>
 8015ae4:	f046 0627 	orr.w	r6, r6, #39	@ 0x27
 8015ae8:	e763      	b.n	80159b2 <fl_fopen+0x36>
 8015aea:	f046 0608 	orr.w	r6, r6, #8
 8015aee:	e760      	b.n	80159b2 <fl_fopen+0x36>
 8015af0:	4b1b      	ldr	r3, [pc, #108]	@ (8015b60 <fl_fopen+0x1e4>)
 8015af2:	6c5b      	ldr	r3, [r3, #68]	@ 0x44
 8015af4:	b1db      	cbz	r3, 8015b2e <fl_fopen+0x1b2>
 8015af6:	4b1a      	ldr	r3, [pc, #104]	@ (8015b60 <fl_fopen+0x1e4>)
 8015af8:	6c9b      	ldr	r3, [r3, #72]	@ 0x48
 8015afa:	b103      	cbz	r3, 8015afe <fl_fopen+0x182>
 8015afc:	4798      	blx	r3
 8015afe:	f016 0401 	ands.w	r4, r6, #1
 8015b02:	d117      	bne.n	8015b34 <fl_fopen+0x1b8>
 8015b04:	2500      	movs	r5, #0
 8015b06:	f016 0f20 	tst.w	r6, #32
 8015b0a:	d11a      	bne.n	8015b42 <fl_fopen+0x1c6>
 8015b0c:	b934      	cbnz	r4, 8015b1c <fl_fopen+0x1a0>
 8015b0e:	f016 0f20 	tst.w	r6, #32
 8015b12:	d003      	beq.n	8015b1c <fl_fopen+0x1a0>
 8015b14:	b91d      	cbnz	r5, 8015b1e <fl_fopen+0x1a2>
 8015b16:	f016 0f06 	tst.w	r6, #6
 8015b1a:	d117      	bne.n	8015b4c <fl_fopen+0x1d0>
 8015b1c:	b10d      	cbz	r5, 8015b22 <fl_fopen+0x1a6>
 8015b1e:	f885 62b0 	strb.w	r6, [r5, #688]	@ 0x2b0
 8015b22:	4b0f      	ldr	r3, [pc, #60]	@ (8015b60 <fl_fopen+0x1e4>)
 8015b24:	6cdb      	ldr	r3, [r3, #76]	@ 0x4c
 8015b26:	b103      	cbz	r3, 8015b2a <fl_fopen+0x1ae>
 8015b28:	4798      	blx	r3
 8015b2a:	4628      	mov	r0, r5
 8015b2c:	bdf8      	pop	{r3, r4, r5, r6, r7, pc}
 8015b2e:	f006 06d9 	and.w	r6, r6, #217	@ 0xd9
 8015b32:	e7e0      	b.n	8015af6 <fl_fopen+0x17a>
 8015b34:	4638      	mov	r0, r7
 8015b36:	f7ff fc8b 	bl	8015450 <_open_file>
 8015b3a:	4605      	mov	r5, r0
 8015b3c:	2800      	cmp	r0, #0
 8015b3e:	d1e5      	bne.n	8015b0c <fl_fopen+0x190>
 8015b40:	e7e1      	b.n	8015b06 <fl_fopen+0x18a>
 8015b42:	4638      	mov	r0, r7
 8015b44:	f7ff fbc0 	bl	80152c8 <_create_file>
 8015b48:	4605      	mov	r5, r0
 8015b4a:	e7df      	b.n	8015b0c <fl_fopen+0x190>
 8015b4c:	4638      	mov	r0, r7
 8015b4e:	f7ff fc7f 	bl	8015450 <_open_file>
 8015b52:	4605      	mov	r5, r0
 8015b54:	e7e2      	b.n	8015b1c <fl_fopen+0x1a0>
 8015b56:	2500      	movs	r5, #0
 8015b58:	e7e7      	b.n	8015b2a <fl_fopen+0x1ae>
 8015b5a:	463d      	mov	r5, r7
 8015b5c:	e7e5      	b.n	8015b2a <fl_fopen+0x1ae>
 8015b5e:	bf00      	nop
 8015b60:	200007c0 	.word	0x200007c0

08015b64 <fl_fflush>:
 8015b64:	b510      	push	{r4, lr}
 8015b66:	4604      	mov	r4, r0
 8015b68:	4b11      	ldr	r3, [pc, #68]	@ (8015bb0 <fl_fflush+0x4c>)
 8015b6a:	f8d3 3ca8 	ldr.w	r3, [r3, #3240]	@ 0xca8
 8015b6e:	b16b      	cbz	r3, 8015b8c <fl_fflush+0x28>
 8015b70:	b154      	cbz	r4, 8015b88 <fl_fflush+0x24>
 8015b72:	4b0f      	ldr	r3, [pc, #60]	@ (8015bb0 <fl_fflush+0x4c>)
 8015b74:	6c9b      	ldr	r3, [r3, #72]	@ 0x48
 8015b76:	b103      	cbz	r3, 8015b7a <fl_fflush+0x16>
 8015b78:	4798      	blx	r3
 8015b7a:	f8d4 32ac 	ldr.w	r3, [r4, #684]	@ 0x2ac
 8015b7e:	b943      	cbnz	r3, 8015b92 <fl_fflush+0x2e>
 8015b80:	4b0b      	ldr	r3, [pc, #44]	@ (8015bb0 <fl_fflush+0x4c>)
 8015b82:	6cdb      	ldr	r3, [r3, #76]	@ 0x4c
 8015b84:	b103      	cbz	r3, 8015b88 <fl_fflush+0x24>
 8015b86:	4798      	blx	r3
 8015b88:	2000      	movs	r0, #0
 8015b8a:	bd10      	pop	{r4, pc}
 8015b8c:	f7ff fe94 	bl	80158b8 <fl_init>
 8015b90:	e7ee      	b.n	8015b70 <fl_fflush+0xc>
 8015b92:	2301      	movs	r3, #1
 8015b94:	f104 02a8 	add.w	r2, r4, #168	@ 0xa8
 8015b98:	f8d4 12a8 	ldr.w	r1, [r4, #680]	@ 0x2a8
 8015b9c:	4620      	mov	r0, r4
 8015b9e:	f7ff fccf 	bl	8015540 <_write_sectors>
 8015ba2:	2800      	cmp	r0, #0
 8015ba4:	d0ec      	beq.n	8015b80 <fl_fflush+0x1c>
 8015ba6:	2300      	movs	r3, #0
 8015ba8:	f8c4 32ac 	str.w	r3, [r4, #684]	@ 0x2ac
 8015bac:	e7e8      	b.n	8015b80 <fl_fflush+0x1c>
 8015bae:	bf00      	nop
 8015bb0:	200007c0 	.word	0x200007c0

08015bb4 <fl_fclose>:
 8015bb4:	b510      	push	{r4, lr}
 8015bb6:	4604      	mov	r4, r0
 8015bb8:	4b18      	ldr	r3, [pc, #96]	@ (8015c1c <fl_fclose+0x68>)
 8015bba:	f8d3 3ca8 	ldr.w	r3, [r3, #3240]	@ 0xca8
 8015bbe:	b303      	cbz	r3, 8015c02 <fl_fclose+0x4e>
 8015bc0:	b1f4      	cbz	r4, 8015c00 <fl_fclose+0x4c>
 8015bc2:	4b16      	ldr	r3, [pc, #88]	@ (8015c1c <fl_fclose+0x68>)
 8015bc4:	6c9b      	ldr	r3, [r3, #72]	@ 0x48
 8015bc6:	b103      	cbz	r3, 8015bca <fl_fclose+0x16>
 8015bc8:	4798      	blx	r3
 8015bca:	4620      	mov	r0, r4
 8015bcc:	f7ff ffca 	bl	8015b64 <fl_fflush>
 8015bd0:	6923      	ldr	r3, [r4, #16]
 8015bd2:	b9cb      	cbnz	r3, 8015c08 <fl_fclose+0x54>
 8015bd4:	2300      	movs	r3, #0
 8015bd6:	60a3      	str	r3, [r4, #8]
 8015bd8:	60e3      	str	r3, [r4, #12]
 8015bda:	6063      	str	r3, [r4, #4]
 8015bdc:	f04f 32ff 	mov.w	r2, #4294967295	@ 0xffffffff
 8015be0:	f8c4 22a8 	str.w	r2, [r4, #680]	@ 0x2a8
 8015be4:	f8c4 32ac 	str.w	r3, [r4, #684]	@ 0x2ac
 8015be8:	6123      	str	r3, [r4, #16]
 8015bea:	4620      	mov	r0, r4
 8015bec:	f7ff fb00 	bl	80151f0 <_free_file>
 8015bf0:	4c0a      	ldr	r4, [pc, #40]	@ (8015c1c <fl_fclose+0x68>)
 8015bf2:	f104 0010 	add.w	r0, r4, #16
 8015bf6:	f001 faca 	bl	801718e <fatfs_fat_purge>
 8015bfa:	6ce3      	ldr	r3, [r4, #76]	@ 0x4c
 8015bfc:	b103      	cbz	r3, 8015c00 <fl_fclose+0x4c>
 8015bfe:	4798      	blx	r3
 8015c00:	bd10      	pop	{r4, pc}
 8015c02:	f7ff fe59 	bl	80158b8 <fl_init>
 8015c06:	e7db      	b.n	8015bc0 <fl_fclose+0xc>
 8015c08:	68e3      	ldr	r3, [r4, #12]
 8015c0a:	f104 0294 	add.w	r2, r4, #148	@ 0x94
 8015c0e:	6821      	ldr	r1, [r4, #0]
 8015c10:	4803      	ldr	r0, [pc, #12]	@ (8015c20 <fl_fclose+0x6c>)
 8015c12:	f7ff f93f 	bl	8014e94 <fatfs_update_file_length>
 8015c16:	2300      	movs	r3, #0
 8015c18:	6123      	str	r3, [r4, #16]
 8015c1a:	e7db      	b.n	8015bd4 <fl_fclose+0x20>
 8015c1c:	200007c0 	.word	0x200007c0
 8015c20:	200007d0 	.word	0x200007d0

08015c24 <fl_fread>:
 8015c24:	e92d 47f0 	stmdb	sp!, {r4, r5, r6, r7, r8, r9, sl, lr}
 8015c28:	4682      	mov	sl, r0
 8015c2a:	461c      	mov	r4, r3
 8015c2c:	fb02 f601 	mul.w	r6, r2, r1
 8015c30:	4b3d      	ldr	r3, [pc, #244]	@ (8015d28 <fl_fread+0x104>)
 8015c32:	f8d3 3ca8 	ldr.w	r3, [r3, #3240]	@ 0xca8
 8015c36:	b1cb      	cbz	r3, 8015c6c <fl_fread+0x48>
 8015c38:	f1ba 0f00 	cmp.w	sl, #0
 8015c3c:	d066      	beq.n	8015d0c <fl_fread+0xe8>
 8015c3e:	2c00      	cmp	r4, #0
 8015c40:	d067      	beq.n	8015d12 <fl_fread+0xee>
 8015c42:	f894 32b0 	ldrb.w	r3, [r4, #688]	@ 0x2b0
 8015c46:	f013 0f01 	tst.w	r3, #1
 8015c4a:	d065      	beq.n	8015d18 <fl_fread+0xf4>
 8015c4c:	2e00      	cmp	r6, #0
 8015c4e:	d065      	beq.n	8015d1c <fl_fread+0xf8>
 8015c50:	68a3      	ldr	r3, [r4, #8]
 8015c52:	68e2      	ldr	r2, [r4, #12]
 8015c54:	4293      	cmp	r3, r2
 8015c56:	d264      	bcs.n	8015d22 <fl_fread+0xfe>
 8015c58:	18f1      	adds	r1, r6, r3
 8015c5a:	428a      	cmp	r2, r1
 8015c5c:	d209      	bcs.n	8015c72 <fl_fread+0x4e>
 8015c5e:	eba2 0903 	sub.w	r9, r2, r3
 8015c62:	0a5f      	lsrs	r7, r3, #9
 8015c64:	f3c3 0808 	ubfx	r8, r3, #0, #9
 8015c68:	2600      	movs	r6, #0
 8015c6a:	e033      	b.n	8015cd4 <fl_fread+0xb0>
 8015c6c:	f7ff fe24 	bl	80158b8 <fl_init>
 8015c70:	e7e2      	b.n	8015c38 <fl_fread+0x14>
 8015c72:	46b1      	mov	r9, r6
 8015c74:	e7f5      	b.n	8015c62 <fl_fread+0x3e>
 8015c76:	f202 13ff 	addw	r3, r2, #511	@ 0x1ff
 8015c7a:	e038      	b.n	8015cee <fl_fread+0xca>
 8015c7c:	f8d4 32a8 	ldr.w	r3, [r4, #680]	@ 0x2a8
 8015c80:	42bb      	cmp	r3, r7
 8015c82:	d011      	beq.n	8015ca8 <fl_fread+0x84>
 8015c84:	f8d4 32ac 	ldr.w	r3, [r4, #684]	@ 0x2ac
 8015c88:	2b00      	cmp	r3, #0
 8015c8a:	d13b      	bne.n	8015d04 <fl_fread+0xe0>
 8015c8c:	2301      	movs	r3, #1
 8015c8e:	f104 02a8 	add.w	r2, r4, #168	@ 0xa8
 8015c92:	4639      	mov	r1, r7
 8015c94:	4620      	mov	r0, r4
 8015c96:	f7ff fccd 	bl	8015634 <_read_sectors>
 8015c9a:	2800      	cmp	r0, #0
 8015c9c:	d03e      	beq.n	8015d1c <fl_fread+0xf8>
 8015c9e:	f8c4 72a8 	str.w	r7, [r4, #680]	@ 0x2a8
 8015ca2:	2300      	movs	r3, #0
 8015ca4:	f8c4 32ac 	str.w	r3, [r4, #684]	@ 0x2ac
 8015ca8:	f5c8 7300 	rsb	r3, r8, #512	@ 0x200
 8015cac:	eba9 0506 	sub.w	r5, r9, r6
 8015cb0:	429d      	cmp	r5, r3
 8015cb2:	db00      	blt.n	8015cb6 <fl_fread+0x92>
 8015cb4:	461d      	mov	r5, r3
 8015cb6:	f104 01a8 	add.w	r1, r4, #168	@ 0xa8
 8015cba:	462a      	mov	r2, r5
 8015cbc:	4441      	add	r1, r8
 8015cbe:	eb0a 0006 	add.w	r0, sl, r6
 8015cc2:	f7fc fc6f 	bl	80125a4 <memcpy>
 8015cc6:	3701      	adds	r7, #1
 8015cc8:	442e      	add	r6, r5
 8015cca:	68a3      	ldr	r3, [r4, #8]
 8015ccc:	441d      	add	r5, r3
 8015cce:	60a5      	str	r5, [r4, #8]
 8015cd0:	f04f 0800 	mov.w	r8, #0
 8015cd4:	45b1      	cmp	r9, r6
 8015cd6:	dd21      	ble.n	8015d1c <fl_fread+0xf8>
 8015cd8:	f1b8 0f00 	cmp.w	r8, #0
 8015cdc:	d1ce      	bne.n	8015c7c <fl_fread+0x58>
 8015cde:	eba9 0206 	sub.w	r2, r9, r6
 8015ce2:	f5b2 7f00 	cmp.w	r2, #512	@ 0x200
 8015ce6:	dbc9      	blt.n	8015c7c <fl_fread+0x58>
 8015ce8:	4613      	mov	r3, r2
 8015cea:	2a00      	cmp	r2, #0
 8015cec:	dbc3      	blt.n	8015c76 <fl_fread+0x52>
 8015cee:	125b      	asrs	r3, r3, #9
 8015cf0:	eb0a 0206 	add.w	r2, sl, r6
 8015cf4:	4639      	mov	r1, r7
 8015cf6:	4620      	mov	r0, r4
 8015cf8:	f7ff fc9c 	bl	8015634 <_read_sectors>
 8015cfc:	b170      	cbz	r0, 8015d1c <fl_fread+0xf8>
 8015cfe:	0245      	lsls	r5, r0, #9
 8015d00:	4407      	add	r7, r0
 8015d02:	e7e1      	b.n	8015cc8 <fl_fread+0xa4>
 8015d04:	4620      	mov	r0, r4
 8015d06:	f7ff ff2d 	bl	8015b64 <fl_fflush>
 8015d0a:	e7bf      	b.n	8015c8c <fl_fread+0x68>
 8015d0c:	f04f 36ff 	mov.w	r6, #4294967295	@ 0xffffffff
 8015d10:	e004      	b.n	8015d1c <fl_fread+0xf8>
 8015d12:	f04f 36ff 	mov.w	r6, #4294967295	@ 0xffffffff
 8015d16:	e001      	b.n	8015d1c <fl_fread+0xf8>
 8015d18:	f04f 36ff 	mov.w	r6, #4294967295	@ 0xffffffff
 8015d1c:	4630      	mov	r0, r6
 8015d1e:	e8bd 87f0 	ldmia.w	sp!, {r4, r5, r6, r7, r8, r9, sl, pc}
 8015d22:	f04f 36ff 	mov.w	r6, #4294967295	@ 0xffffffff
 8015d26:	e7f9      	b.n	8015d1c <fl_fread+0xf8>
 8015d28:	200007c0 	.word	0x200007c0

08015d2c <fl_fgetc>:
 8015d2c:	b500      	push	{lr}
 8015d2e:	b083      	sub	sp, #12
 8015d30:	4603      	mov	r3, r0
 8015d32:	2200      	movs	r2, #0
 8015d34:	f88d 2007 	strb.w	r2, [sp, #7]
 8015d38:	2201      	movs	r2, #1
 8015d3a:	4611      	mov	r1, r2
 8015d3c:	f10d 0007 	add.w	r0, sp, #7
 8015d40:	f7ff ff70 	bl	8015c24 <fl_fread>
 8015d44:	2801      	cmp	r0, #1
 8015d46:	d002      	beq.n	8015d4e <fl_fgetc+0x22>
 8015d48:	b003      	add	sp, #12
 8015d4a:	f85d fb04 	ldr.w	pc, [sp], #4
 8015d4e:	f89d 0007 	ldrb.w	r0, [sp, #7]
 8015d52:	e7f9      	b.n	8015d48 <fl_fgetc+0x1c>

08015d54 <fl_fgets>:
 8015d54:	b5f8      	push	{r3, r4, r5, r6, r7, lr}
 8015d56:	1e0e      	subs	r6, r1, #0
 8015d58:	dd10      	ble.n	8015d7c <fl_fgets+0x28>
 8015d5a:	4605      	mov	r5, r0
 8015d5c:	4617      	mov	r7, r2
 8015d5e:	2400      	movs	r4, #0
 8015d60:	1e73      	subs	r3, r6, #1
 8015d62:	42a3      	cmp	r3, r4
 8015d64:	dd0d      	ble.n	8015d82 <fl_fgets+0x2e>
 8015d66:	4638      	mov	r0, r7
 8015d68:	f7ff ffe0 	bl	8015d2c <fl_fgetc>
 8015d6c:	2800      	cmp	r0, #0
 8015d6e:	db08      	blt.n	8015d82 <fl_fgets+0x2e>
 8015d70:	1c63      	adds	r3, r4, #1
 8015d72:	5528      	strb	r0, [r5, r4]
 8015d74:	280a      	cmp	r0, #10
 8015d76:	d003      	beq.n	8015d80 <fl_fgets+0x2c>
 8015d78:	461c      	mov	r4, r3
 8015d7a:	e7f1      	b.n	8015d60 <fl_fgets+0xc>
 8015d7c:	2000      	movs	r0, #0
 8015d7e:	e005      	b.n	8015d8c <fl_fgets+0x38>
 8015d80:	461c      	mov	r4, r3
 8015d82:	2c00      	cmp	r4, #0
 8015d84:	dd03      	ble.n	8015d8e <fl_fgets+0x3a>
 8015d86:	2300      	movs	r3, #0
 8015d88:	552b      	strb	r3, [r5, r4]
 8015d8a:	4628      	mov	r0, r5
 8015d8c:	bdf8      	pop	{r3, r4, r5, r6, r7, pc}
 8015d8e:	2000      	movs	r0, #0
 8015d90:	e7fc      	b.n	8015d8c <fl_fgets+0x38>

08015d92 <fl_fseek>:
 8015d92:	b570      	push	{r4, r5, r6, lr}
 8015d94:	4605      	mov	r5, r0
 8015d96:	460e      	mov	r6, r1
 8015d98:	4614      	mov	r4, r2
 8015d9a:	4b26      	ldr	r3, [pc, #152]	@ (8015e34 <fl_fseek+0xa2>)
 8015d9c:	f8d3 3ca8 	ldr.w	r3, [r3, #3240]	@ 0xca8
 8015da0:	b1d3      	cbz	r3, 8015dd8 <fl_fseek+0x46>
 8015da2:	2d00      	cmp	r5, #0
 8015da4:	d043      	beq.n	8015e2e <fl_fseek+0x9c>
 8015da6:	2c02      	cmp	r4, #2
 8015da8:	d019      	beq.n	8015dde <fl_fseek+0x4c>
 8015daa:	4b22      	ldr	r3, [pc, #136]	@ (8015e34 <fl_fseek+0xa2>)
 8015dac:	6c9b      	ldr	r3, [r3, #72]	@ 0x48
 8015dae:	b103      	cbz	r3, 8015db2 <fl_fseek+0x20>
 8015db0:	4798      	blx	r3
 8015db2:	f04f 33ff 	mov.w	r3, #4294967295	@ 0xffffffff
 8015db6:	f8c5 32a8 	str.w	r3, [r5, #680]	@ 0x2a8
 8015dba:	2300      	movs	r3, #0
 8015dbc:	f8c5 32ac 	str.w	r3, [r5, #684]	@ 0x2ac
 8015dc0:	b994      	cbnz	r4, 8015de8 <fl_fseek+0x56>
 8015dc2:	60ae      	str	r6, [r5, #8]
 8015dc4:	68eb      	ldr	r3, [r5, #12]
 8015dc6:	429e      	cmp	r6, r3
 8015dc8:	d900      	bls.n	8015dcc <fl_fseek+0x3a>
 8015dca:	60ab      	str	r3, [r5, #8]
 8015dcc:	4b19      	ldr	r3, [pc, #100]	@ (8015e34 <fl_fseek+0xa2>)
 8015dce:	6cdb      	ldr	r3, [r3, #76]	@ 0x4c
 8015dd0:	b103      	cbz	r3, 8015dd4 <fl_fseek+0x42>
 8015dd2:	4798      	blx	r3
 8015dd4:	4620      	mov	r0, r4
 8015dd6:	bd70      	pop	{r4, r5, r6, pc}
 8015dd8:	f7ff fd6e 	bl	80158b8 <fl_init>
 8015ddc:	e7e1      	b.n	8015da2 <fl_fseek+0x10>
 8015dde:	2e00      	cmp	r6, #0
 8015de0:	d0e3      	beq.n	8015daa <fl_fseek+0x18>
 8015de2:	f04f 34ff 	mov.w	r4, #4294967295	@ 0xffffffff
 8015de6:	e7f5      	b.n	8015dd4 <fl_fseek+0x42>
 8015de8:	2c01      	cmp	r4, #1
 8015dea:	d004      	beq.n	8015df6 <fl_fseek+0x64>
 8015dec:	2c02      	cmp	r4, #2
 8015dee:	d018      	beq.n	8015e22 <fl_fseek+0x90>
 8015df0:	f04f 34ff 	mov.w	r4, #4294967295	@ 0xffffffff
 8015df4:	e7ea      	b.n	8015dcc <fl_fseek+0x3a>
 8015df6:	2e00      	cmp	r6, #0
 8015df8:	db08      	blt.n	8015e0c <fl_fseek+0x7a>
 8015dfa:	68ab      	ldr	r3, [r5, #8]
 8015dfc:	4433      	add	r3, r6
 8015dfe:	60ab      	str	r3, [r5, #8]
 8015e00:	68ea      	ldr	r2, [r5, #12]
 8015e02:	4293      	cmp	r3, r2
 8015e04:	d911      	bls.n	8015e2a <fl_fseek+0x98>
 8015e06:	60aa      	str	r2, [r5, #8]
 8015e08:	2400      	movs	r4, #0
 8015e0a:	e7df      	b.n	8015dcc <fl_fseek+0x3a>
 8015e0c:	4273      	negs	r3, r6
 8015e0e:	68aa      	ldr	r2, [r5, #8]
 8015e10:	429a      	cmp	r2, r3
 8015e12:	d202      	bcs.n	8015e1a <fl_fseek+0x88>
 8015e14:	2400      	movs	r4, #0
 8015e16:	60ac      	str	r4, [r5, #8]
 8015e18:	e7d8      	b.n	8015dcc <fl_fseek+0x3a>
 8015e1a:	4432      	add	r2, r6
 8015e1c:	60aa      	str	r2, [r5, #8]
 8015e1e:	2400      	movs	r4, #0
 8015e20:	e7d4      	b.n	8015dcc <fl_fseek+0x3a>
 8015e22:	68eb      	ldr	r3, [r5, #12]
 8015e24:	60ab      	str	r3, [r5, #8]
 8015e26:	2400      	movs	r4, #0
 8015e28:	e7d0      	b.n	8015dcc <fl_fseek+0x3a>
 8015e2a:	2400      	movs	r4, #0
 8015e2c:	e7ce      	b.n	8015dcc <fl_fseek+0x3a>
 8015e2e:	f04f 34ff 	mov.w	r4, #4294967295	@ 0xffffffff
 8015e32:	e7cf      	b.n	8015dd4 <fl_fseek+0x42>
 8015e34:	200007c0 	.word	0x200007c0

08015e38 <fl_fgetpos>:
 8015e38:	b170      	cbz	r0, 8015e58 <fl_fgetpos+0x20>
 8015e3a:	b538      	push	{r3, r4, r5, lr}
 8015e3c:	460c      	mov	r4, r1
 8015e3e:	4605      	mov	r5, r0
 8015e40:	4b08      	ldr	r3, [pc, #32]	@ (8015e64 <fl_fgetpos+0x2c>)
 8015e42:	6c9b      	ldr	r3, [r3, #72]	@ 0x48
 8015e44:	b103      	cbz	r3, 8015e48 <fl_fgetpos+0x10>
 8015e46:	4798      	blx	r3
 8015e48:	68ab      	ldr	r3, [r5, #8]
 8015e4a:	6023      	str	r3, [r4, #0]
 8015e4c:	4b05      	ldr	r3, [pc, #20]	@ (8015e64 <fl_fgetpos+0x2c>)
 8015e4e:	6cdb      	ldr	r3, [r3, #76]	@ 0x4c
 8015e50:	b12b      	cbz	r3, 8015e5e <fl_fgetpos+0x26>
 8015e52:	4798      	blx	r3
 8015e54:	2000      	movs	r0, #0
 8015e56:	bd38      	pop	{r3, r4, r5, pc}
 8015e58:	f04f 30ff 	mov.w	r0, #4294967295	@ 0xffffffff
 8015e5c:	4770      	bx	lr
 8015e5e:	2000      	movs	r0, #0
 8015e60:	e7f9      	b.n	8015e56 <fl_fgetpos+0x1e>
 8015e62:	bf00      	nop
 8015e64:	200007c0 	.word	0x200007c0

08015e68 <fl_ftell>:
 8015e68:	b500      	push	{lr}
 8015e6a:	b083      	sub	sp, #12
 8015e6c:	2300      	movs	r3, #0
 8015e6e:	9301      	str	r3, [sp, #4]
 8015e70:	a901      	add	r1, sp, #4
 8015e72:	f7ff ffe1 	bl	8015e38 <fl_fgetpos>
 8015e76:	9801      	ldr	r0, [sp, #4]
 8015e78:	b003      	add	sp, #12
 8015e7a:	f85d fb04 	ldr.w	pc, [sp], #4

08015e7e <fl_feof>:
 8015e7e:	b510      	push	{r4, lr}
 8015e80:	b190      	cbz	r0, 8015ea8 <fl_feof+0x2a>
 8015e82:	4604      	mov	r4, r0
 8015e84:	4b0a      	ldr	r3, [pc, #40]	@ (8015eb0 <fl_feof+0x32>)
 8015e86:	6c9b      	ldr	r3, [r3, #72]	@ 0x48
 8015e88:	b103      	cbz	r3, 8015e8c <fl_feof+0xe>
 8015e8a:	4798      	blx	r3
 8015e8c:	68a2      	ldr	r2, [r4, #8]
 8015e8e:	68e3      	ldr	r3, [r4, #12]
 8015e90:	429a      	cmp	r2, r3
 8015e92:	d006      	beq.n	8015ea2 <fl_feof+0x24>
 8015e94:	2400      	movs	r4, #0
 8015e96:	4b06      	ldr	r3, [pc, #24]	@ (8015eb0 <fl_feof+0x32>)
 8015e98:	6cdb      	ldr	r3, [r3, #76]	@ 0x4c
 8015e9a:	b103      	cbz	r3, 8015e9e <fl_feof+0x20>
 8015e9c:	4798      	blx	r3
 8015e9e:	4620      	mov	r0, r4
 8015ea0:	bd10      	pop	{r4, pc}
 8015ea2:	f04f 34ff 	mov.w	r4, #4294967295	@ 0xffffffff
 8015ea6:	e7f6      	b.n	8015e96 <fl_feof+0x18>
 8015ea8:	f04f 34ff 	mov.w	r4, #4294967295	@ 0xffffffff
 8015eac:	e7f7      	b.n	8015e9e <fl_feof+0x20>
 8015eae:	bf00      	nop
 8015eb0:	200007c0 	.word	0x200007c0

08015eb4 <fl_fwrite>:
 8015eb4:	e92d 4ff0 	stmdb	sp!, {r4, r5, r6, r7, r8, r9, sl, fp, lr}
 8015eb8:	b083      	sub	sp, #12
 8015eba:	4682      	mov	sl, r0
 8015ebc:	461c      	mov	r4, r3
 8015ebe:	fb02 fb01 	mul.w	fp, r2, r1
 8015ec2:	46d9      	mov	r9, fp
 8015ec4:	4b54      	ldr	r3, [pc, #336]	@ (8016018 <fl_fwrite+0x164>)
 8015ec6:	f8d3 3ca8 	ldr.w	r3, [r3, #3240]	@ 0xca8
 8015eca:	b1c3      	cbz	r3, 8015efe <fl_fwrite+0x4a>
 8015ecc:	2c00      	cmp	r4, #0
 8015ece:	f000 80a0 	beq.w	8016012 <fl_fwrite+0x15e>
 8015ed2:	4b51      	ldr	r3, [pc, #324]	@ (8016018 <fl_fwrite+0x164>)
 8015ed4:	6c9b      	ldr	r3, [r3, #72]	@ 0x48
 8015ed6:	b103      	cbz	r3, 8015eda <fl_fwrite+0x26>
 8015ed8:	4798      	blx	r3
 8015eda:	f894 32b0 	ldrb.w	r3, [r4, #688]	@ 0x2b0
 8015ede:	f013 0f02 	tst.w	r3, #2
 8015ee2:	d00f      	beq.n	8015f04 <fl_fwrite+0x50>
 8015ee4:	f013 0f04 	tst.w	r3, #4
 8015ee8:	d001      	beq.n	8015eee <fl_fwrite+0x3a>
 8015eea:	68e3      	ldr	r3, [r4, #12]
 8015eec:	60a3      	str	r3, [r4, #8]
 8015eee:	68a3      	ldr	r3, [r4, #8]
 8015ef0:	0a5f      	lsrs	r7, r3, #9
 8015ef2:	f3c3 0808 	ubfx	r8, r3, #0, #9
 8015ef6:	2500      	movs	r5, #0
 8015ef8:	f8cd b004 	str.w	fp, [sp, #4]
 8015efc:	e036      	b.n	8015f6c <fl_fwrite+0xb8>
 8015efe:	f7ff fcdb 	bl	80158b8 <fl_init>
 8015f02:	e7e3      	b.n	8015ecc <fl_fwrite+0x18>
 8015f04:	4b44      	ldr	r3, [pc, #272]	@ (8016018 <fl_fwrite+0x164>)
 8015f06:	6cdb      	ldr	r3, [r3, #76]	@ 0x4c
 8015f08:	b103      	cbz	r3, 8015f0c <fl_fwrite+0x58>
 8015f0a:	4798      	blx	r3
 8015f0c:	f04f 3bff 	mov.w	fp, #4294967295	@ 0xffffffff
 8015f10:	e07b      	b.n	801600a <fl_fwrite+0x156>
 8015f12:	4620      	mov	r0, r4
 8015f14:	f7ff fe26 	bl	8015b64 <fl_fflush>
 8015f18:	e03b      	b.n	8015f92 <fl_fwrite+0xde>
 8015f1a:	f5c8 7300 	rsb	r3, r8, #512	@ 0x200
 8015f1e:	eba9 0605 	sub.w	r6, r9, r5
 8015f22:	429e      	cmp	r6, r3
 8015f24:	d300      	bcc.n	8015f28 <fl_fwrite+0x74>
 8015f26:	461e      	mov	r6, r3
 8015f28:	f8d4 32a8 	ldr.w	r3, [r4, #680]	@ 0x2a8
 8015f2c:	42bb      	cmp	r3, r7
 8015f2e:	d00b      	beq.n	8015f48 <fl_fwrite+0x94>
 8015f30:	f8d4 32ac 	ldr.w	r3, [r4, #684]	@ 0x2ac
 8015f34:	2b00      	cmp	r3, #0
 8015f36:	d146      	bne.n	8015fc6 <fl_fwrite+0x112>
 8015f38:	f5b6 7f00 	cmp.w	r6, #512	@ 0x200
 8015f3c:	d147      	bne.n	8015fce <fl_fwrite+0x11a>
 8015f3e:	f8c4 72a8 	str.w	r7, [r4, #680]	@ 0x2a8
 8015f42:	2300      	movs	r3, #0
 8015f44:	f8c4 32ac 	str.w	r3, [r4, #684]	@ 0x2ac
 8015f48:	f104 00a8 	add.w	r0, r4, #168	@ 0xa8
 8015f4c:	4632      	mov	r2, r6
 8015f4e:	eb0a 0105 	add.w	r1, sl, r5
 8015f52:	4440      	add	r0, r8
 8015f54:	f7fc fb26 	bl	80125a4 <memcpy>
 8015f58:	2301      	movs	r3, #1
 8015f5a:	f8c4 32ac 	str.w	r3, [r4, #684]	@ 0x2ac
 8015f5e:	4435      	add	r5, r6
 8015f60:	68a3      	ldr	r3, [r4, #8]
 8015f62:	4433      	add	r3, r6
 8015f64:	60a3      	str	r3, [r4, #8]
 8015f66:	3701      	adds	r7, #1
 8015f68:	f04f 0800 	mov.w	r8, #0
 8015f6c:	454d      	cmp	r5, r9
 8015f6e:	d23f      	bcs.n	8015ff0 <fl_fwrite+0x13c>
 8015f70:	f1b8 0f00 	cmp.w	r8, #0
 8015f74:	d1d1      	bne.n	8015f1a <fl_fwrite+0x66>
 8015f76:	eba9 0605 	sub.w	r6, r9, r5
 8015f7a:	f5b6 7f00 	cmp.w	r6, #512	@ 0x200
 8015f7e:	d3cc      	bcc.n	8015f1a <fl_fwrite+0x66>
 8015f80:	f8d4 32a8 	ldr.w	r3, [r4, #680]	@ 0x2a8
 8015f84:	f1b3 3fff 	cmp.w	r3, #4294967295	@ 0xffffffff
 8015f88:	d00a      	beq.n	8015fa0 <fl_fwrite+0xec>
 8015f8a:	f8d4 32ac 	ldr.w	r3, [r4, #684]	@ 0x2ac
 8015f8e:	2b00      	cmp	r3, #0
 8015f90:	d1bf      	bne.n	8015f12 <fl_fwrite+0x5e>
 8015f92:	f04f 33ff 	mov.w	r3, #4294967295	@ 0xffffffff
 8015f96:	f8c4 32a8 	str.w	r3, [r4, #680]	@ 0x2a8
 8015f9a:	2300      	movs	r3, #0
 8015f9c:	f8c4 32ac 	str.w	r3, [r4, #684]	@ 0x2ac
 8015fa0:	0a73      	lsrs	r3, r6, #9
 8015fa2:	eb0a 0205 	add.w	r2, sl, r5
 8015fa6:	4639      	mov	r1, r7
 8015fa8:	4620      	mov	r0, r4
 8015faa:	f7ff fac9 	bl	8015540 <_write_sectors>
 8015fae:	eb05 2540 	add.w	r5, r5, r0, lsl #9
 8015fb2:	68a3      	ldr	r3, [r4, #8]
 8015fb4:	eb03 2340 	add.w	r3, r3, r0, lsl #9
 8015fb8:	60a3      	str	r3, [r4, #8]
 8015fba:	4407      	add	r7, r0
 8015fbc:	2800      	cmp	r0, #0
 8015fbe:	d1d3      	bne.n	8015f68 <fl_fwrite+0xb4>
 8015fc0:	f8dd b004 	ldr.w	fp, [sp, #4]
 8015fc4:	e016      	b.n	8015ff4 <fl_fwrite+0x140>
 8015fc6:	4620      	mov	r0, r4
 8015fc8:	f7ff fdcc 	bl	8015b64 <fl_fflush>
 8015fcc:	e7b4      	b.n	8015f38 <fl_fwrite+0x84>
 8015fce:	f104 0ba8 	add.w	fp, r4, #168	@ 0xa8
 8015fd2:	2301      	movs	r3, #1
 8015fd4:	465a      	mov	r2, fp
 8015fd6:	4639      	mov	r1, r7
 8015fd8:	4620      	mov	r0, r4
 8015fda:	f7ff fb2b 	bl	8015634 <_read_sectors>
 8015fde:	2800      	cmp	r0, #0
 8015fe0:	d1ad      	bne.n	8015f3e <fl_fwrite+0x8a>
 8015fe2:	f44f 7200 	mov.w	r2, #512	@ 0x200
 8015fe6:	2100      	movs	r1, #0
 8015fe8:	4658      	mov	r0, fp
 8015fea:	f7fc fad4 	bl	8012596 <memset>
 8015fee:	e7a6      	b.n	8015f3e <fl_fwrite+0x8a>
 8015ff0:	f8dd b004 	ldr.w	fp, [sp, #4]
 8015ff4:	68a3      	ldr	r3, [r4, #8]
 8015ff6:	68e2      	ldr	r2, [r4, #12]
 8015ff8:	4293      	cmp	r3, r2
 8015ffa:	d902      	bls.n	8016002 <fl_fwrite+0x14e>
 8015ffc:	60e3      	str	r3, [r4, #12]
 8015ffe:	2301      	movs	r3, #1
 8016000:	6123      	str	r3, [r4, #16]
 8016002:	4b05      	ldr	r3, [pc, #20]	@ (8016018 <fl_fwrite+0x164>)
 8016004:	6cdb      	ldr	r3, [r3, #76]	@ 0x4c
 8016006:	b103      	cbz	r3, 801600a <fl_fwrite+0x156>
 8016008:	4798      	blx	r3
 801600a:	4658      	mov	r0, fp
 801600c:	b003      	add	sp, #12
 801600e:	e8bd 8ff0 	ldmia.w	sp!, {r4, r5, r6, r7, r8, r9, sl, fp, pc}
 8016012:	f04f 3bff 	mov.w	fp, #4294967295	@ 0xffffffff
 8016016:	e7f8      	b.n	801600a <fl_fwrite+0x156>
 8016018:	200007c0 	.word	0x200007c0

0801601c <fl_fputc>:
 801601c:	b510      	push	{r4, lr}
 801601e:	b082      	sub	sp, #8
 8016020:	4604      	mov	r4, r0
 8016022:	460b      	mov	r3, r1
 8016024:	f88d 0007 	strb.w	r0, [sp, #7]
 8016028:	2201      	movs	r2, #1
 801602a:	4611      	mov	r1, r2
 801602c:	f10d 0007 	add.w	r0, sp, #7
 8016030:	f7ff ff40 	bl	8015eb4 <fl_fwrite>
 8016034:	2801      	cmp	r0, #1
 8016036:	d001      	beq.n	801603c <fl_fputc+0x20>
 8016038:	b002      	add	sp, #8
 801603a:	bd10      	pop	{r4, pc}
 801603c:	4620      	mov	r0, r4
 801603e:	e7fb      	b.n	8016038 <fl_fputc+0x1c>

08016040 <fl_fputs>:
 8016040:	b570      	push	{r4, r5, r6, lr}
 8016042:	4605      	mov	r5, r0
 8016044:	460e      	mov	r6, r1
 8016046:	f7fc fadc 	bl	8012602 <strlen>
 801604a:	4604      	mov	r4, r0
 801604c:	4633      	mov	r3, r6
 801604e:	4602      	mov	r2, r0
 8016050:	2101      	movs	r1, #1
 8016052:	4628      	mov	r0, r5
 8016054:	f7ff ff2e 	bl	8015eb4 <fl_fwrite>
 8016058:	4284      	cmp	r4, r0
 801605a:	d000      	beq.n	801605e <fl_fputs+0x1e>
 801605c:	bd70      	pop	{r4, r5, r6, pc}
 801605e:	4620      	mov	r0, r4
 8016060:	e7fc      	b.n	801605c <fl_fputs+0x1c>

08016062 <fl_remove>:
 8016062:	b510      	push	{r4, lr}
 8016064:	4604      	mov	r4, r0
 8016066:	4b14      	ldr	r3, [pc, #80]	@ (80160b8 <fl_remove+0x56>)
 8016068:	6c9b      	ldr	r3, [r3, #72]	@ 0x48
 801606a:	b103      	cbz	r3, 801606e <fl_remove+0xc>
 801606c:	4798      	blx	r3
 801606e:	4913      	ldr	r1, [pc, #76]	@ (80160bc <fl_remove+0x5a>)
 8016070:	4620      	mov	r0, r4
 8016072:	f7ff fc83 	bl	801597c <fl_fopen>
 8016076:	4604      	mov	r4, r0
 8016078:	b1a8      	cbz	r0, 80160a6 <fl_remove+0x44>
 801607a:	6841      	ldr	r1, [r0, #4]
 801607c:	4810      	ldr	r0, [pc, #64]	@ (80160c0 <fl_remove+0x5e>)
 801607e:	f001 f9a0 	bl	80173c2 <fatfs_free_cluster_chain>
 8016082:	b198      	cbz	r0, 80160ac <fl_remove+0x4a>
 8016084:	4622      	mov	r2, r4
 8016086:	f852 1b94 	ldr.w	r1, [r2], #148
 801608a:	480d      	ldr	r0, [pc, #52]	@ (80160c0 <fl_remove+0x5e>)
 801608c:	f7fe ff4a 	bl	8014f24 <fatfs_mark_file_deleted>
 8016090:	b178      	cbz	r0, 80160b2 <fl_remove+0x50>
 8016092:	4620      	mov	r0, r4
 8016094:	f7ff fd8e 	bl	8015bb4 <fl_fclose>
 8016098:	2400      	movs	r4, #0
 801609a:	4b07      	ldr	r3, [pc, #28]	@ (80160b8 <fl_remove+0x56>)
 801609c:	6cdb      	ldr	r3, [r3, #76]	@ 0x4c
 801609e:	b103      	cbz	r3, 80160a2 <fl_remove+0x40>
 80160a0:	4798      	blx	r3
 80160a2:	4620      	mov	r0, r4
 80160a4:	bd10      	pop	{r4, pc}
 80160a6:	f04f 34ff 	mov.w	r4, #4294967295	@ 0xffffffff
 80160aa:	e7f6      	b.n	801609a <fl_remove+0x38>
 80160ac:	f04f 34ff 	mov.w	r4, #4294967295	@ 0xffffffff
 80160b0:	e7f3      	b.n	801609a <fl_remove+0x38>
 80160b2:	f04f 34ff 	mov.w	r4, #4294967295	@ 0xffffffff
 80160b6:	e7f0      	b.n	801609a <fl_remove+0x38>
 80160b8:	200007c0 	.word	0x200007c0
 80160bc:	0801a028 	.word	0x0801a028
 80160c0:	200007d0 	.word	0x200007d0

080160c4 <fl_createdirectory>:
 80160c4:	b510      	push	{r4, lr}
 80160c6:	4604      	mov	r4, r0
 80160c8:	4b0a      	ldr	r3, [pc, #40]	@ (80160f4 <fl_createdirectory+0x30>)
 80160ca:	f8d3 3ca8 	ldr.w	r3, [r3, #3240]	@ 0xca8
 80160ce:	b16b      	cbz	r3, 80160ec <fl_createdirectory+0x28>
 80160d0:	4b08      	ldr	r3, [pc, #32]	@ (80160f4 <fl_createdirectory+0x30>)
 80160d2:	6c9b      	ldr	r3, [r3, #72]	@ 0x48
 80160d4:	b103      	cbz	r3, 80160d8 <fl_createdirectory+0x14>
 80160d6:	4798      	blx	r3
 80160d8:	4620      	mov	r0, r4
 80160da:	f7ff fb0f 	bl	80156fc <_create_directory>
 80160de:	4604      	mov	r4, r0
 80160e0:	4b04      	ldr	r3, [pc, #16]	@ (80160f4 <fl_createdirectory+0x30>)
 80160e2:	6cdb      	ldr	r3, [r3, #76]	@ 0x4c
 80160e4:	b103      	cbz	r3, 80160e8 <fl_createdirectory+0x24>
 80160e6:	4798      	blx	r3
 80160e8:	4620      	mov	r0, r4
 80160ea:	bd10      	pop	{r4, pc}
 80160ec:	f7ff fbe4 	bl	80158b8 <fl_init>
 80160f0:	e7ee      	b.n	80160d0 <fl_createdirectory+0xc>
 80160f2:	bf00      	nop
 80160f4:	200007c0 	.word	0x200007c0

080160f8 <fl_opendir>:
 80160f8:	b530      	push	{r4, r5, lr}
 80160fa:	b083      	sub	sp, #12
 80160fc:	4605      	mov	r5, r0
 80160fe:	460c      	mov	r4, r1
 8016100:	f04f 33ff 	mov.w	r3, #4294967295	@ 0xffffffff
 8016104:	9301      	str	r3, [sp, #4]
 8016106:	4b16      	ldr	r3, [pc, #88]	@ (8016160 <fl_opendir+0x68>)
 8016108:	f8d3 3ca8 	ldr.w	r3, [r3, #3240]	@ 0xca8
 801610c:	b17b      	cbz	r3, 801612e <fl_opendir+0x36>
 801610e:	4b14      	ldr	r3, [pc, #80]	@ (8016160 <fl_opendir+0x68>)
 8016110:	6c9b      	ldr	r3, [r3, #72]	@ 0x48
 8016112:	b103      	cbz	r3, 8016116 <fl_opendir+0x1e>
 8016114:	4798      	blx	r3
 8016116:	4628      	mov	r0, r5
 8016118:	f000 fe18 	bl	8016d4c <fatfs_total_path_levels>
 801611c:	f1b0 3fff 	cmp.w	r0, #4294967295	@ 0xffffffff
 8016120:	d008      	beq.n	8016134 <fl_opendir+0x3c>
 8016122:	a901      	add	r1, sp, #4
 8016124:	4628      	mov	r0, r5
 8016126:	f7ff f895 	bl	8015254 <_open_directory>
 801612a:	b160      	cbz	r0, 8016146 <fl_opendir+0x4e>
 801612c:	e006      	b.n	801613c <fl_opendir+0x44>
 801612e:	f7ff fbc3 	bl	80158b8 <fl_init>
 8016132:	e7ec      	b.n	801610e <fl_opendir+0x16>
 8016134:	480b      	ldr	r0, [pc, #44]	@ (8016164 <fl_opendir+0x6c>)
 8016136:	f7fe fde3 	bl	8014d00 <fatfs_get_root_cluster>
 801613a:	9001      	str	r0, [sp, #4]
 801613c:	9a01      	ldr	r2, [sp, #4]
 801613e:	4621      	mov	r1, r4
 8016140:	4808      	ldr	r0, [pc, #32]	@ (8016164 <fl_opendir+0x6c>)
 8016142:	f7fe ff39 	bl	8014fb8 <fatfs_list_directory_start>
 8016146:	4b06      	ldr	r3, [pc, #24]	@ (8016160 <fl_opendir+0x68>)
 8016148:	6cdb      	ldr	r3, [r3, #76]	@ 0x4c
 801614a:	b103      	cbz	r3, 801614e <fl_opendir+0x56>
 801614c:	4798      	blx	r3
 801614e:	9b01      	ldr	r3, [sp, #4]
 8016150:	f1b3 3fff 	cmp.w	r3, #4294967295	@ 0xffffffff
 8016154:	d002      	beq.n	801615c <fl_opendir+0x64>
 8016156:	4620      	mov	r0, r4
 8016158:	b003      	add	sp, #12
 801615a:	bd30      	pop	{r4, r5, pc}
 801615c:	2000      	movs	r0, #0
 801615e:	e7fb      	b.n	8016158 <fl_opendir+0x60>
 8016160:	200007c0 	.word	0x200007c0
 8016164:	200007d0 	.word	0x200007d0

08016168 <fl_readdir>:
 8016168:	b570      	push	{r4, r5, r6, lr}
 801616a:	4604      	mov	r4, r0
 801616c:	460d      	mov	r5, r1
 801616e:	4b0e      	ldr	r3, [pc, #56]	@ (80161a8 <fl_readdir+0x40>)
 8016170:	f8d3 3ca8 	ldr.w	r3, [r3, #3240]	@ 0xca8
 8016174:	b18b      	cbz	r3, 801619a <fl_readdir+0x32>
 8016176:	4b0c      	ldr	r3, [pc, #48]	@ (80161a8 <fl_readdir+0x40>)
 8016178:	6c9b      	ldr	r3, [r3, #72]	@ 0x48
 801617a:	b103      	cbz	r3, 801617e <fl_readdir+0x16>
 801617c:	4798      	blx	r3
 801617e:	4e0a      	ldr	r6, [pc, #40]	@ (80161a8 <fl_readdir+0x40>)
 8016180:	462a      	mov	r2, r5
 8016182:	4621      	mov	r1, r4
 8016184:	f106 0010 	add.w	r0, r6, #16
 8016188:	f7fe ff1b 	bl	8014fc2 <fatfs_list_directory_next>
 801618c:	4604      	mov	r4, r0
 801618e:	6cf3      	ldr	r3, [r6, #76]	@ 0x4c
 8016190:	b103      	cbz	r3, 8016194 <fl_readdir+0x2c>
 8016192:	4798      	blx	r3
 8016194:	b124      	cbz	r4, 80161a0 <fl_readdir+0x38>
 8016196:	2000      	movs	r0, #0
 8016198:	bd70      	pop	{r4, r5, r6, pc}
 801619a:	f7ff fb8d 	bl	80158b8 <fl_init>
 801619e:	e7ea      	b.n	8016176 <fl_readdir+0xe>
 80161a0:	f04f 30ff 	mov.w	r0, #4294967295	@ 0xffffffff
 80161a4:	e7f8      	b.n	8016198 <fl_readdir+0x30>
 80161a6:	bf00      	nop
 80161a8:	200007c0 	.word	0x200007c0

080161ac <fl_listdirectory>:
 80161ac:	b510      	push	{r4, lr}
 80161ae:	b096      	sub	sp, #88	@ 0x58
 80161b0:	4604      	mov	r4, r0
 80161b2:	4b17      	ldr	r3, [pc, #92]	@ (8016210 <fl_listdirectory+0x64>)
 80161b4:	f8d3 3ca8 	ldr.w	r3, [r3, #3240]	@ 0xca8
 80161b8:	b193      	cbz	r3, 80161e0 <fl_listdirectory+0x34>
 80161ba:	4b15      	ldr	r3, [pc, #84]	@ (8016210 <fl_listdirectory+0x64>)
 80161bc:	6c9b      	ldr	r3, [r3, #72]	@ 0x48
 80161be:	b103      	cbz	r3, 80161c2 <fl_listdirectory+0x16>
 80161c0:	4798      	blx	r3
 80161c2:	4621      	mov	r1, r4
 80161c4:	4813      	ldr	r0, [pc, #76]	@ (8016214 <fl_listdirectory+0x68>)
 80161c6:	f7fa fd5d 	bl	8010c84 <kprintf>
 80161ca:	a913      	add	r1, sp, #76	@ 0x4c
 80161cc:	4620      	mov	r0, r4
 80161ce:	f7ff ff93 	bl	80160f8 <fl_opendir>
 80161d2:	b968      	cbnz	r0, 80161f0 <fl_listdirectory+0x44>
 80161d4:	4b0e      	ldr	r3, [pc, #56]	@ (8016210 <fl_listdirectory+0x64>)
 80161d6:	6cdb      	ldr	r3, [r3, #76]	@ 0x4c
 80161d8:	b103      	cbz	r3, 80161dc <fl_listdirectory+0x30>
 80161da:	4798      	blx	r3
 80161dc:	b016      	add	sp, #88	@ 0x58
 80161de:	bd10      	pop	{r4, pc}
 80161e0:	f7ff fb6a 	bl	80158b8 <fl_init>
 80161e4:	e7e9      	b.n	80161ba <fl_listdirectory+0xe>
 80161e6:	9a12      	ldr	r2, [sp, #72]	@ 0x48
 80161e8:	4669      	mov	r1, sp
 80161ea:	480b      	ldr	r0, [pc, #44]	@ (8016218 <fl_listdirectory+0x6c>)
 80161ec:	f7fa fd4a 	bl	8010c84 <kprintf>
 80161f0:	4669      	mov	r1, sp
 80161f2:	a813      	add	r0, sp, #76	@ 0x4c
 80161f4:	f7ff ffb8 	bl	8016168 <fl_readdir>
 80161f8:	2800      	cmp	r0, #0
 80161fa:	d1eb      	bne.n	80161d4 <fl_listdirectory+0x28>
 80161fc:	f89d 3040 	ldrb.w	r3, [sp, #64]	@ 0x40
 8016200:	2b00      	cmp	r3, #0
 8016202:	d0f0      	beq.n	80161e6 <fl_listdirectory+0x3a>
 8016204:	4669      	mov	r1, sp
 8016206:	4805      	ldr	r0, [pc, #20]	@ (801621c <fl_listdirectory+0x70>)
 8016208:	f7fa fd3c 	bl	8010c84 <kprintf>
 801620c:	e7f0      	b.n	80161f0 <fl_listdirectory+0x44>
 801620e:	bf00      	nop
 8016210:	200007c0 	.word	0x200007c0
 8016214:	0801a2c8 	.word	0x0801a2c8
 8016218:	0801a0cc 	.word	0x0801a0cc
 801621c:	0801a0c0 	.word	0x0801a0c0

08016220 <fl_closedir>:
 8016220:	2000      	movs	r0, #0
 8016222:	4770      	bx	lr

08016224 <fl_is_dir>:
 8016224:	b500      	push	{lr}
 8016226:	b085      	sub	sp, #20
 8016228:	a901      	add	r1, sp, #4
 801622a:	f7ff ff65 	bl	80160f8 <fl_opendir>
 801622e:	b100      	cbz	r0, 8016232 <fl_is_dir+0xe>
 8016230:	2001      	movs	r0, #1
 8016232:	b005      	add	sp, #20
 8016234:	f85d fb04 	ldr.w	pc, [sp], #4

08016238 <fl_format>:
 8016238:	b508      	push	{r3, lr}
 801623a:	460a      	mov	r2, r1
 801623c:	4601      	mov	r1, r0
 801623e:	4802      	ldr	r0, [pc, #8]	@ (8016248 <fl_format+0x10>)
 8016240:	f000 fb04 	bl	801684c <fatfs_format>
 8016244:	bd08      	pop	{r3, pc}
 8016246:	bf00      	nop
 8016248:	200007d0 	.word	0x200007d0

0801624c <fatfs_calc_cluster_size>:
 801624c:	4684      	mov	ip, r0
 801624e:	460a      	mov	r2, r1
 8016250:	b111      	cbz	r1, 8016258 <fatfs_calc_cluster_size+0xc>
 8016252:	2200      	movs	r2, #0
 8016254:	e00d      	b.n	8016272 <fatfs_calc_cluster_size+0x26>
 8016256:	3201      	adds	r2, #1
 8016258:	4b0d      	ldr	r3, [pc, #52]	@ (8016290 <fatfs_calc_cluster_size+0x44>)
 801625a:	eb03 03c2 	add.w	r3, r3, r2, lsl #3
 801625e:	7918      	ldrb	r0, [r3, #4]
 8016260:	b128      	cbz	r0, 801626e <fatfs_calc_cluster_size+0x22>
 8016262:	4b0b      	ldr	r3, [pc, #44]	@ (8016290 <fatfs_calc_cluster_size+0x44>)
 8016264:	f853 3032 	ldr.w	r3, [r3, r2, lsl #3]
 8016268:	4563      	cmp	r3, ip
 801626a:	d3f4      	bcc.n	8016256 <fatfs_calc_cluster_size+0xa>
 801626c:	4770      	bx	lr
 801626e:	4770      	bx	lr
 8016270:	3201      	adds	r2, #1
 8016272:	4b07      	ldr	r3, [pc, #28]	@ (8016290 <fatfs_calc_cluster_size+0x44>)
 8016274:	eb03 03c2 	add.w	r3, r3, r2, lsl #3
 8016278:	f893 0044 	ldrb.w	r0, [r3, #68]	@ 0x44
 801627c:	2800      	cmp	r0, #0
 801627e:	d0f5      	beq.n	801626c <fatfs_calc_cluster_size+0x20>
 8016280:	4b03      	ldr	r3, [pc, #12]	@ (8016290 <fatfs_calc_cluster_size+0x44>)
 8016282:	eb03 03c2 	add.w	r3, r3, r2, lsl #3
 8016286:	6c1b      	ldr	r3, [r3, #64]	@ 0x40
 8016288:	4563      	cmp	r3, ip
 801628a:	d3f1      	bcc.n	8016270 <fatfs_calc_cluster_size+0x24>
 801628c:	e7ee      	b.n	801626c <fatfs_calc_cluster_size+0x20>
 801628e:	bf00      	nop
 8016290:	2000008c 	.word	0x2000008c

08016294 <fatfs_erase_fat>:
 8016294:	b570      	push	{r4, r5, r6, lr}
 8016296:	4604      	mov	r4, r0
 8016298:	460d      	mov	r5, r1
 801629a:	f100 0640 	add.w	r6, r0, #64	@ 0x40
 801629e:	f44f 7200 	mov.w	r2, #512	@ 0x200
 80162a2:	2100      	movs	r1, #0
 80162a4:	4630      	mov	r0, r6
 80162a6:	f7fc f976 	bl	8012596 <memset>
 80162aa:	b995      	cbnz	r5, 80162d2 <fatfs_erase_fat+0x3e>
 80162ac:	23f8      	movs	r3, #248	@ 0xf8
 80162ae:	f884 3040 	strb.w	r3, [r4, #64]	@ 0x40
 80162b2:	23ff      	movs	r3, #255	@ 0xff
 80162b4:	f884 3041 	strb.w	r3, [r4, #65]	@ 0x41
 80162b8:	f884 3042 	strb.w	r3, [r4, #66]	@ 0x42
 80162bc:	f884 3043 	strb.w	r3, [r4, #67]	@ 0x43
 80162c0:	6b63      	ldr	r3, [r4, #52]	@ 0x34
 80162c2:	2201      	movs	r2, #1
 80162c4:	4631      	mov	r1, r6
 80162c6:	6960      	ldr	r0, [r4, #20]
 80162c8:	4798      	blx	r3
 80162ca:	4603      	mov	r3, r0
 80162cc:	b9e8      	cbnz	r0, 801630a <fatfs_erase_fat+0x76>
 80162ce:	4618      	mov	r0, r3
 80162d0:	bd70      	pop	{r4, r5, r6, pc}
 80162d2:	23f8      	movs	r3, #248	@ 0xf8
 80162d4:	f884 3040 	strb.w	r3, [r4, #64]	@ 0x40
 80162d8:	23ff      	movs	r3, #255	@ 0xff
 80162da:	f884 3041 	strb.w	r3, [r4, #65]	@ 0x41
 80162de:	f884 3042 	strb.w	r3, [r4, #66]	@ 0x42
 80162e2:	220f      	movs	r2, #15
 80162e4:	f884 2043 	strb.w	r2, [r4, #67]	@ 0x43
 80162e8:	f884 3044 	strb.w	r3, [r4, #68]	@ 0x44
 80162ec:	f884 3045 	strb.w	r3, [r4, #69]	@ 0x45
 80162f0:	f884 3046 	strb.w	r3, [r4, #70]	@ 0x46
 80162f4:	f884 3047 	strb.w	r3, [r4, #71]	@ 0x47
 80162f8:	f884 3048 	strb.w	r3, [r4, #72]	@ 0x48
 80162fc:	f884 3049 	strb.w	r3, [r4, #73]	@ 0x49
 8016300:	f884 304a 	strb.w	r3, [r4, #74]	@ 0x4a
 8016304:	f884 204b 	strb.w	r2, [r4, #75]	@ 0x4b
 8016308:	e7da      	b.n	80162c0 <fatfs_erase_fat+0x2c>
 801630a:	f44f 7200 	mov.w	r2, #512	@ 0x200
 801630e:	2100      	movs	r1, #0
 8016310:	4630      	mov	r0, r6
 8016312:	f7fc f940 	bl	8012596 <memset>
 8016316:	2501      	movs	r5, #1
 8016318:	6a23      	ldr	r3, [r4, #32]
 801631a:	f894 202c 	ldrb.w	r2, [r4, #44]	@ 0x2c
 801631e:	fb02 f303 	mul.w	r3, r2, r3
 8016322:	42ab      	cmp	r3, r5
 8016324:	d90a      	bls.n	801633c <fatfs_erase_fat+0xa8>
 8016326:	6b63      	ldr	r3, [r4, #52]	@ 0x34
 8016328:	6960      	ldr	r0, [r4, #20]
 801632a:	2201      	movs	r2, #1
 801632c:	4631      	mov	r1, r6
 801632e:	4428      	add	r0, r5
 8016330:	4798      	blx	r3
 8016332:	4603      	mov	r3, r0
 8016334:	2800      	cmp	r0, #0
 8016336:	d0ca      	beq.n	80162ce <fatfs_erase_fat+0x3a>
 8016338:	3501      	adds	r5, #1
 801633a:	e7ed      	b.n	8016318 <fatfs_erase_fat+0x84>
 801633c:	2301      	movs	r3, #1
 801633e:	e7c6      	b.n	80162ce <fatfs_erase_fat+0x3a>

08016340 <fatfs_erase_sectors>:
 8016340:	e92d 41f0 	stmdb	sp!, {r4, r5, r6, r7, r8, lr}
 8016344:	4605      	mov	r5, r0
 8016346:	460f      	mov	r7, r1
 8016348:	4616      	mov	r6, r2
 801634a:	f100 0840 	add.w	r8, r0, #64	@ 0x40
 801634e:	f44f 7200 	mov.w	r2, #512	@ 0x200
 8016352:	2100      	movs	r1, #0
 8016354:	4640      	mov	r0, r8
 8016356:	f7fc f91e 	bl	8012596 <memset>
 801635a:	2400      	movs	r4, #0
 801635c:	e000      	b.n	8016360 <fatfs_erase_sectors+0x20>
 801635e:	3401      	adds	r4, #1
 8016360:	42b4      	cmp	r4, r6
 8016362:	da08      	bge.n	8016376 <fatfs_erase_sectors+0x36>
 8016364:	6b6b      	ldr	r3, [r5, #52]	@ 0x34
 8016366:	2201      	movs	r2, #1
 8016368:	4641      	mov	r1, r8
 801636a:	19e0      	adds	r0, r4, r7
 801636c:	4798      	blx	r3
 801636e:	4603      	mov	r3, r0
 8016370:	2800      	cmp	r0, #0
 8016372:	d1f4      	bne.n	801635e <fatfs_erase_sectors+0x1e>
 8016374:	e000      	b.n	8016378 <fatfs_erase_sectors+0x38>
 8016376:	2301      	movs	r3, #1
 8016378:	4618      	mov	r0, r3
 801637a:	e8bd 81f0 	ldmia.w	sp!, {r4, r5, r6, r7, r8, pc}

0801637e <fatfs_create_fsinfo_sector>:
 801637e:	b570      	push	{r4, r5, r6, lr}
 8016380:	4604      	mov	r4, r0
 8016382:	460d      	mov	r5, r1
 8016384:	f100 0640 	add.w	r6, r0, #64	@ 0x40
 8016388:	f44f 7200 	mov.w	r2, #512	@ 0x200
 801638c:	2100      	movs	r1, #0
 801638e:	4630      	mov	r0, r6
 8016390:	f7fc f901 	bl	8012596 <memset>
 8016394:	2352      	movs	r3, #82	@ 0x52
 8016396:	f884 3040 	strb.w	r3, [r4, #64]	@ 0x40
 801639a:	f884 3041 	strb.w	r3, [r4, #65]	@ 0x41
 801639e:	2361      	movs	r3, #97	@ 0x61
 80163a0:	f884 3042 	strb.w	r3, [r4, #66]	@ 0x42
 80163a4:	2241      	movs	r2, #65	@ 0x41
 80163a6:	f884 2043 	strb.w	r2, [r4, #67]	@ 0x43
 80163aa:	2172      	movs	r1, #114	@ 0x72
 80163ac:	f884 1224 	strb.w	r1, [r4, #548]	@ 0x224
 80163b0:	f884 1225 	strb.w	r1, [r4, #549]	@ 0x225
 80163b4:	f884 2226 	strb.w	r2, [r4, #550]	@ 0x226
 80163b8:	f884 3227 	strb.w	r3, [r4, #551]	@ 0x227
 80163bc:	23ff      	movs	r3, #255	@ 0xff
 80163be:	f884 3228 	strb.w	r3, [r4, #552]	@ 0x228
 80163c2:	f884 3229 	strb.w	r3, [r4, #553]	@ 0x229
 80163c6:	f884 322a 	strb.w	r3, [r4, #554]	@ 0x22a
 80163ca:	f884 322b 	strb.w	r3, [r4, #555]	@ 0x22b
 80163ce:	f884 322c 	strb.w	r3, [r4, #556]	@ 0x22c
 80163d2:	f884 322d 	strb.w	r3, [r4, #557]	@ 0x22d
 80163d6:	f884 322e 	strb.w	r3, [r4, #558]	@ 0x22e
 80163da:	f884 322f 	strb.w	r3, [r4, #559]	@ 0x22f
 80163de:	2355      	movs	r3, #85	@ 0x55
 80163e0:	f884 323e 	strb.w	r3, [r4, #574]	@ 0x23e
 80163e4:	23aa      	movs	r3, #170	@ 0xaa
 80163e6:	f884 323f 	strb.w	r3, [r4, #575]	@ 0x23f
 80163ea:	6b63      	ldr	r3, [r4, #52]	@ 0x34
 80163ec:	2201      	movs	r2, #1
 80163ee:	4631      	mov	r1, r6
 80163f0:	4628      	mov	r0, r5
 80163f2:	4798      	blx	r3
 80163f4:	b100      	cbz	r0, 80163f8 <fatfs_create_fsinfo_sector+0x7a>
 80163f6:	2001      	movs	r0, #1
 80163f8:	bd70      	pop	{r4, r5, r6, pc}

080163fa <fatfs_create_boot_sector>:
 80163fa:	e92d 43f8 	stmdb	sp!, {r3, r4, r5, r6, r7, r8, r9, lr}
 80163fe:	4604      	mov	r4, r0
 8016400:	4688      	mov	r8, r1
 8016402:	4617      	mov	r7, r2
 8016404:	461e      	mov	r6, r3
 8016406:	9d08      	ldr	r5, [sp, #32]
 8016408:	f100 0940 	add.w	r9, r0, #64	@ 0x40
 801640c:	f44f 7200 	mov.w	r2, #512	@ 0x200
 8016410:	2100      	movs	r1, #0
 8016412:	4648      	mov	r0, r9
 8016414:	f7fc f8bf 	bl	8012596 <memset>
 8016418:	23eb      	movs	r3, #235	@ 0xeb
 801641a:	f884 3040 	strb.w	r3, [r4, #64]	@ 0x40
 801641e:	233c      	movs	r3, #60	@ 0x3c
 8016420:	f884 3041 	strb.w	r3, [r4, #65]	@ 0x41
 8016424:	2390      	movs	r3, #144	@ 0x90
 8016426:	f884 3042 	strb.w	r3, [r4, #66]	@ 0x42
 801642a:	234d      	movs	r3, #77	@ 0x4d
 801642c:	f884 3043 	strb.w	r3, [r4, #67]	@ 0x43
 8016430:	2353      	movs	r3, #83	@ 0x53
 8016432:	f884 3044 	strb.w	r3, [r4, #68]	@ 0x44
 8016436:	2244      	movs	r2, #68	@ 0x44
 8016438:	f884 2045 	strb.w	r2, [r4, #69]	@ 0x45
 801643c:	224f      	movs	r2, #79	@ 0x4f
 801643e:	f884 2046 	strb.w	r2, [r4, #70]	@ 0x46
 8016442:	f884 3047 	strb.w	r3, [r4, #71]	@ 0x47
 8016446:	2335      	movs	r3, #53	@ 0x35
 8016448:	f884 3048 	strb.w	r3, [r4, #72]	@ 0x48
 801644c:	232e      	movs	r3, #46	@ 0x2e
 801644e:	f884 3049 	strb.w	r3, [r4, #73]	@ 0x49
 8016452:	2330      	movs	r3, #48	@ 0x30
 8016454:	f884 304a 	strb.w	r3, [r4, #74]	@ 0x4a
 8016458:	2300      	movs	r3, #0
 801645a:	f884 304b 	strb.w	r3, [r4, #75]	@ 0x4b
 801645e:	2302      	movs	r3, #2
 8016460:	f884 304c 	strb.w	r3, [r4, #76]	@ 0x4c
 8016464:	4629      	mov	r1, r5
 8016466:	4638      	mov	r0, r7
 8016468:	f7ff fef0 	bl	801624c <fatfs_calc_cluster_size>
 801646c:	7020      	strb	r0, [r4, #0]
 801646e:	2800      	cmp	r0, #0
 8016470:	f000 8147 	beq.w	8016702 <fatfs_create_boot_sector+0x308>
 8016474:	f884 004d 	strb.w	r0, [r4, #77]	@ 0x4d
 8016478:	2d00      	cmp	r5, #0
 801647a:	d161      	bne.n	8016540 <fatfs_create_boot_sector+0x146>
 801647c:	2308      	movs	r3, #8
 801647e:	8563      	strh	r3, [r4, #42]	@ 0x2a
 8016480:	8d63      	ldrh	r3, [r4, #42]	@ 0x2a
 8016482:	f884 304e 	strb.w	r3, [r4, #78]	@ 0x4e
 8016486:	0a1b      	lsrs	r3, r3, #8
 8016488:	f884 304f 	strb.w	r3, [r4, #79]	@ 0x4f
 801648c:	2302      	movs	r3, #2
 801648e:	f884 302c 	strb.w	r3, [r4, #44]	@ 0x2c
 8016492:	f884 3050 	strb.w	r3, [r4, #80]	@ 0x50
 8016496:	2d00      	cmp	r5, #0
 8016498:	d155      	bne.n	8016546 <fatfs_create_boot_sector+0x14c>
 801649a:	f44f 7300 	mov.w	r3, #512	@ 0x200
 801649e:	8523      	strh	r3, [r4, #40]	@ 0x28
 80164a0:	2300      	movs	r3, #0
 80164a2:	f884 3051 	strb.w	r3, [r4, #81]	@ 0x51
 80164a6:	2302      	movs	r3, #2
 80164a8:	f884 3052 	strb.w	r3, [r4, #82]	@ 0x52
 80164ac:	2300      	movs	r3, #0
 80164ae:	f884 3053 	strb.w	r3, [r4, #83]	@ 0x53
 80164b2:	f884 3054 	strb.w	r3, [r4, #84]	@ 0x54
 80164b6:	23f8      	movs	r3, #248	@ 0xf8
 80164b8:	f884 3055 	strb.w	r3, [r4, #85]	@ 0x55
 80164bc:	2d00      	cmp	r5, #0
 80164be:	f040 8084 	bne.w	80165ca <fatfs_create_boot_sector+0x1d0>
 80164c2:	fbb7 f3f0 	udiv	r3, r7, r0
 80164c6:	3301      	adds	r3, #1
 80164c8:	0a1b      	lsrs	r3, r3, #8
 80164ca:	3301      	adds	r3, #1
 80164cc:	6223      	str	r3, [r4, #32]
 80164ce:	f884 3056 	strb.w	r3, [r4, #86]	@ 0x56
 80164d2:	f3c3 2307 	ubfx	r3, r3, #8, #8
 80164d6:	f884 3057 	strb.w	r3, [r4, #87]	@ 0x57
 80164da:	2300      	movs	r3, #0
 80164dc:	f884 3058 	strb.w	r3, [r4, #88]	@ 0x58
 80164e0:	f884 3059 	strb.w	r3, [r4, #89]	@ 0x59
 80164e4:	f884 305a 	strb.w	r3, [r4, #90]	@ 0x5a
 80164e8:	f884 305b 	strb.w	r3, [r4, #91]	@ 0x5b
 80164ec:	2220      	movs	r2, #32
 80164ee:	f884 205c 	strb.w	r2, [r4, #92]	@ 0x5c
 80164f2:	f884 305d 	strb.w	r3, [r4, #93]	@ 0x5d
 80164f6:	f884 305e 	strb.w	r3, [r4, #94]	@ 0x5e
 80164fa:	f884 305f 	strb.w	r3, [r4, #95]	@ 0x5f
 80164fe:	f884 7060 	strb.w	r7, [r4, #96]	@ 0x60
 8016502:	f3c7 2207 	ubfx	r2, r7, #8, #8
 8016506:	f884 2061 	strb.w	r2, [r4, #97]	@ 0x61
 801650a:	f3c7 4207 	ubfx	r2, r7, #16, #8
 801650e:	f884 2062 	strb.w	r2, [r4, #98]	@ 0x62
 8016512:	0e3f      	lsrs	r7, r7, #24
 8016514:	f884 7063 	strb.w	r7, [r4, #99]	@ 0x63
 8016518:	f884 3064 	strb.w	r3, [r4, #100]	@ 0x64
 801651c:	f884 3065 	strb.w	r3, [r4, #101]	@ 0x65
 8016520:	2329      	movs	r3, #41	@ 0x29
 8016522:	f884 3066 	strb.w	r3, [r4, #102]	@ 0x66
 8016526:	2312      	movs	r3, #18
 8016528:	f884 3067 	strb.w	r3, [r4, #103]	@ 0x67
 801652c:	2334      	movs	r3, #52	@ 0x34
 801652e:	f884 3068 	strb.w	r3, [r4, #104]	@ 0x68
 8016532:	2356      	movs	r3, #86	@ 0x56
 8016534:	f884 3069 	strb.w	r3, [r4, #105]	@ 0x69
 8016538:	2378      	movs	r3, #120	@ 0x78
 801653a:	f884 306a 	strb.w	r3, [r4, #106]	@ 0x6a
 801653e:	e010      	b.n	8016562 <fatfs_create_boot_sector+0x168>
 8016540:	2320      	movs	r3, #32
 8016542:	8563      	strh	r3, [r4, #42]	@ 0x2a
 8016544:	e79c      	b.n	8016480 <fatfs_create_boot_sector+0x86>
 8016546:	2300      	movs	r3, #0
 8016548:	8523      	strh	r3, [r4, #40]	@ 0x28
 801654a:	f884 3051 	strb.w	r3, [r4, #81]	@ 0x51
 801654e:	f884 3052 	strb.w	r3, [r4, #82]	@ 0x52
 8016552:	e7ab      	b.n	80164ac <fatfs_create_boot_sector+0xb2>
 8016554:	f105 032b 	add.w	r3, r5, #43	@ 0x2b
 8016558:	4423      	add	r3, r4
 801655a:	2220      	movs	r2, #32
 801655c:	f883 2040 	strb.w	r2, [r3, #64]	@ 0x40
 8016560:	3501      	adds	r5, #1
 8016562:	2d0a      	cmp	r5, #10
 8016564:	dc0b      	bgt.n	801657e <fatfs_create_boot_sector+0x184>
 8016566:	4630      	mov	r0, r6
 8016568:	f7fc f84b 	bl	8012602 <strlen>
 801656c:	42a8      	cmp	r0, r5
 801656e:	ddf1      	ble.n	8016554 <fatfs_create_boot_sector+0x15a>
 8016570:	f105 032b 	add.w	r3, r5, #43	@ 0x2b
 8016574:	5d72      	ldrb	r2, [r6, r5]
 8016576:	4423      	add	r3, r4
 8016578:	f883 2040 	strb.w	r2, [r3, #64]	@ 0x40
 801657c:	e7f0      	b.n	8016560 <fatfs_create_boot_sector+0x166>
 801657e:	2346      	movs	r3, #70	@ 0x46
 8016580:	f884 3076 	strb.w	r3, [r4, #118]	@ 0x76
 8016584:	2341      	movs	r3, #65	@ 0x41
 8016586:	f884 3077 	strb.w	r3, [r4, #119]	@ 0x77
 801658a:	2354      	movs	r3, #84	@ 0x54
 801658c:	f884 3078 	strb.w	r3, [r4, #120]	@ 0x78
 8016590:	2331      	movs	r3, #49	@ 0x31
 8016592:	f884 3079 	strb.w	r3, [r4, #121]	@ 0x79
 8016596:	2336      	movs	r3, #54	@ 0x36
 8016598:	f884 307a 	strb.w	r3, [r4, #122]	@ 0x7a
 801659c:	2320      	movs	r3, #32
 801659e:	f884 307b 	strb.w	r3, [r4, #123]	@ 0x7b
 80165a2:	f884 307c 	strb.w	r3, [r4, #124]	@ 0x7c
 80165a6:	f884 307d 	strb.w	r3, [r4, #125]	@ 0x7d
 80165aa:	2355      	movs	r3, #85	@ 0x55
 80165ac:	f884 323e 	strb.w	r3, [r4, #574]	@ 0x23e
 80165b0:	23aa      	movs	r3, #170	@ 0xaa
 80165b2:	f884 323f 	strb.w	r3, [r4, #575]	@ 0x23f
 80165b6:	6b63      	ldr	r3, [r4, #52]	@ 0x34
 80165b8:	2201      	movs	r2, #1
 80165ba:	4649      	mov	r1, r9
 80165bc:	4640      	mov	r0, r8
 80165be:	4798      	blx	r3
 80165c0:	2800      	cmp	r0, #0
 80165c2:	f000 809f 	beq.w	8016704 <fatfs_create_boot_sector+0x30a>
 80165c6:	2001      	movs	r0, #1
 80165c8:	e09c      	b.n	8016704 <fatfs_create_boot_sector+0x30a>
 80165ca:	2500      	movs	r5, #0
 80165cc:	f884 5056 	strb.w	r5, [r4, #86]	@ 0x56
 80165d0:	f884 5057 	strb.w	r5, [r4, #87]	@ 0x57
 80165d4:	233f      	movs	r3, #63	@ 0x3f
 80165d6:	f884 3058 	strb.w	r3, [r4, #88]	@ 0x58
 80165da:	f884 5059 	strb.w	r5, [r4, #89]	@ 0x59
 80165de:	23ff      	movs	r3, #255	@ 0xff
 80165e0:	f884 305a 	strb.w	r3, [r4, #90]	@ 0x5a
 80165e4:	f884 505b 	strb.w	r5, [r4, #91]	@ 0x5b
 80165e8:	f884 505c 	strb.w	r5, [r4, #92]	@ 0x5c
 80165ec:	f884 505d 	strb.w	r5, [r4, #93]	@ 0x5d
 80165f0:	f884 505e 	strb.w	r5, [r4, #94]	@ 0x5e
 80165f4:	f884 505f 	strb.w	r5, [r4, #95]	@ 0x5f
 80165f8:	f884 7060 	strb.w	r7, [r4, #96]	@ 0x60
 80165fc:	f3c7 2307 	ubfx	r3, r7, #8, #8
 8016600:	f884 3061 	strb.w	r3, [r4, #97]	@ 0x61
 8016604:	f3c7 4307 	ubfx	r3, r7, #16, #8
 8016608:	f884 3062 	strb.w	r3, [r4, #98]	@ 0x62
 801660c:	0e3b      	lsrs	r3, r7, #24
 801660e:	f884 3063 	strb.w	r3, [r4, #99]	@ 0x63
 8016612:	fbb7 f3f0 	udiv	r3, r7, r0
 8016616:	3301      	adds	r3, #1
 8016618:	09db      	lsrs	r3, r3, #7
 801661a:	3301      	adds	r3, #1
 801661c:	6223      	str	r3, [r4, #32]
 801661e:	f884 3064 	strb.w	r3, [r4, #100]	@ 0x64
 8016622:	f3c3 2207 	ubfx	r2, r3, #8, #8
 8016626:	f884 2065 	strb.w	r2, [r4, #101]	@ 0x65
 801662a:	f3c3 4207 	ubfx	r2, r3, #16, #8
 801662e:	f884 2066 	strb.w	r2, [r4, #102]	@ 0x66
 8016632:	0e1b      	lsrs	r3, r3, #24
 8016634:	f884 3067 	strb.w	r3, [r4, #103]	@ 0x67
 8016638:	f884 5068 	strb.w	r5, [r4, #104]	@ 0x68
 801663c:	f884 5069 	strb.w	r5, [r4, #105]	@ 0x69
 8016640:	f884 506a 	strb.w	r5, [r4, #106]	@ 0x6a
 8016644:	f884 506b 	strb.w	r5, [r4, #107]	@ 0x6b
 8016648:	68a3      	ldr	r3, [r4, #8]
 801664a:	f884 306c 	strb.w	r3, [r4, #108]	@ 0x6c
 801664e:	f3c3 2207 	ubfx	r2, r3, #8, #8
 8016652:	f884 206d 	strb.w	r2, [r4, #109]	@ 0x6d
 8016656:	f3c3 4207 	ubfx	r2, r3, #16, #8
 801665a:	f884 206e 	strb.w	r2, [r4, #110]	@ 0x6e
 801665e:	0e1b      	lsrs	r3, r3, #24
 8016660:	f884 306f 	strb.w	r3, [r4, #111]	@ 0x6f
 8016664:	8b23      	ldrh	r3, [r4, #24]
 8016666:	f884 3070 	strb.w	r3, [r4, #112]	@ 0x70
 801666a:	0a1b      	lsrs	r3, r3, #8
 801666c:	f884 3071 	strb.w	r3, [r4, #113]	@ 0x71
 8016670:	2306      	movs	r3, #6
 8016672:	f884 3072 	strb.w	r3, [r4, #114]	@ 0x72
 8016676:	f884 5073 	strb.w	r5, [r4, #115]	@ 0x73
 801667a:	f884 5080 	strb.w	r5, [r4, #128]	@ 0x80
 801667e:	2329      	movs	r3, #41	@ 0x29
 8016680:	f884 3082 	strb.w	r3, [r4, #130]	@ 0x82
 8016684:	2312      	movs	r3, #18
 8016686:	f884 3083 	strb.w	r3, [r4, #131]	@ 0x83
 801668a:	2334      	movs	r3, #52	@ 0x34
 801668c:	f884 3084 	strb.w	r3, [r4, #132]	@ 0x84
 8016690:	2356      	movs	r3, #86	@ 0x56
 8016692:	f884 3085 	strb.w	r3, [r4, #133]	@ 0x85
 8016696:	2378      	movs	r3, #120	@ 0x78
 8016698:	f884 3086 	strb.w	r3, [r4, #134]	@ 0x86
 801669c:	e006      	b.n	80166ac <fatfs_create_boot_sector+0x2b2>
 801669e:	f105 0347 	add.w	r3, r5, #71	@ 0x47
 80166a2:	4423      	add	r3, r4
 80166a4:	2220      	movs	r2, #32
 80166a6:	f883 2040 	strb.w	r2, [r3, #64]	@ 0x40
 80166aa:	3501      	adds	r5, #1
 80166ac:	2d0a      	cmp	r5, #10
 80166ae:	dc0b      	bgt.n	80166c8 <fatfs_create_boot_sector+0x2ce>
 80166b0:	4630      	mov	r0, r6
 80166b2:	f7fb ffa6 	bl	8012602 <strlen>
 80166b6:	42a8      	cmp	r0, r5
 80166b8:	ddf1      	ble.n	801669e <fatfs_create_boot_sector+0x2a4>
 80166ba:	f105 0347 	add.w	r3, r5, #71	@ 0x47
 80166be:	5d72      	ldrb	r2, [r6, r5]
 80166c0:	4423      	add	r3, r4
 80166c2:	f883 2040 	strb.w	r2, [r3, #64]	@ 0x40
 80166c6:	e7f0      	b.n	80166aa <fatfs_create_boot_sector+0x2b0>
 80166c8:	2346      	movs	r3, #70	@ 0x46
 80166ca:	f884 3092 	strb.w	r3, [r4, #146]	@ 0x92
 80166ce:	2341      	movs	r3, #65	@ 0x41
 80166d0:	f884 3093 	strb.w	r3, [r4, #147]	@ 0x93
 80166d4:	2354      	movs	r3, #84	@ 0x54
 80166d6:	f884 3094 	strb.w	r3, [r4, #148]	@ 0x94
 80166da:	2333      	movs	r3, #51	@ 0x33
 80166dc:	f884 3095 	strb.w	r3, [r4, #149]	@ 0x95
 80166e0:	2332      	movs	r3, #50	@ 0x32
 80166e2:	f884 3096 	strb.w	r3, [r4, #150]	@ 0x96
 80166e6:	2320      	movs	r3, #32
 80166e8:	f884 3097 	strb.w	r3, [r4, #151]	@ 0x97
 80166ec:	f884 3098 	strb.w	r3, [r4, #152]	@ 0x98
 80166f0:	f884 3099 	strb.w	r3, [r4, #153]	@ 0x99
 80166f4:	2355      	movs	r3, #85	@ 0x55
 80166f6:	f884 323e 	strb.w	r3, [r4, #574]	@ 0x23e
 80166fa:	23aa      	movs	r3, #170	@ 0xaa
 80166fc:	f884 323f 	strb.w	r3, [r4, #575]	@ 0x23f
 8016700:	e759      	b.n	80165b6 <fatfs_create_boot_sector+0x1bc>
 8016702:	2000      	movs	r0, #0
 8016704:	e8bd 83f8 	ldmia.w	sp!, {r3, r4, r5, r6, r7, r8, r9, pc}

08016708 <fatfs_format_fat16>:
 8016708:	b570      	push	{r4, r5, r6, lr}
 801670a:	b082      	sub	sp, #8
 801670c:	4604      	mov	r4, r0
 801670e:	460e      	mov	r6, r1
 8016710:	4615      	mov	r5, r2
 8016712:	f04f 33ff 	mov.w	r3, #4294967295	@ 0xffffffff
 8016716:	f8c0 3240 	str.w	r3, [r0, #576]	@ 0x240
 801671a:	2300      	movs	r3, #0
 801671c:	f8c0 3244 	str.w	r3, [r0, #580]	@ 0x244
 8016720:	6243      	str	r3, [r0, #36]	@ 0x24
 8016722:	f000 fd07 	bl	8017134 <fatfs_fat_init>
 8016726:	6b23      	ldr	r3, [r4, #48]	@ 0x30
 8016728:	2b00      	cmp	r3, #0
 801672a:	d035      	beq.n	8016798 <fatfs_format_fat16+0x90>
 801672c:	6b63      	ldr	r3, [r4, #52]	@ 0x34
 801672e:	2b00      	cmp	r3, #0
 8016730:	d035      	beq.n	801679e <fatfs_format_fat16+0x96>
 8016732:	2100      	movs	r1, #0
 8016734:	f884 102d 	strb.w	r1, [r4, #45]	@ 0x2d
 8016738:	8321      	strh	r1, [r4, #24]
 801673a:	60a1      	str	r1, [r4, #8]
 801673c:	61e1      	str	r1, [r4, #28]
 801673e:	9100      	str	r1, [sp, #0]
 8016740:	462b      	mov	r3, r5
 8016742:	4632      	mov	r2, r6
 8016744:	4620      	mov	r0, r4
 8016746:	f7ff fe58 	bl	80163fa <fatfs_create_boot_sector>
 801674a:	b908      	cbnz	r0, 8016750 <fatfs_format_fat16+0x48>
 801674c:	b002      	add	sp, #8
 801674e:	bd70      	pop	{r4, r5, r6, pc}
 8016750:	8d61      	ldrh	r1, [r4, #42]	@ 0x2a
 8016752:	f894 202c 	ldrb.w	r2, [r4, #44]	@ 0x2c
 8016756:	6a23      	ldr	r3, [r4, #32]
 8016758:	fb03 f202 	mul.w	r2, r3, r2
 801675c:	188b      	adds	r3, r1, r2
 801675e:	60e3      	str	r3, [r4, #12]
 8016760:	8d23      	ldrh	r3, [r4, #40]	@ 0x28
 8016762:	015b      	lsls	r3, r3, #5
 8016764:	f203 13ff 	addw	r3, r3, #511	@ 0x1ff
 8016768:	125b      	asrs	r3, r3, #9
 801676a:	6123      	str	r3, [r4, #16]
 801676c:	69e3      	ldr	r3, [r4, #28]
 801676e:	440b      	add	r3, r1
 8016770:	6163      	str	r3, [r4, #20]
 8016772:	441a      	add	r2, r3
 8016774:	6062      	str	r2, [r4, #4]
 8016776:	2100      	movs	r1, #0
 8016778:	4620      	mov	r0, r4
 801677a:	f7ff fd8b 	bl	8016294 <fatfs_erase_fat>
 801677e:	2800      	cmp	r0, #0
 8016780:	d0e4      	beq.n	801674c <fatfs_format_fat16+0x44>
 8016782:	69e1      	ldr	r1, [r4, #28]
 8016784:	68e3      	ldr	r3, [r4, #12]
 8016786:	6922      	ldr	r2, [r4, #16]
 8016788:	4419      	add	r1, r3
 801678a:	4620      	mov	r0, r4
 801678c:	f7ff fdd8 	bl	8016340 <fatfs_erase_sectors>
 8016790:	2800      	cmp	r0, #0
 8016792:	d0db      	beq.n	801674c <fatfs_format_fat16+0x44>
 8016794:	2001      	movs	r0, #1
 8016796:	e7d9      	b.n	801674c <fatfs_format_fat16+0x44>
 8016798:	f04f 30ff 	mov.w	r0, #4294967295	@ 0xffffffff
 801679c:	e7d6      	b.n	801674c <fatfs_format_fat16+0x44>
 801679e:	f04f 30ff 	mov.w	r0, #4294967295	@ 0xffffffff
 80167a2:	e7d3      	b.n	801674c <fatfs_format_fat16+0x44>

080167a4 <fatfs_format_fat32>:
 80167a4:	b5f0      	push	{r4, r5, r6, r7, lr}
 80167a6:	b083      	sub	sp, #12
 80167a8:	4604      	mov	r4, r0
 80167aa:	460f      	mov	r7, r1
 80167ac:	4616      	mov	r6, r2
 80167ae:	f04f 35ff 	mov.w	r5, #4294967295	@ 0xffffffff
 80167b2:	f8c0 5240 	str.w	r5, [r0, #576]	@ 0x240
 80167b6:	2500      	movs	r5, #0
 80167b8:	f8c0 5244 	str.w	r5, [r0, #580]	@ 0x244
 80167bc:	6245      	str	r5, [r0, #36]	@ 0x24
 80167be:	f000 fcb9 	bl	8017134 <fatfs_fat_init>
 80167c2:	6b20      	ldr	r0, [r4, #48]	@ 0x30
 80167c4:	2800      	cmp	r0, #0
 80167c6:	d03b      	beq.n	8016840 <fatfs_format_fat32+0x9c>
 80167c8:	6b63      	ldr	r3, [r4, #52]	@ 0x34
 80167ca:	2b00      	cmp	r3, #0
 80167cc:	d03b      	beq.n	8016846 <fatfs_format_fat32+0xa2>
 80167ce:	2001      	movs	r0, #1
 80167d0:	f884 002d 	strb.w	r0, [r4, #45]	@ 0x2d
 80167d4:	8320      	strh	r0, [r4, #24]
 80167d6:	2302      	movs	r3, #2
 80167d8:	60a3      	str	r3, [r4, #8]
 80167da:	4629      	mov	r1, r5
 80167dc:	61e5      	str	r5, [r4, #28]
 80167de:	9000      	str	r0, [sp, #0]
 80167e0:	4633      	mov	r3, r6
 80167e2:	463a      	mov	r2, r7
 80167e4:	4620      	mov	r0, r4
 80167e6:	f7ff fe08 	bl	80163fa <fatfs_create_boot_sector>
 80167ea:	4603      	mov	r3, r0
 80167ec:	b910      	cbnz	r0, 80167f4 <fatfs_format_fat32+0x50>
 80167ee:	4618      	mov	r0, r3
 80167f0:	b003      	add	sp, #12
 80167f2:	bdf0      	pop	{r4, r5, r6, r7, pc}
 80167f4:	69e3      	ldr	r3, [r4, #28]
 80167f6:	8d62      	ldrh	r2, [r4, #42]	@ 0x2a
 80167f8:	4413      	add	r3, r2
 80167fa:	6163      	str	r3, [r4, #20]
 80167fc:	f894 202c 	ldrb.w	r2, [r4, #44]	@ 0x2c
 8016800:	6a21      	ldr	r1, [r4, #32]
 8016802:	fb01 3302 	mla	r3, r1, r2, r3
 8016806:	6063      	str	r3, [r4, #4]
 8016808:	8b21      	ldrh	r1, [r4, #24]
 801680a:	4620      	mov	r0, r4
 801680c:	f7ff fdb7 	bl	801637e <fatfs_create_fsinfo_sector>
 8016810:	4603      	mov	r3, r0
 8016812:	2800      	cmp	r0, #0
 8016814:	d0eb      	beq.n	80167ee <fatfs_format_fat32+0x4a>
 8016816:	2101      	movs	r1, #1
 8016818:	4620      	mov	r0, r4
 801681a:	f7ff fd3b 	bl	8016294 <fatfs_erase_fat>
 801681e:	4603      	mov	r3, r0
 8016820:	2800      	cmp	r0, #0
 8016822:	d0e4      	beq.n	80167ee <fatfs_format_fat32+0x4a>
 8016824:	68a1      	ldr	r1, [r4, #8]
 8016826:	4620      	mov	r0, r4
 8016828:	f7fe f96e 	bl	8014b08 <fatfs_lba_of_cluster>
 801682c:	4601      	mov	r1, r0
 801682e:	7822      	ldrb	r2, [r4, #0]
 8016830:	4620      	mov	r0, r4
 8016832:	f7ff fd85 	bl	8016340 <fatfs_erase_sectors>
 8016836:	4603      	mov	r3, r0
 8016838:	2800      	cmp	r0, #0
 801683a:	d0d8      	beq.n	80167ee <fatfs_format_fat32+0x4a>
 801683c:	2301      	movs	r3, #1
 801683e:	e7d6      	b.n	80167ee <fatfs_format_fat32+0x4a>
 8016840:	f04f 33ff 	mov.w	r3, #4294967295	@ 0xffffffff
 8016844:	e7d3      	b.n	80167ee <fatfs_format_fat32+0x4a>
 8016846:	f04f 33ff 	mov.w	r3, #4294967295	@ 0xffffffff
 801684a:	e7d0      	b.n	80167ee <fatfs_format_fat32+0x4a>

0801684c <fatfs_format>:
 801684c:	b508      	push	{r3, lr}
 801684e:	f5b1 0f80 	cmp.w	r1, #4194304	@ 0x400000
 8016852:	d802      	bhi.n	801685a <fatfs_format+0xe>
 8016854:	f7ff ff58 	bl	8016708 <fatfs_format_fat16>
 8016858:	bd08      	pop	{r3, pc}
 801685a:	f7ff ffa3 	bl	80167a4 <fatfs_format_fat32>
 801685e:	e7fb      	b.n	8016858 <fatfs_format+0xc>

08016860 <fatfs_itoa>:
 8016860:	b530      	push	{r4, r5, lr}
 8016862:	b089      	sub	sp, #36	@ 0x24
 8016864:	4684      	mov	ip, r0
 8016866:	468e      	mov	lr, r1
 8016868:	466c      	mov	r4, sp
 801686a:	4d15      	ldr	r5, [pc, #84]	@ (80168c0 <fatfs_itoa+0x60>)
 801686c:	cd0f      	ldmia	r5!, {r0, r1, r2, r3}
 801686e:	c40f      	stmia	r4!, {r0, r1, r2, r3}
 8016870:	682b      	ldr	r3, [r5, #0]
 8016872:	7023      	strb	r3, [r4, #0]
 8016874:	a905      	add	r1, sp, #20
 8016876:	4b13      	ldr	r3, [pc, #76]	@ (80168c4 <fatfs_itoa+0x64>)
 8016878:	fba3 230c 	umull	r2, r3, r3, ip
 801687c:	08db      	lsrs	r3, r3, #3
 801687e:	4618      	mov	r0, r3
 8016880:	eb03 0383 	add.w	r3, r3, r3, lsl #2
 8016884:	ebac 0343 	sub.w	r3, ip, r3, lsl #1
 8016888:	460a      	mov	r2, r1
 801688a:	3101      	adds	r1, #1
 801688c:	3320      	adds	r3, #32
 801688e:	446b      	add	r3, sp
 8016890:	f813 3c20 	ldrb.w	r3, [r3, #-32]
 8016894:	7013      	strb	r3, [r2, #0]
 8016896:	4663      	mov	r3, ip
 8016898:	4684      	mov	ip, r0
 801689a:	2b09      	cmp	r3, #9
 801689c:	d8eb      	bhi.n	8016876 <fatfs_itoa+0x16>
 801689e:	2300      	movs	r3, #0
 80168a0:	700b      	strb	r3, [r1, #0]
 80168a2:	e005      	b.n	80168b0 <fatfs_itoa+0x50>
 80168a4:	4671      	mov	r1, lr
 80168a6:	f812 3901 	ldrb.w	r3, [r2], #-1
 80168aa:	f801 3b01 	strb.w	r3, [r1], #1
 80168ae:	468e      	mov	lr, r1
 80168b0:	ab05      	add	r3, sp, #20
 80168b2:	429a      	cmp	r2, r3
 80168b4:	d2f6      	bcs.n	80168a4 <fatfs_itoa+0x44>
 80168b6:	2300      	movs	r3, #0
 80168b8:	f88e 3000 	strb.w	r3, [lr]
 80168bc:	b009      	add	sp, #36	@ 0x24
 80168be:	bd30      	pop	{r4, r5, pc}
 80168c0:	08019eec 	.word	0x08019eec
 80168c4:	cccccccd 	.word	0xcccccccd

080168c8 <fatfs_lfn_cache_init>:
 80168c8:	b538      	push	{r3, r4, r5, lr}
 80168ca:	2300      	movs	r3, #0
 80168cc:	f880 3105 	strb.w	r3, [r0, #261]	@ 0x105
 80168d0:	b969      	cbnz	r1, 80168ee <fatfs_lfn_cache_init+0x26>
 80168d2:	bd38      	pop	{r3, r4, r5, pc}
 80168d4:	eb04 0044 	add.w	r0, r4, r4, lsl #1
 80168d8:	eb04 0080 	add.w	r0, r4, r0, lsl #2
 80168dc:	220d      	movs	r2, #13
 80168de:	2100      	movs	r1, #0
 80168e0:	4428      	add	r0, r5
 80168e2:	f7fb fe58 	bl	8012596 <memset>
 80168e6:	3401      	adds	r4, #1
 80168e8:	2c13      	cmp	r4, #19
 80168ea:	ddf3      	ble.n	80168d4 <fatfs_lfn_cache_init+0xc>
 80168ec:	e7f1      	b.n	80168d2 <fatfs_lfn_cache_init+0xa>
 80168ee:	4605      	mov	r5, r0
 80168f0:	2400      	movs	r4, #0
 80168f2:	e7f9      	b.n	80168e8 <fatfs_lfn_cache_init+0x20>

080168f4 <fatfs_lfn_cache_entry>:
 80168f4:	f891 c000 	ldrb.w	ip, [r1]
 80168f8:	f00c 031f 	and.w	r3, ip, #31
 80168fc:	2b14      	cmp	r3, #20
 80168fe:	d842      	bhi.n	8016986 <fatfs_lfn_cache_entry+0x92>
 8016900:	2b00      	cmp	r3, #0
 8016902:	d040      	beq.n	8016986 <fatfs_lfn_cache_entry+0x92>
 8016904:	b500      	push	{lr}
 8016906:	f890 2105 	ldrb.w	r2, [r0, #261]	@ 0x105
 801690a:	b90a      	cbnz	r2, 8016910 <fatfs_lfn_cache_entry+0x1c>
 801690c:	f880 3105 	strb.w	r3, [r0, #261]	@ 0x105
 8016910:	f103 3cff 	add.w	ip, r3, #4294967295	@ 0xffffffff
 8016914:	f891 e001 	ldrb.w	lr, [r1, #1]
 8016918:	eb0c 024c 	add.w	r2, ip, ip, lsl #1
 801691c:	eb0c 0282 	add.w	r2, ip, r2, lsl #2
 8016920:	1883      	adds	r3, r0, r2
 8016922:	f800 e002 	strb.w	lr, [r0, r2]
 8016926:	78ca      	ldrb	r2, [r1, #3]
 8016928:	705a      	strb	r2, [r3, #1]
 801692a:	794a      	ldrb	r2, [r1, #5]
 801692c:	709a      	strb	r2, [r3, #2]
 801692e:	79ca      	ldrb	r2, [r1, #7]
 8016930:	70da      	strb	r2, [r3, #3]
 8016932:	7a4a      	ldrb	r2, [r1, #9]
 8016934:	711a      	strb	r2, [r3, #4]
 8016936:	7b8a      	ldrb	r2, [r1, #14]
 8016938:	715a      	strb	r2, [r3, #5]
 801693a:	7c0a      	ldrb	r2, [r1, #16]
 801693c:	719a      	strb	r2, [r3, #6]
 801693e:	7c8a      	ldrb	r2, [r1, #18]
 8016940:	71da      	strb	r2, [r3, #7]
 8016942:	7d0a      	ldrb	r2, [r1, #20]
 8016944:	721a      	strb	r2, [r3, #8]
 8016946:	7d8a      	ldrb	r2, [r1, #22]
 8016948:	725a      	strb	r2, [r3, #9]
 801694a:	7e0a      	ldrb	r2, [r1, #24]
 801694c:	729a      	strb	r2, [r3, #10]
 801694e:	7f0a      	ldrb	r2, [r1, #28]
 8016950:	72da      	strb	r2, [r3, #11]
 8016952:	7f8a      	ldrb	r2, [r1, #30]
 8016954:	731a      	strb	r2, [r3, #12]
 8016956:	2300      	movs	r3, #0
 8016958:	e001      	b.n	801695e <fatfs_lfn_cache_entry+0x6a>
 801695a:	3301      	adds	r3, #1
 801695c:	b2db      	uxtb	r3, r3
 801695e:	2b0c      	cmp	r3, #12
 8016960:	d80f      	bhi.n	8016982 <fatfs_lfn_cache_entry+0x8e>
 8016962:	eb0c 024c 	add.w	r2, ip, ip, lsl #1
 8016966:	eb0c 0282 	add.w	r2, ip, r2, lsl #2
 801696a:	4402      	add	r2, r0
 801696c:	5cd2      	ldrb	r2, [r2, r3]
 801696e:	2aff      	cmp	r2, #255	@ 0xff
 8016970:	d1f3      	bne.n	801695a <fatfs_lfn_cache_entry+0x66>
 8016972:	eb0c 024c 	add.w	r2, ip, ip, lsl #1
 8016976:	eb0c 0282 	add.w	r2, ip, r2, lsl #2
 801697a:	4402      	add	r2, r0
 801697c:	2120      	movs	r1, #32
 801697e:	54d1      	strb	r1, [r2, r3]
 8016980:	e7eb      	b.n	801695a <fatfs_lfn_cache_entry+0x66>
 8016982:	f85d fb04 	ldr.w	pc, [sp], #4
 8016986:	4770      	bx	lr

08016988 <fatfs_lfn_cache_get>:
 8016988:	f890 3105 	ldrb.w	r3, [r0, #261]	@ 0x105
 801698c:	2b14      	cmp	r3, #20
 801698e:	d007      	beq.n	80169a0 <fatfs_lfn_cache_get+0x18>
 8016990:	b153      	cbz	r3, 80169a8 <fatfs_lfn_cache_get+0x20>
 8016992:	eb03 0243 	add.w	r2, r3, r3, lsl #1
 8016996:	eb03 0382 	add.w	r3, r3, r2, lsl #2
 801699a:	2200      	movs	r2, #0
 801699c:	54c2      	strb	r2, [r0, r3]
 801699e:	4770      	bx	lr
 80169a0:	2300      	movs	r3, #0
 80169a2:	f880 3104 	strb.w	r3, [r0, #260]	@ 0x104
 80169a6:	4770      	bx	lr
 80169a8:	2300      	movs	r3, #0
 80169aa:	7003      	strb	r3, [r0, #0]
 80169ac:	4770      	bx	lr

080169ae <fatfs_entry_lfn_text>:
 80169ae:	7ac3      	ldrb	r3, [r0, #11]
 80169b0:	f003 030f 	and.w	r3, r3, #15
 80169b4:	2b0f      	cmp	r3, #15
 80169b6:	d001      	beq.n	80169bc <fatfs_entry_lfn_text+0xe>
 80169b8:	2000      	movs	r0, #0
 80169ba:	4770      	bx	lr
 80169bc:	2001      	movs	r0, #1
 80169be:	4770      	bx	lr

080169c0 <fatfs_entry_lfn_invalid>:
 80169c0:	7803      	ldrb	r3, [r0, #0]
 80169c2:	b14b      	cbz	r3, 80169d8 <fatfs_entry_lfn_invalid+0x18>
 80169c4:	2be5      	cmp	r3, #229	@ 0xe5
 80169c6:	d009      	beq.n	80169dc <fatfs_entry_lfn_invalid+0x1c>
 80169c8:	7ac3      	ldrb	r3, [r0, #11]
 80169ca:	2b08      	cmp	r3, #8
 80169cc:	d008      	beq.n	80169e0 <fatfs_entry_lfn_invalid+0x20>
 80169ce:	f013 0f06 	tst.w	r3, #6
 80169d2:	d007      	beq.n	80169e4 <fatfs_entry_lfn_invalid+0x24>
 80169d4:	2001      	movs	r0, #1
 80169d6:	4770      	bx	lr
 80169d8:	2001      	movs	r0, #1
 80169da:	4770      	bx	lr
 80169dc:	2001      	movs	r0, #1
 80169de:	4770      	bx	lr
 80169e0:	2001      	movs	r0, #1
 80169e2:	4770      	bx	lr
 80169e4:	2000      	movs	r0, #0
 80169e6:	4770      	bx	lr

080169e8 <fatfs_entry_lfn_exists>:
 80169e8:	7acb      	ldrb	r3, [r1, #11]
 80169ea:	2b0f      	cmp	r3, #15
 80169ec:	d00d      	beq.n	8016a0a <fatfs_entry_lfn_exists+0x22>
 80169ee:	780a      	ldrb	r2, [r1, #0]
 80169f0:	b16a      	cbz	r2, 8016a0e <fatfs_entry_lfn_exists+0x26>
 80169f2:	2ae5      	cmp	r2, #229	@ 0xe5
 80169f4:	d00d      	beq.n	8016a12 <fatfs_entry_lfn_exists+0x2a>
 80169f6:	2b08      	cmp	r3, #8
 80169f8:	d00d      	beq.n	8016a16 <fatfs_entry_lfn_exists+0x2e>
 80169fa:	f013 0f06 	tst.w	r3, #6
 80169fe:	d10c      	bne.n	8016a1a <fatfs_entry_lfn_exists+0x32>
 8016a00:	f890 3105 	ldrb.w	r3, [r0, #261]	@ 0x105
 8016a04:	b95b      	cbnz	r3, 8016a1e <fatfs_entry_lfn_exists+0x36>
 8016a06:	2000      	movs	r0, #0
 8016a08:	4770      	bx	lr
 8016a0a:	2000      	movs	r0, #0
 8016a0c:	4770      	bx	lr
 8016a0e:	2000      	movs	r0, #0
 8016a10:	4770      	bx	lr
 8016a12:	2000      	movs	r0, #0
 8016a14:	4770      	bx	lr
 8016a16:	2000      	movs	r0, #0
 8016a18:	4770      	bx	lr
 8016a1a:	2000      	movs	r0, #0
 8016a1c:	4770      	bx	lr
 8016a1e:	2001      	movs	r0, #1
 8016a20:	4770      	bx	lr

08016a22 <fatfs_entry_sfn_only>:
 8016a22:	7ac3      	ldrb	r3, [r0, #11]
 8016a24:	2b0f      	cmp	r3, #15
 8016a26:	d00a      	beq.n	8016a3e <fatfs_entry_sfn_only+0x1c>
 8016a28:	7802      	ldrb	r2, [r0, #0]
 8016a2a:	b152      	cbz	r2, 8016a42 <fatfs_entry_sfn_only+0x20>
 8016a2c:	2ae5      	cmp	r2, #229	@ 0xe5
 8016a2e:	d00a      	beq.n	8016a46 <fatfs_entry_sfn_only+0x24>
 8016a30:	2b08      	cmp	r3, #8
 8016a32:	d00a      	beq.n	8016a4a <fatfs_entry_sfn_only+0x28>
 8016a34:	f013 0f06 	tst.w	r3, #6
 8016a38:	d009      	beq.n	8016a4e <fatfs_entry_sfn_only+0x2c>
 8016a3a:	2000      	movs	r0, #0
 8016a3c:	4770      	bx	lr
 8016a3e:	2000      	movs	r0, #0
 8016a40:	4770      	bx	lr
 8016a42:	2000      	movs	r0, #0
 8016a44:	4770      	bx	lr
 8016a46:	2000      	movs	r0, #0
 8016a48:	4770      	bx	lr
 8016a4a:	2000      	movs	r0, #0
 8016a4c:	4770      	bx	lr
 8016a4e:	2001      	movs	r0, #1
 8016a50:	4770      	bx	lr

08016a52 <fatfs_entry_is_dir>:
 8016a52:	7ac3      	ldrb	r3, [r0, #11]
 8016a54:	f013 0f10 	tst.w	r3, #16
 8016a58:	d001      	beq.n	8016a5e <fatfs_entry_is_dir+0xc>
 8016a5a:	2001      	movs	r0, #1
 8016a5c:	4770      	bx	lr
 8016a5e:	2000      	movs	r0, #0
 8016a60:	4770      	bx	lr

08016a62 <fatfs_entry_is_file>:
 8016a62:	7ac3      	ldrb	r3, [r0, #11]
 8016a64:	f013 0f20 	tst.w	r3, #32
 8016a68:	d001      	beq.n	8016a6e <fatfs_entry_is_file+0xc>
 8016a6a:	2001      	movs	r0, #1
 8016a6c:	4770      	bx	lr
 8016a6e:	2000      	movs	r0, #0
 8016a70:	4770      	bx	lr

08016a72 <fatfs_lfn_entries_required>:
 8016a72:	b508      	push	{r3, lr}
 8016a74:	f7fb fdc5 	bl	8012602 <strlen>
 8016a78:	b130      	cbz	r0, 8016a88 <fatfs_lfn_entries_required+0x16>
 8016a7a:	300c      	adds	r0, #12
 8016a7c:	4b03      	ldr	r3, [pc, #12]	@ (8016a8c <fatfs_lfn_entries_required+0x1a>)
 8016a7e:	fb83 2300 	smull	r2, r3, r3, r0
 8016a82:	17c0      	asrs	r0, r0, #31
 8016a84:	ebc0 00a3 	rsb	r0, r0, r3, asr #2
 8016a88:	bd08      	pop	{r3, pc}
 8016a8a:	bf00      	nop
 8016a8c:	4ec4ec4f 	.word	0x4ec4ec4f

08016a90 <fatfs_filename_to_lfn>:
 8016a90:	e92d 47f0 	stmdb	sp!, {r4, r5, r6, r7, r8, r9, sl, lr}
 8016a94:	b08e      	sub	sp, #56	@ 0x38
 8016a96:	4606      	mov	r6, r0
 8016a98:	460c      	mov	r4, r1
 8016a9a:	4690      	mov	r8, r2
 8016a9c:	4699      	mov	r9, r3
 8016a9e:	ad01      	add	r5, sp, #4
 8016aa0:	4f29      	ldr	r7, [pc, #164]	@ (8016b48 <fatfs_filename_to_lfn+0xb8>)
 8016aa2:	cf0f      	ldmia	r7!, {r0, r1, r2, r3}
 8016aa4:	c50f      	stmia	r5!, {r0, r1, r2, r3}
 8016aa6:	cf0f      	ldmia	r7!, {r0, r1, r2, r3}
 8016aa8:	c50f      	stmia	r5!, {r0, r1, r2, r3}
 8016aaa:	cf0f      	ldmia	r7!, {r0, r1, r2, r3}
 8016aac:	c50f      	stmia	r5!, {r0, r1, r2, r3}
 8016aae:	683b      	ldr	r3, [r7, #0]
 8016ab0:	602b      	str	r3, [r5, #0]
 8016ab2:	4630      	mov	r0, r6
 8016ab4:	f7fb fda5 	bl	8012602 <strlen>
 8016ab8:	4605      	mov	r5, r0
 8016aba:	4630      	mov	r0, r6
 8016abc:	f7ff ffd9 	bl	8016a72 <fatfs_lfn_entries_required>
 8016ac0:	4682      	mov	sl, r0
 8016ac2:	eb08 0748 	add.w	r7, r8, r8, lsl #1
 8016ac6:	eb08 0787 	add.w	r7, r8, r7, lsl #2
 8016aca:	2220      	movs	r2, #32
 8016acc:	2100      	movs	r1, #0
 8016ace:	4620      	mov	r0, r4
 8016ad0:	f7fb fd61 	bl	8012596 <memset>
 8016ad4:	f10a 3aff 	add.w	sl, sl, #4294967295	@ 0xffffffff
 8016ad8:	45c2      	cmp	sl, r8
 8016ada:	d00a      	beq.n	8016af2 <fatfs_filename_to_lfn+0x62>
 8016adc:	fa5f f388 	uxtb.w	r3, r8
 8016ae0:	3301      	adds	r3, #1
 8016ae2:	b2db      	uxtb	r3, r3
 8016ae4:	7023      	strb	r3, [r4, #0]
 8016ae6:	230f      	movs	r3, #15
 8016ae8:	72e3      	strb	r3, [r4, #11]
 8016aea:	f884 900d 	strb.w	r9, [r4, #13]
 8016aee:	2300      	movs	r3, #0
 8016af0:	e011      	b.n	8016b16 <fatfs_filename_to_lfn+0x86>
 8016af2:	f108 0301 	add.w	r3, r8, #1
 8016af6:	b2db      	uxtb	r3, r3
 8016af8:	f043 0340 	orr.w	r3, r3, #64	@ 0x40
 8016afc:	e7f2      	b.n	8016ae4 <fatfs_filename_to_lfn+0x54>
 8016afe:	42aa      	cmp	r2, r5
 8016b00:	d016      	beq.n	8016b30 <fatfs_filename_to_lfn+0xa0>
 8016b02:	aa0e      	add	r2, sp, #56	@ 0x38
 8016b04:	eb02 0283 	add.w	r2, r2, r3, lsl #2
 8016b08:	f852 2c34 	ldr.w	r2, [r2, #-52]
 8016b0c:	21ff      	movs	r1, #255	@ 0xff
 8016b0e:	54a1      	strb	r1, [r4, r2]
 8016b10:	3201      	adds	r2, #1
 8016b12:	54a1      	strb	r1, [r4, r2]
 8016b14:	3301      	adds	r3, #1
 8016b16:	2b0c      	cmp	r3, #12
 8016b18:	dc12      	bgt.n	8016b40 <fatfs_filename_to_lfn+0xb0>
 8016b1a:	19da      	adds	r2, r3, r7
 8016b1c:	42aa      	cmp	r2, r5
 8016b1e:	daee      	bge.n	8016afe <fatfs_filename_to_lfn+0x6e>
 8016b20:	a90e      	add	r1, sp, #56	@ 0x38
 8016b22:	eb01 0183 	add.w	r1, r1, r3, lsl #2
 8016b26:	f851 1c34 	ldr.w	r1, [r1, #-52]
 8016b2a:	5cb2      	ldrb	r2, [r6, r2]
 8016b2c:	5462      	strb	r2, [r4, r1]
 8016b2e:	e7f1      	b.n	8016b14 <fatfs_filename_to_lfn+0x84>
 8016b30:	aa0e      	add	r2, sp, #56	@ 0x38
 8016b32:	eb02 0283 	add.w	r2, r2, r3, lsl #2
 8016b36:	f852 2c34 	ldr.w	r2, [r2, #-52]
 8016b3a:	2100      	movs	r1, #0
 8016b3c:	54a1      	strb	r1, [r4, r2]
 8016b3e:	e7e9      	b.n	8016b14 <fatfs_filename_to_lfn+0x84>
 8016b40:	b00e      	add	sp, #56	@ 0x38
 8016b42:	e8bd 87f0 	ldmia.w	sp!, {r4, r5, r6, r7, r8, r9, sl, pc}
 8016b46:	bf00      	nop
 8016b48:	08019e68 	.word	0x08019e68

08016b4c <fatfs_sfn_create_entry>:
 8016b4c:	b500      	push	{lr}
 8016b4e:	f04f 0c00 	mov.w	ip, #0
 8016b52:	e005      	b.n	8016b60 <fatfs_sfn_create_entry+0x14>
 8016b54:	f810 e00c 	ldrb.w	lr, [r0, ip]
 8016b58:	f803 e00c 	strb.w	lr, [r3, ip]
 8016b5c:	f10c 0c01 	add.w	ip, ip, #1
 8016b60:	f1bc 0f0a 	cmp.w	ip, #10
 8016b64:	ddf6      	ble.n	8016b54 <fatfs_sfn_create_entry+0x8>
 8016b66:	2000      	movs	r0, #0
 8016b68:	7358      	strb	r0, [r3, #13]
 8016b6a:	7398      	strb	r0, [r3, #14]
 8016b6c:	73d8      	strb	r0, [r3, #15]
 8016b6e:	7458      	strb	r0, [r3, #17]
 8016b70:	f04f 0c20 	mov.w	ip, #32
 8016b74:	f883 c010 	strb.w	ip, [r3, #16]
 8016b78:	74d8      	strb	r0, [r3, #19]
 8016b7a:	f883 c012 	strb.w	ip, [r3, #18]
 8016b7e:	7598      	strb	r0, [r3, #22]
 8016b80:	75d8      	strb	r0, [r3, #23]
 8016b82:	7658      	strb	r0, [r3, #25]
 8016b84:	f883 c018 	strb.w	ip, [r3, #24]
 8016b88:	9801      	ldr	r0, [sp, #4]
 8016b8a:	b948      	cbnz	r0, 8016ba0 <fatfs_sfn_create_entry+0x54>
 8016b8c:	f883 c00b 	strb.w	ip, [r3, #11]
 8016b90:	2000      	movs	r0, #0
 8016b92:	7318      	strb	r0, [r3, #12]
 8016b94:	0c10      	lsrs	r0, r2, #16
 8016b96:	8298      	strh	r0, [r3, #20]
 8016b98:	835a      	strh	r2, [r3, #26]
 8016b9a:	61d9      	str	r1, [r3, #28]
 8016b9c:	f85d fb04 	ldr.w	pc, [sp], #4
 8016ba0:	2010      	movs	r0, #16
 8016ba2:	72d8      	strb	r0, [r3, #11]
 8016ba4:	e7f4      	b.n	8016b90 <fatfs_sfn_create_entry+0x44>

08016ba6 <fatfs_lfn_create_sfn>:
 8016ba6:	b570      	push	{r4, r5, r6, lr}
 8016ba8:	b082      	sub	sp, #8
 8016baa:	4605      	mov	r5, r0
 8016bac:	460c      	mov	r4, r1
 8016bae:	4608      	mov	r0, r1
 8016bb0:	f7fb fd27 	bl	8012602 <strlen>
 8016bb4:	7823      	ldrb	r3, [r4, #0]
 8016bb6:	2b2e      	cmp	r3, #46	@ 0x2e
 8016bb8:	d059      	beq.n	8016c6e <fatfs_lfn_create_sfn+0xc8>
 8016bba:	4606      	mov	r6, r0
 8016bbc:	220b      	movs	r2, #11
 8016bbe:	2120      	movs	r1, #32
 8016bc0:	4628      	mov	r0, r5
 8016bc2:	f7fb fce8 	bl	8012596 <memset>
 8016bc6:	2203      	movs	r2, #3
 8016bc8:	2120      	movs	r1, #32
 8016bca:	a801      	add	r0, sp, #4
 8016bcc:	f7fb fce3 	bl	8012596 <memset>
 8016bd0:	f04f 3cff 	mov.w	ip, #4294967295	@ 0xffffffff
 8016bd4:	2300      	movs	r3, #0
 8016bd6:	e000      	b.n	8016bda <fatfs_lfn_create_sfn+0x34>
 8016bd8:	3301      	adds	r3, #1
 8016bda:	42b3      	cmp	r3, r6
 8016bdc:	da04      	bge.n	8016be8 <fatfs_lfn_create_sfn+0x42>
 8016bde:	5ce2      	ldrb	r2, [r4, r3]
 8016be0:	2a2e      	cmp	r2, #46	@ 0x2e
 8016be2:	d1f9      	bne.n	8016bd8 <fatfs_lfn_create_sfn+0x32>
 8016be4:	469c      	mov	ip, r3
 8016be6:	e7f7      	b.n	8016bd8 <fatfs_lfn_create_sfn+0x32>
 8016be8:	f1bc 3fff 	cmp.w	ip, #4294967295	@ 0xffffffff
 8016bec:	d011      	beq.n	8016c12 <fatfs_lfn_create_sfn+0x6c>
 8016bee:	f10c 0101 	add.w	r1, ip, #1
 8016bf2:	460b      	mov	r3, r1
 8016bf4:	e000      	b.n	8016bf8 <fatfs_lfn_create_sfn+0x52>
 8016bf6:	3301      	adds	r3, #1
 8016bf8:	f10c 0203 	add.w	r2, ip, #3
 8016bfc:	429a      	cmp	r2, r3
 8016bfe:	db09      	blt.n	8016c14 <fatfs_lfn_create_sfn+0x6e>
 8016c00:	42b3      	cmp	r3, r6
 8016c02:	daf8      	bge.n	8016bf6 <fatfs_lfn_create_sfn+0x50>
 8016c04:	1a5a      	subs	r2, r3, r1
 8016c06:	5ce0      	ldrb	r0, [r4, r3]
 8016c08:	3208      	adds	r2, #8
 8016c0a:	446a      	add	r2, sp
 8016c0c:	f802 0c04 	strb.w	r0, [r2, #-4]
 8016c10:	e7f1      	b.n	8016bf6 <fatfs_lfn_create_sfn+0x50>
 8016c12:	46b4      	mov	ip, r6
 8016c14:	2100      	movs	r1, #0
 8016c16:	460b      	mov	r3, r1
 8016c18:	e004      	b.n	8016c24 <fatfs_lfn_create_sfn+0x7e>
 8016c1a:	546a      	strb	r2, [r5, r1]
 8016c1c:	3101      	adds	r1, #1
 8016c1e:	2908      	cmp	r1, #8
 8016c20:	d010      	beq.n	8016c44 <fatfs_lfn_create_sfn+0x9e>
 8016c22:	3301      	adds	r3, #1
 8016c24:	4563      	cmp	r3, ip
 8016c26:	da0d      	bge.n	8016c44 <fatfs_lfn_create_sfn+0x9e>
 8016c28:	5ce2      	ldrb	r2, [r4, r3]
 8016c2a:	2a20      	cmp	r2, #32
 8016c2c:	d0f7      	beq.n	8016c1e <fatfs_lfn_create_sfn+0x78>
 8016c2e:	2a2e      	cmp	r2, #46	@ 0x2e
 8016c30:	d0f5      	beq.n	8016c1e <fatfs_lfn_create_sfn+0x78>
 8016c32:	f1a2 0061 	sub.w	r0, r2, #97	@ 0x61
 8016c36:	b2c0      	uxtb	r0, r0
 8016c38:	2819      	cmp	r0, #25
 8016c3a:	d8ee      	bhi.n	8016c1a <fatfs_lfn_create_sfn+0x74>
 8016c3c:	3a20      	subs	r2, #32
 8016c3e:	546a      	strb	r2, [r5, r1]
 8016c40:	3101      	adds	r1, #1
 8016c42:	e7ec      	b.n	8016c1e <fatfs_lfn_create_sfn+0x78>
 8016c44:	2308      	movs	r3, #8
 8016c46:	e001      	b.n	8016c4c <fatfs_lfn_create_sfn+0xa6>
 8016c48:	54ea      	strb	r2, [r5, r3]
 8016c4a:	3301      	adds	r3, #1
 8016c4c:	2b0a      	cmp	r3, #10
 8016c4e:	dc0b      	bgt.n	8016c68 <fatfs_lfn_create_sfn+0xc2>
 8016c50:	eb0d 0203 	add.w	r2, sp, r3
 8016c54:	f812 2c04 	ldrb.w	r2, [r2, #-4]
 8016c58:	f1a2 0161 	sub.w	r1, r2, #97	@ 0x61
 8016c5c:	b2c9      	uxtb	r1, r1
 8016c5e:	2919      	cmp	r1, #25
 8016c60:	d8f2      	bhi.n	8016c48 <fatfs_lfn_create_sfn+0xa2>
 8016c62:	3a20      	subs	r2, #32
 8016c64:	54ea      	strb	r2, [r5, r3]
 8016c66:	e7f0      	b.n	8016c4a <fatfs_lfn_create_sfn+0xa4>
 8016c68:	2001      	movs	r0, #1
 8016c6a:	b002      	add	sp, #8
 8016c6c:	bd70      	pop	{r4, r5, r6, pc}
 8016c6e:	2000      	movs	r0, #0
 8016c70:	e7fb      	b.n	8016c6a <fatfs_lfn_create_sfn+0xc4>

08016c72 <fatfs_lfn_generate_tail>:
 8016c72:	4b14      	ldr	r3, [pc, #80]	@ (8016cc4 <fatfs_lfn_generate_tail+0x52>)
 8016c74:	429a      	cmp	r2, r3
 8016c76:	d901      	bls.n	8016c7c <fatfs_lfn_generate_tail+0xa>
 8016c78:	2000      	movs	r0, #0
 8016c7a:	4770      	bx	lr
 8016c7c:	b570      	push	{r4, r5, r6, lr}
 8016c7e:	b084      	sub	sp, #16
 8016c80:	4606      	mov	r6, r0
 8016c82:	460d      	mov	r5, r1
 8016c84:	4614      	mov	r4, r2
 8016c86:	220c      	movs	r2, #12
 8016c88:	2100      	movs	r1, #0
 8016c8a:	a801      	add	r0, sp, #4
 8016c8c:	f7fb fc83 	bl	8012596 <memset>
 8016c90:	237e      	movs	r3, #126	@ 0x7e
 8016c92:	f88d 3004 	strb.w	r3, [sp, #4]
 8016c96:	f10d 0105 	add.w	r1, sp, #5
 8016c9a:	4620      	mov	r0, r4
 8016c9c:	f7ff fde0 	bl	8016860 <fatfs_itoa>
 8016ca0:	220b      	movs	r2, #11
 8016ca2:	4629      	mov	r1, r5
 8016ca4:	4630      	mov	r0, r6
 8016ca6:	f7fb fc7d 	bl	80125a4 <memcpy>
 8016caa:	a801      	add	r0, sp, #4
 8016cac:	f7fb fca9 	bl	8012602 <strlen>
 8016cb0:	4602      	mov	r2, r0
 8016cb2:	f1c0 0008 	rsb	r0, r0, #8
 8016cb6:	a901      	add	r1, sp, #4
 8016cb8:	4430      	add	r0, r6
 8016cba:	f7fb fc73 	bl	80125a4 <memcpy>
 8016cbe:	2001      	movs	r0, #1
 8016cc0:	b004      	add	sp, #16
 8016cc2:	bd70      	pop	{r4, r5, r6, pc}
 8016cc4:	0001869f 	.word	0x0001869f

08016cc8 <FileString_StrCmpNoCase>:
 8016cc8:	b530      	push	{r4, r5, lr}
 8016cca:	4684      	mov	ip, r0
 8016ccc:	e012      	b.n	8016cf4 <FileString_StrCmpNoCase+0x2c>
 8016cce:	4622      	mov	r2, r4
 8016cd0:	f1a5 0341 	sub.w	r3, r5, #65	@ 0x41
 8016cd4:	b2db      	uxtb	r3, r3
 8016cd6:	2b19      	cmp	r3, #25
 8016cd8:	d803      	bhi.n	8016ce2 <FileString_StrCmpNoCase+0x1a>
 8016cda:	f105 0320 	add.w	r3, r5, #32
 8016cde:	b2db      	uxtb	r3, r3
 8016ce0:	e000      	b.n	8016ce4 <FileString_StrCmpNoCase+0x1c>
 8016ce2:	462b      	mov	r3, r5
 8016ce4:	1ad0      	subs	r0, r2, r3
 8016ce6:	d115      	bne.n	8016d14 <FileString_StrCmpNoCase+0x4c>
 8016ce8:	b1a4      	cbz	r4, 8016d14 <FileString_StrCmpNoCase+0x4c>
 8016cea:	b19d      	cbz	r5, 8016d14 <FileString_StrCmpNoCase+0x4c>
 8016cec:	f10c 0c01 	add.w	ip, ip, #1
 8016cf0:	3101      	adds	r1, #1
 8016cf2:	4672      	mov	r2, lr
 8016cf4:	f102 3eff 	add.w	lr, r2, #4294967295	@ 0xffffffff
 8016cf8:	b15a      	cbz	r2, 8016d12 <FileString_StrCmpNoCase+0x4a>
 8016cfa:	f89c 4000 	ldrb.w	r4, [ip]
 8016cfe:	780d      	ldrb	r5, [r1, #0]
 8016d00:	f1a4 0341 	sub.w	r3, r4, #65	@ 0x41
 8016d04:	b2db      	uxtb	r3, r3
 8016d06:	2b19      	cmp	r3, #25
 8016d08:	d8e1      	bhi.n	8016cce <FileString_StrCmpNoCase+0x6>
 8016d0a:	f104 0220 	add.w	r2, r4, #32
 8016d0e:	b2d2      	uxtb	r2, r2
 8016d10:	e7de      	b.n	8016cd0 <FileString_StrCmpNoCase+0x8>
 8016d12:	4610      	mov	r0, r2
 8016d14:	bd30      	pop	{r4, r5, pc}

08016d16 <FileString_GetExtension>:
 8016d16:	4601      	mov	r1, r0
 8016d18:	4603      	mov	r3, r0
 8016d1a:	f04f 30ff 	mov.w	r0, #4294967295	@ 0xffffffff
 8016d1e:	e000      	b.n	8016d22 <FileString_GetExtension+0xc>
 8016d20:	3301      	adds	r3, #1
 8016d22:	781a      	ldrb	r2, [r3, #0]
 8016d24:	b11a      	cbz	r2, 8016d2e <FileString_GetExtension+0x18>
 8016d26:	2a2e      	cmp	r2, #46	@ 0x2e
 8016d28:	d1fa      	bne.n	8016d20 <FileString_GetExtension+0xa>
 8016d2a:	1a58      	subs	r0, r3, r1
 8016d2c:	e7f8      	b.n	8016d20 <FileString_GetExtension+0xa>
 8016d2e:	4770      	bx	lr

08016d30 <FileString_TrimLength>:
 8016d30:	4684      	mov	ip, r0
 8016d32:	1e4b      	subs	r3, r1, #1
 8016d34:	4403      	add	r3, r0
 8016d36:	4608      	mov	r0, r1
 8016d38:	e003      	b.n	8016d42 <FileString_TrimLength+0x12>
 8016d3a:	eba3 000c 	sub.w	r0, r3, ip
 8016d3e:	3b01      	subs	r3, #1
 8016d40:	3901      	subs	r1, #1
 8016d42:	b111      	cbz	r1, 8016d4a <FileString_TrimLength+0x1a>
 8016d44:	781a      	ldrb	r2, [r3, #0]
 8016d46:	2a20      	cmp	r2, #32
 8016d48:	d0f7      	beq.n	8016d3a <FileString_TrimLength+0xa>
 8016d4a:	4770      	bx	lr

08016d4c <fatfs_total_path_levels>:
 8016d4c:	4603      	mov	r3, r0
 8016d4e:	b1d8      	cbz	r0, 8016d88 <fatfs_total_path_levels+0x3c>
 8016d50:	7801      	ldrb	r1, [r0, #0]
 8016d52:	292f      	cmp	r1, #47	@ 0x2f
 8016d54:	d009      	beq.n	8016d6a <fatfs_total_path_levels+0x1e>
 8016d56:	7842      	ldrb	r2, [r0, #1]
 8016d58:	2a3a      	cmp	r2, #58	@ 0x3a
 8016d5a:	d002      	beq.n	8016d62 <fatfs_total_path_levels+0x16>
 8016d5c:	7882      	ldrb	r2, [r0, #2]
 8016d5e:	2a5c      	cmp	r2, #92	@ 0x5c
 8016d60:	d115      	bne.n	8016d8e <fatfs_total_path_levels+0x42>
 8016d62:	3303      	adds	r3, #3
 8016d64:	215c      	movs	r1, #92	@ 0x5c
 8016d66:	2000      	movs	r0, #0
 8016d68:	e003      	b.n	8016d72 <fatfs_total_path_levels+0x26>
 8016d6a:	3301      	adds	r3, #1
 8016d6c:	e7fb      	b.n	8016d66 <fatfs_total_path_levels+0x1a>
 8016d6e:	3301      	adds	r3, #1
 8016d70:	3001      	adds	r0, #1
 8016d72:	781a      	ldrb	r2, [r3, #0]
 8016d74:	b132      	cbz	r2, 8016d84 <fatfs_total_path_levels+0x38>
 8016d76:	781a      	ldrb	r2, [r3, #0]
 8016d78:	2a00      	cmp	r2, #0
 8016d7a:	d0f9      	beq.n	8016d70 <fatfs_total_path_levels+0x24>
 8016d7c:	428a      	cmp	r2, r1
 8016d7e:	d0f6      	beq.n	8016d6e <fatfs_total_path_levels+0x22>
 8016d80:	3301      	adds	r3, #1
 8016d82:	e7f8      	b.n	8016d76 <fatfs_total_path_levels+0x2a>
 8016d84:	3801      	subs	r0, #1
 8016d86:	4770      	bx	lr
 8016d88:	f04f 30ff 	mov.w	r0, #4294967295	@ 0xffffffff
 8016d8c:	4770      	bx	lr
 8016d8e:	f04f 30ff 	mov.w	r0, #4294967295	@ 0xffffffff
 8016d92:	4770      	bx	lr

08016d94 <fatfs_get_substring>:
 8016d94:	b3d8      	cbz	r0, 8016e0e <fatfs_get_substring+0x7a>
 8016d96:	e92d 43f8 	stmdb	sp!, {r3, r4, r5, r6, r7, r8, r9, lr}
 8016d9a:	460f      	mov	r7, r1
 8016d9c:	4690      	mov	r8, r2
 8016d9e:	4699      	mov	r9, r3
 8016da0:	4604      	mov	r4, r0
 8016da2:	2b00      	cmp	r3, #0
 8016da4:	dd36      	ble.n	8016e14 <fatfs_get_substring+0x80>
 8016da6:	7806      	ldrb	r6, [r0, #0]
 8016da8:	2e2f      	cmp	r6, #47	@ 0x2f
 8016daa:	d00e      	beq.n	8016dca <fatfs_get_substring+0x36>
 8016dac:	7843      	ldrb	r3, [r0, #1]
 8016dae:	2b3a      	cmp	r3, #58	@ 0x3a
 8016db0:	d002      	beq.n	8016db8 <fatfs_get_substring+0x24>
 8016db2:	7883      	ldrb	r3, [r0, #2]
 8016db4:	2b5c      	cmp	r3, #92	@ 0x5c
 8016db6:	d130      	bne.n	8016e1a <fatfs_get_substring+0x86>
 8016db8:	3403      	adds	r4, #3
 8016dba:	265c      	movs	r6, #92	@ 0x5c
 8016dbc:	4620      	mov	r0, r4
 8016dbe:	f7fb fc20 	bl	8012602 <strlen>
 8016dc2:	2300      	movs	r3, #0
 8016dc4:	461d      	mov	r5, r3
 8016dc6:	469c      	mov	ip, r3
 8016dc8:	e006      	b.n	8016dd8 <fatfs_get_substring+0x44>
 8016dca:	3401      	adds	r4, #1
 8016dcc:	e7f6      	b.n	8016dbc <fatfs_get_substring+0x28>
 8016dce:	3501      	adds	r5, #1
 8016dd0:	e008      	b.n	8016de4 <fatfs_get_substring+0x50>
 8016dd2:	3401      	adds	r4, #1
 8016dd4:	f10c 0c01 	add.w	ip, ip, #1
 8016dd8:	4584      	cmp	ip, r0
 8016dda:	da0f      	bge.n	8016dfc <fatfs_get_substring+0x68>
 8016ddc:	f894 e000 	ldrb.w	lr, [r4]
 8016de0:	45b6      	cmp	lr, r6
 8016de2:	d0f4      	beq.n	8016dce <fatfs_get_substring+0x3a>
 8016de4:	42bd      	cmp	r5, r7
 8016de6:	d1f4      	bne.n	8016dd2 <fatfs_get_substring+0x3e>
 8016de8:	45b6      	cmp	lr, r6
 8016dea:	d0f2      	beq.n	8016dd2 <fatfs_get_substring+0x3e>
 8016dec:	f109 32ff 	add.w	r2, r9, #4294967295	@ 0xffffffff
 8016df0:	429a      	cmp	r2, r3
 8016df2:	ddee      	ble.n	8016dd2 <fatfs_get_substring+0x3e>
 8016df4:	f808 e003 	strb.w	lr, [r8, r3]
 8016df8:	3301      	adds	r3, #1
 8016dfa:	e7ea      	b.n	8016dd2 <fatfs_get_substring+0x3e>
 8016dfc:	2200      	movs	r2, #0
 8016dfe:	f808 2003 	strb.w	r2, [r8, r3]
 8016e02:	f898 3000 	ldrb.w	r3, [r8]
 8016e06:	b15b      	cbz	r3, 8016e20 <fatfs_get_substring+0x8c>
 8016e08:	4610      	mov	r0, r2
 8016e0a:	e8bd 83f8 	ldmia.w	sp!, {r3, r4, r5, r6, r7, r8, r9, pc}
 8016e0e:	f04f 30ff 	mov.w	r0, #4294967295	@ 0xffffffff
 8016e12:	4770      	bx	lr
 8016e14:	f04f 30ff 	mov.w	r0, #4294967295	@ 0xffffffff
 8016e18:	e7f7      	b.n	8016e0a <fatfs_get_substring+0x76>
 8016e1a:	f04f 30ff 	mov.w	r0, #4294967295	@ 0xffffffff
 8016e1e:	e7f4      	b.n	8016e0a <fatfs_get_substring+0x76>
 8016e20:	f04f 30ff 	mov.w	r0, #4294967295	@ 0xffffffff
 8016e24:	e7f1      	b.n	8016e0a <fatfs_get_substring+0x76>

08016e26 <fatfs_split_path>:
 8016e26:	e92d 43f8 	stmdb	sp!, {r3, r4, r5, r6, r7, r8, r9, lr}
 8016e2a:	4607      	mov	r7, r0
 8016e2c:	4688      	mov	r8, r1
 8016e2e:	4615      	mov	r5, r2
 8016e30:	461e      	mov	r6, r3
 8016e32:	f7ff ff8b 	bl	8016d4c <fatfs_total_path_levels>
 8016e36:	4604      	mov	r4, r0
 8016e38:	f1b0 3fff 	cmp.w	r0, #4294967295	@ 0xffffffff
 8016e3c:	d00b      	beq.n	8016e56 <fatfs_split_path+0x30>
 8016e3e:	9b08      	ldr	r3, [sp, #32]
 8016e40:	4632      	mov	r2, r6
 8016e42:	4601      	mov	r1, r0
 8016e44:	4638      	mov	r0, r7
 8016e46:	f7ff ffa5 	bl	8016d94 <fatfs_get_substring>
 8016e4a:	4681      	mov	r9, r0
 8016e4c:	b9e0      	cbnz	r0, 8016e88 <fatfs_split_path+0x62>
 8016e4e:	b92c      	cbnz	r4, 8016e5c <fatfs_split_path+0x36>
 8016e50:	2300      	movs	r3, #0
 8016e52:	f888 3000 	strb.w	r3, [r8]
 8016e56:	4620      	mov	r0, r4
 8016e58:	e8bd 83f8 	ldmia.w	sp!, {r3, r4, r5, r6, r7, r8, r9, pc}
 8016e5c:	4638      	mov	r0, r7
 8016e5e:	f7fb fbd0 	bl	8012602 <strlen>
 8016e62:	4604      	mov	r4, r0
 8016e64:	4630      	mov	r0, r6
 8016e66:	f7fb fbcc 	bl	8012602 <strlen>
 8016e6a:	1a20      	subs	r0, r4, r0
 8016e6c:	42a8      	cmp	r0, r5
 8016e6e:	dc00      	bgt.n	8016e72 <fatfs_split_path+0x4c>
 8016e70:	4605      	mov	r5, r0
 8016e72:	462a      	mov	r2, r5
 8016e74:	4639      	mov	r1, r7
 8016e76:	4640      	mov	r0, r8
 8016e78:	f7fb fb94 	bl	80125a4 <memcpy>
 8016e7c:	3d01      	subs	r5, #1
 8016e7e:	2300      	movs	r3, #0
 8016e80:	f808 3005 	strb.w	r3, [r8, r5]
 8016e84:	464c      	mov	r4, r9
 8016e86:	e7e6      	b.n	8016e56 <fatfs_split_path+0x30>
 8016e88:	f04f 34ff 	mov.w	r4, #4294967295	@ 0xffffffff
 8016e8c:	e7e3      	b.n	8016e56 <fatfs_split_path+0x30>

08016e8e <fatfs_compare_names>:
 8016e8e:	e92d 47f0 	stmdb	sp!, {r4, r5, r6, r7, r8, r9, sl, lr}
 8016e92:	4607      	mov	r7, r0
 8016e94:	460e      	mov	r6, r1
 8016e96:	f7ff ff3e 	bl	8016d16 <FileString_GetExtension>
 8016e9a:	4604      	mov	r4, r0
 8016e9c:	4630      	mov	r0, r6
 8016e9e:	f7ff ff3a 	bl	8016d16 <FileString_GetExtension>
 8016ea2:	4605      	mov	r5, r0
 8016ea4:	f1b4 3fff 	cmp.w	r4, #4294967295	@ 0xffffffff
 8016ea8:	d008      	beq.n	8016ebc <fatfs_compare_names+0x2e>
 8016eaa:	f1b0 3fff 	cmp.w	r0, #4294967295	@ 0xffffffff
 8016eae:	d10a      	bne.n	8016ec6 <fatfs_compare_names+0x38>
 8016eb0:	f1b4 3fff 	cmp.w	r4, #4294967295	@ 0xffffffff
 8016eb4:	d023      	beq.n	8016efe <fatfs_compare_names+0x70>
 8016eb6:	2000      	movs	r0, #0
 8016eb8:	e8bd 87f0 	ldmia.w	sp!, {r4, r5, r6, r7, r8, r9, sl, pc}
 8016ebc:	f1b0 3fff 	cmp.w	r0, #4294967295	@ 0xffffffff
 8016ec0:	d0f6      	beq.n	8016eb0 <fatfs_compare_names+0x22>
 8016ec2:	2000      	movs	r0, #0
 8016ec4:	e7f8      	b.n	8016eb8 <fatfs_compare_names+0x2a>
 8016ec6:	f104 0801 	add.w	r8, r4, #1
 8016eca:	44b8      	add	r8, r7
 8016ecc:	f100 0901 	add.w	r9, r0, #1
 8016ed0:	44b1      	add	r9, r6
 8016ed2:	4640      	mov	r0, r8
 8016ed4:	f7fb fb95 	bl	8012602 <strlen>
 8016ed8:	4682      	mov	sl, r0
 8016eda:	4648      	mov	r0, r9
 8016edc:	f7fb fb91 	bl	8012602 <strlen>
 8016ee0:	4582      	cmp	sl, r0
 8016ee2:	d001      	beq.n	8016ee8 <fatfs_compare_names+0x5a>
 8016ee4:	2000      	movs	r0, #0
 8016ee6:	e7e7      	b.n	8016eb8 <fatfs_compare_names+0x2a>
 8016ee8:	4640      	mov	r0, r8
 8016eea:	f7fb fb8a 	bl	8012602 <strlen>
 8016eee:	4602      	mov	r2, r0
 8016ef0:	4649      	mov	r1, r9
 8016ef2:	4640      	mov	r0, r8
 8016ef4:	f7ff fee8 	bl	8016cc8 <FileString_StrCmpNoCase>
 8016ef8:	b148      	cbz	r0, 8016f0e <fatfs_compare_names+0x80>
 8016efa:	2000      	movs	r0, #0
 8016efc:	e7dc      	b.n	8016eb8 <fatfs_compare_names+0x2a>
 8016efe:	4638      	mov	r0, r7
 8016f00:	f7fb fb7f 	bl	8012602 <strlen>
 8016f04:	4604      	mov	r4, r0
 8016f06:	4630      	mov	r0, r6
 8016f08:	f7fb fb7b 	bl	8012602 <strlen>
 8016f0c:	4605      	mov	r5, r0
 8016f0e:	4621      	mov	r1, r4
 8016f10:	4638      	mov	r0, r7
 8016f12:	f7ff ff0d 	bl	8016d30 <FileString_TrimLength>
 8016f16:	4604      	mov	r4, r0
 8016f18:	4629      	mov	r1, r5
 8016f1a:	4630      	mov	r0, r6
 8016f1c:	f7ff ff08 	bl	8016d30 <FileString_TrimLength>
 8016f20:	4284      	cmp	r4, r0
 8016f22:	d107      	bne.n	8016f34 <fatfs_compare_names+0xa6>
 8016f24:	4622      	mov	r2, r4
 8016f26:	4631      	mov	r1, r6
 8016f28:	4638      	mov	r0, r7
 8016f2a:	f7ff fecd 	bl	8016cc8 <FileString_StrCmpNoCase>
 8016f2e:	b118      	cbz	r0, 8016f38 <fatfs_compare_names+0xaa>
 8016f30:	2000      	movs	r0, #0
 8016f32:	e7c1      	b.n	8016eb8 <fatfs_compare_names+0x2a>
 8016f34:	2000      	movs	r0, #0
 8016f36:	e7bf      	b.n	8016eb8 <fatfs_compare_names+0x2a>
 8016f38:	2001      	movs	r0, #1
 8016f3a:	e7bd      	b.n	8016eb8 <fatfs_compare_names+0x2a>

08016f3c <fatfs_string_ends_with_slash>:
 8016f3c:	4603      	mov	r3, r0
 8016f3e:	b908      	cbnz	r0, 8016f44 <fatfs_string_ends_with_slash+0x8>
 8016f40:	4770      	bx	lr
 8016f42:	3301      	adds	r3, #1
 8016f44:	781a      	ldrb	r2, [r3, #0]
 8016f46:	b142      	cbz	r2, 8016f5a <fatfs_string_ends_with_slash+0x1e>
 8016f48:	7859      	ldrb	r1, [r3, #1]
 8016f4a:	2900      	cmp	r1, #0
 8016f4c:	d1f9      	bne.n	8016f42 <fatfs_string_ends_with_slash+0x6>
 8016f4e:	2a5c      	cmp	r2, #92	@ 0x5c
 8016f50:	d005      	beq.n	8016f5e <fatfs_string_ends_with_slash+0x22>
 8016f52:	2a2f      	cmp	r2, #47	@ 0x2f
 8016f54:	d1f5      	bne.n	8016f42 <fatfs_string_ends_with_slash+0x6>
 8016f56:	2001      	movs	r0, #1
 8016f58:	4770      	bx	lr
 8016f5a:	2000      	movs	r0, #0
 8016f5c:	4770      	bx	lr
 8016f5e:	2001      	movs	r0, #1
 8016f60:	4770      	bx	lr

08016f62 <fatfs_get_sfn_display_name>:
 8016f62:	f04f 0c00 	mov.w	ip, #0
 8016f66:	e003      	b.n	8016f70 <fatfs_get_sfn_display_name+0xe>
 8016f68:	f800 3b01 	strb.w	r3, [r0], #1
 8016f6c:	f10c 0c01 	add.w	ip, ip, #1
 8016f70:	780b      	ldrb	r3, [r1, #0]
 8016f72:	b16b      	cbz	r3, 8016f90 <fatfs_get_sfn_display_name+0x2e>
 8016f74:	f1bc 0f0b 	cmp.w	ip, #11
 8016f78:	dc0a      	bgt.n	8016f90 <fatfs_get_sfn_display_name+0x2e>
 8016f7a:	3101      	adds	r1, #1
 8016f7c:	2b20      	cmp	r3, #32
 8016f7e:	d0f7      	beq.n	8016f70 <fatfs_get_sfn_display_name+0xe>
 8016f80:	f1a3 0241 	sub.w	r2, r3, #65	@ 0x41
 8016f84:	b2d2      	uxtb	r2, r2
 8016f86:	2a19      	cmp	r2, #25
 8016f88:	d8ee      	bhi.n	8016f68 <fatfs_get_sfn_display_name+0x6>
 8016f8a:	3320      	adds	r3, #32
 8016f8c:	b2db      	uxtb	r3, r3
 8016f8e:	e7eb      	b.n	8016f68 <fatfs_get_sfn_display_name+0x6>
 8016f90:	2300      	movs	r3, #0
 8016f92:	7003      	strb	r3, [r0, #0]
 8016f94:	2001      	movs	r0, #1
 8016f96:	4770      	bx	lr

08016f98 <fatfs_get_extension>:
 8016f98:	b570      	push	{r4, r5, r6, lr}
 8016f9a:	4604      	mov	r4, r0
 8016f9c:	460d      	mov	r5, r1
 8016f9e:	4616      	mov	r6, r2
 8016fa0:	f7ff feb9 	bl	8016d16 <FileString_GetExtension>
 8016fa4:	2800      	cmp	r0, #0
 8016fa6:	dd21      	ble.n	8016fec <fatfs_get_extension+0x54>
 8016fa8:	b315      	cbz	r5, 8016ff0 <fatfs_get_extension+0x58>
 8016faa:	b90e      	cbnz	r6, 8016fb0 <fatfs_get_extension+0x18>
 8016fac:	4630      	mov	r0, r6
 8016fae:	e01e      	b.n	8016fee <fatfs_get_extension+0x56>
 8016fb0:	3001      	adds	r0, #1
 8016fb2:	eb04 0c00 	add.w	ip, r4, r0
 8016fb6:	2000      	movs	r0, #0
 8016fb8:	e004      	b.n	8016fc4 <fatfs_get_extension+0x2c>
 8016fba:	4629      	mov	r1, r5
 8016fbc:	f801 3b01 	strb.w	r3, [r1], #1
 8016fc0:	3001      	adds	r0, #1
 8016fc2:	460d      	mov	r5, r1
 8016fc4:	f89c 3000 	ldrb.w	r3, [ip]
 8016fc8:	b163      	cbz	r3, 8016fe4 <fatfs_get_extension+0x4c>
 8016fca:	1e72      	subs	r2, r6, #1
 8016fcc:	4282      	cmp	r2, r0
 8016fce:	dd09      	ble.n	8016fe4 <fatfs_get_extension+0x4c>
 8016fd0:	f10c 0c01 	add.w	ip, ip, #1
 8016fd4:	f1a3 0241 	sub.w	r2, r3, #65	@ 0x41
 8016fd8:	b2d2      	uxtb	r2, r2
 8016fda:	2a19      	cmp	r2, #25
 8016fdc:	d8ed      	bhi.n	8016fba <fatfs_get_extension+0x22>
 8016fde:	3320      	adds	r3, #32
 8016fe0:	b2db      	uxtb	r3, r3
 8016fe2:	e7ea      	b.n	8016fba <fatfs_get_extension+0x22>
 8016fe4:	2300      	movs	r3, #0
 8016fe6:	702b      	strb	r3, [r5, #0]
 8016fe8:	2001      	movs	r0, #1
 8016fea:	e000      	b.n	8016fee <fatfs_get_extension+0x56>
 8016fec:	2000      	movs	r0, #0
 8016fee:	bd70      	pop	{r4, r5, r6, pc}
 8016ff0:	2000      	movs	r0, #0
 8016ff2:	e7fc      	b.n	8016fee <fatfs_get_extension+0x56>

08016ff4 <fatfs_create_path_string>:
 8016ff4:	b388      	cbz	r0, 801705a <fatfs_create_path_string+0x66>
 8016ff6:	4684      	mov	ip, r0
 8016ff8:	b389      	cbz	r1, 801705e <fatfs_create_path_string+0x6a>
 8016ffa:	b392      	cbz	r2, 8017062 <fatfs_create_path_string+0x6e>
 8016ffc:	2b00      	cmp	r3, #0
 8016ffe:	dc12      	bgt.n	8017026 <fatfs_create_path_string+0x32>
 8017000:	2000      	movs	r0, #0
 8017002:	4770      	bx	lr
 8017004:	f802 4b01 	strb.w	r4, [r2], #1
 8017008:	3001      	adds	r0, #1
 801700a:	4625      	mov	r5, r4
 801700c:	f89c 4000 	ldrb.w	r4, [ip]
 8017010:	b174      	cbz	r4, 8017030 <fatfs_create_path_string+0x3c>
 8017012:	f1a3 0e02 	sub.w	lr, r3, #2
 8017016:	4586      	cmp	lr, r0
 8017018:	dd0a      	ble.n	8017030 <fatfs_create_path_string+0x3c>
 801701a:	f10c 0c01 	add.w	ip, ip, #1
 801701e:	2c5c      	cmp	r4, #92	@ 0x5c
 8017020:	d1f0      	bne.n	8017004 <fatfs_create_path_string+0x10>
 8017022:	4626      	mov	r6, r4
 8017024:	e7ee      	b.n	8017004 <fatfs_create_path_string+0x10>
 8017026:	b570      	push	{r4, r5, r6, lr}
 8017028:	262f      	movs	r6, #47	@ 0x2f
 801702a:	2500      	movs	r5, #0
 801702c:	4628      	mov	r0, r5
 801702e:	e7ed      	b.n	801700c <fatfs_create_path_string+0x18>
 8017030:	2d5c      	cmp	r5, #92	@ 0x5c
 8017032:	d008      	beq.n	8017046 <fatfs_create_path_string+0x52>
 8017034:	2d2f      	cmp	r5, #47	@ 0x2f
 8017036:	d006      	beq.n	8017046 <fatfs_create_path_string+0x52>
 8017038:	f802 6b01 	strb.w	r6, [r2], #1
 801703c:	e003      	b.n	8017046 <fatfs_create_path_string+0x52>
 801703e:	3101      	adds	r1, #1
 8017040:	f802 4b01 	strb.w	r4, [r2], #1
 8017044:	3001      	adds	r0, #1
 8017046:	780c      	ldrb	r4, [r1, #0]
 8017048:	b11c      	cbz	r4, 8017052 <fatfs_create_path_string+0x5e>
 801704a:	f103 3cff 	add.w	ip, r3, #4294967295	@ 0xffffffff
 801704e:	4584      	cmp	ip, r0
 8017050:	dcf5      	bgt.n	801703e <fatfs_create_path_string+0x4a>
 8017052:	2300      	movs	r3, #0
 8017054:	7013      	strb	r3, [r2, #0]
 8017056:	2001      	movs	r0, #1
 8017058:	bd70      	pop	{r4, r5, r6, pc}
 801705a:	2000      	movs	r0, #0
 801705c:	4770      	bx	lr
 801705e:	2000      	movs	r0, #0
 8017060:	4770      	bx	lr
 8017062:	2000      	movs	r0, #0
 8017064:	4770      	bx	lr

08017066 <fatfs_fat_writeback>:
 8017066:	b1d9      	cbz	r1, 80170a0 <fatfs_fat_writeback+0x3a>
 8017068:	b538      	push	{r3, r4, r5, lr}
 801706a:	4603      	mov	r3, r0
 801706c:	460c      	mov	r4, r1
 801706e:	f8d1 2204 	ldr.w	r2, [r1, #516]	@ 0x204
 8017072:	b19a      	cbz	r2, 801709c <fatfs_fat_writeback+0x36>
 8017074:	6b45      	ldr	r5, [r0, #52]	@ 0x34
 8017076:	b175      	cbz	r5, 8017096 <fatfs_fat_writeback+0x30>
 8017078:	f8d1 0200 	ldr.w	r0, [r1, #512]	@ 0x200
 801707c:	6959      	ldr	r1, [r3, #20]
 801707e:	1a42      	subs	r2, r0, r1
 8017080:	3201      	adds	r2, #1
 8017082:	6a1b      	ldr	r3, [r3, #32]
 8017084:	429a      	cmp	r2, r3
 8017086:	d902      	bls.n	801708e <fatfs_fat_writeback+0x28>
 8017088:	1a0a      	subs	r2, r1, r0
 801708a:	441a      	add	r2, r3
 801708c:	e000      	b.n	8017090 <fatfs_fat_writeback+0x2a>
 801708e:	2201      	movs	r2, #1
 8017090:	4621      	mov	r1, r4
 8017092:	47a8      	blx	r5
 8017094:	b118      	cbz	r0, 801709e <fatfs_fat_writeback+0x38>
 8017096:	2300      	movs	r3, #0
 8017098:	f8c4 3204 	str.w	r3, [r4, #516]	@ 0x204
 801709c:	2001      	movs	r0, #1
 801709e:	bd38      	pop	{r3, r4, r5, pc}
 80170a0:	2000      	movs	r0, #0
 80170a2:	4770      	bx	lr

080170a4 <fatfs_fat_read_sector>:
 80170a4:	b5f8      	push	{r3, r4, r5, r6, r7, lr}
 80170a6:	4607      	mov	r7, r0
 80170a8:	460d      	mov	r5, r1
 80170aa:	f8d0 4250 	ldr.w	r4, [r0, #592]	@ 0x250
 80170ae:	2600      	movs	r6, #0
 80170b0:	e005      	b.n	80170be <fatfs_fat_read_sector+0x1a>
 80170b2:	f8d4 320c 	ldr.w	r3, [r4, #524]	@ 0x20c
 80170b6:	b1a3      	cbz	r3, 80170e2 <fatfs_fat_read_sector+0x3e>
 80170b8:	4626      	mov	r6, r4
 80170ba:	f8d4 420c 	ldr.w	r4, [r4, #524]	@ 0x20c
 80170be:	b134      	cbz	r4, 80170ce <fatfs_fat_read_sector+0x2a>
 80170c0:	f8d4 3200 	ldr.w	r3, [r4, #512]	@ 0x200
 80170c4:	42ab      	cmp	r3, r5
 80170c6:	d8f4      	bhi.n	80170b2 <fatfs_fat_read_sector+0xe>
 80170c8:	3301      	adds	r3, #1
 80170ca:	42ab      	cmp	r3, r5
 80170cc:	d9f1      	bls.n	80170b2 <fatfs_fat_read_sector+0xe>
 80170ce:	b184      	cbz	r4, 80170f2 <fatfs_fat_read_sector+0x4e>
 80170d0:	f8d4 3200 	ldr.w	r3, [r4, #512]	@ 0x200
 80170d4:	1aeb      	subs	r3, r5, r3
 80170d6:	eb04 2343 	add.w	r3, r4, r3, lsl #9
 80170da:	f8c4 3208 	str.w	r3, [r4, #520]	@ 0x208
 80170de:	4620      	mov	r0, r4
 80170e0:	bdf8      	pop	{r3, r4, r5, r6, r7, pc}
 80170e2:	b116      	cbz	r6, 80170ea <fatfs_fat_read_sector+0x46>
 80170e4:	f8c6 320c 	str.w	r3, [r6, #524]	@ 0x20c
 80170e8:	e7e6      	b.n	80170b8 <fatfs_fat_read_sector+0x14>
 80170ea:	2300      	movs	r3, #0
 80170ec:	f8c7 3250 	str.w	r3, [r7, #592]	@ 0x250
 80170f0:	e7e2      	b.n	80170b8 <fatfs_fat_read_sector+0x14>
 80170f2:	f8d7 3250 	ldr.w	r3, [r7, #592]	@ 0x250
 80170f6:	f8c6 320c 	str.w	r3, [r6, #524]	@ 0x20c
 80170fa:	f8c7 6250 	str.w	r6, [r7, #592]	@ 0x250
 80170fe:	f8d6 3204 	ldr.w	r3, [r6, #516]	@ 0x204
 8017102:	b95b      	cbnz	r3, 801711c <fatfs_fat_read_sector+0x78>
 8017104:	f8c6 5200 	str.w	r5, [r6, #512]	@ 0x200
 8017108:	6b3b      	ldr	r3, [r7, #48]	@ 0x30
 801710a:	2201      	movs	r2, #1
 801710c:	4631      	mov	r1, r6
 801710e:	4628      	mov	r0, r5
 8017110:	4798      	blx	r3
 8017112:	b150      	cbz	r0, 801712a <fatfs_fat_read_sector+0x86>
 8017114:	f8c6 6208 	str.w	r6, [r6, #520]	@ 0x208
 8017118:	4634      	mov	r4, r6
 801711a:	e7e0      	b.n	80170de <fatfs_fat_read_sector+0x3a>
 801711c:	4631      	mov	r1, r6
 801711e:	4638      	mov	r0, r7
 8017120:	f7ff ffa1 	bl	8017066 <fatfs_fat_writeback>
 8017124:	2800      	cmp	r0, #0
 8017126:	d1ed      	bne.n	8017104 <fatfs_fat_read_sector+0x60>
 8017128:	e7d9      	b.n	80170de <fatfs_fat_read_sector+0x3a>
 801712a:	f04f 33ff 	mov.w	r3, #4294967295	@ 0xffffffff
 801712e:	f8c6 3200 	str.w	r3, [r6, #512]	@ 0x200
 8017132:	e7d4      	b.n	80170de <fatfs_fat_read_sector+0x3a>

08017134 <fatfs_fat_init>:
 8017134:	e92d 41f0 	stmdb	sp!, {r4, r5, r6, r7, r8, lr}
 8017138:	4606      	mov	r6, r0
 801713a:	2400      	movs	r4, #0
 801713c:	f8c0 4250 	str.w	r4, [r0, #592]	@ 0x250
 8017140:	2c00      	cmp	r4, #0
 8017142:	dd01      	ble.n	8017148 <fatfs_fat_init+0x14>
 8017144:	e8bd 81f0 	ldmia.w	sp!, {r4, r5, r6, r7, r8, pc}
 8017148:	eb04 1744 	add.w	r7, r4, r4, lsl #5
 801714c:	eb06 1707 	add.w	r7, r6, r7, lsl #4
 8017150:	f04f 33ff 	mov.w	r3, #4294967295	@ 0xffffffff
 8017154:	f8c7 3454 	str.w	r3, [r7, #1108]	@ 0x454
 8017158:	f04f 0800 	mov.w	r8, #0
 801715c:	f8c7 8458 	str.w	r8, [r7, #1112]	@ 0x458
 8017160:	eb04 1544 	add.w	r5, r4, r4, lsl #5
 8017164:	012d      	lsls	r5, r5, #4
 8017166:	f505 7514 	add.w	r5, r5, #592	@ 0x250
 801716a:	4435      	add	r5, r6
 801716c:	3504      	adds	r5, #4
 801716e:	f44f 7200 	mov.w	r2, #512	@ 0x200
 8017172:	4641      	mov	r1, r8
 8017174:	4628      	mov	r0, r5
 8017176:	f7fb fa0e 	bl	8012596 <memset>
 801717a:	f8c7 845c 	str.w	r8, [r7, #1116]	@ 0x45c
 801717e:	f8d6 3250 	ldr.w	r3, [r6, #592]	@ 0x250
 8017182:	f8c7 3460 	str.w	r3, [r7, #1120]	@ 0x460
 8017186:	f8c6 5250 	str.w	r5, [r6, #592]	@ 0x250
 801718a:	3401      	adds	r4, #1
 801718c:	e7d8      	b.n	8017140 <fatfs_fat_init+0xc>

0801718e <fatfs_fat_purge>:
 801718e:	b538      	push	{r3, r4, r5, lr}
 8017190:	4605      	mov	r5, r0
 8017192:	f8d0 4250 	ldr.w	r4, [r0, #592]	@ 0x250
 8017196:	e001      	b.n	801719c <fatfs_fat_purge+0xe>
 8017198:	f8d4 420c 	ldr.w	r4, [r4, #524]	@ 0x20c
 801719c:	b15c      	cbz	r4, 80171b6 <fatfs_fat_purge+0x28>
 801719e:	f8d4 3204 	ldr.w	r3, [r4, #516]	@ 0x204
 80171a2:	2b00      	cmp	r3, #0
 80171a4:	d0f8      	beq.n	8017198 <fatfs_fat_purge+0xa>
 80171a6:	4621      	mov	r1, r4
 80171a8:	4628      	mov	r0, r5
 80171aa:	f7ff ff5c 	bl	8017066 <fatfs_fat_writeback>
 80171ae:	4603      	mov	r3, r0
 80171b0:	2800      	cmp	r0, #0
 80171b2:	d1f1      	bne.n	8017198 <fatfs_fat_purge+0xa>
 80171b4:	e000      	b.n	80171b8 <fatfs_fat_purge+0x2a>
 80171b6:	2301      	movs	r3, #1
 80171b8:	4618      	mov	r0, r3
 80171ba:	bd38      	pop	{r3, r4, r5, pc}

080171bc <fatfs_find_next_cluster>:
 80171bc:	b570      	push	{r4, r5, r6, lr}
 80171be:	4604      	mov	r4, r0
 80171c0:	460d      	mov	r5, r1
 80171c2:	b901      	cbnz	r1, 80171c6 <fatfs_find_next_cluster+0xa>
 80171c4:	2502      	movs	r5, #2
 80171c6:	f894 302d 	ldrb.w	r3, [r4, #45]	@ 0x2d
 80171ca:	b9d3      	cbnz	r3, 8017202 <fatfs_find_next_cluster+0x46>
 80171cc:	0a2e      	lsrs	r6, r5, #8
 80171ce:	6961      	ldr	r1, [r4, #20]
 80171d0:	4431      	add	r1, r6
 80171d2:	4620      	mov	r0, r4
 80171d4:	f7ff ff66 	bl	80170a4 <fatfs_fat_read_sector>
 80171d8:	b380      	cbz	r0, 801723c <fatfs_find_next_cluster+0x80>
 80171da:	f894 202d 	ldrb.w	r2, [r4, #45]	@ 0x2d
 80171de:	b992      	cbnz	r2, 8017206 <fatfs_find_next_cluster+0x4a>
 80171e0:	eba5 2606 	sub.w	r6, r5, r6, lsl #8
 80171e4:	0076      	lsls	r6, r6, #1
 80171e6:	f8d0 3208 	ldr.w	r3, [r0, #520]	@ 0x208
 80171ea:	b2b6      	uxth	r6, r6
 80171ec:	199a      	adds	r2, r3, r6
 80171ee:	7852      	ldrb	r2, [r2, #1]
 80171f0:	5d98      	ldrb	r0, [r3, r6]
 80171f2:	eb00 2002 	add.w	r0, r0, r2, lsl #8
 80171f6:	f5a0 437f 	sub.w	r3, r0, #65280	@ 0xff00
 80171fa:	3bf8      	subs	r3, #248	@ 0xf8
 80171fc:	2b07      	cmp	r3, #7
 80171fe:	d920      	bls.n	8017242 <fatfs_find_next_cluster+0x86>
 8017200:	bd70      	pop	{r4, r5, r6, pc}
 8017202:	09ee      	lsrs	r6, r5, #7
 8017204:	e7e3      	b.n	80171ce <fatfs_find_next_cluster+0x12>
 8017206:	eba5 15c6 	sub.w	r5, r5, r6, lsl #7
 801720a:	00ad      	lsls	r5, r5, #2
 801720c:	f8d0 1208 	ldr.w	r1, [r0, #520]	@ 0x208
 8017210:	b2ad      	uxth	r5, r5
 8017212:	194a      	adds	r2, r1, r5
 8017214:	78d0      	ldrb	r0, [r2, #3]
 8017216:	7893      	ldrb	r3, [r2, #2]
 8017218:	041b      	lsls	r3, r3, #16
 801721a:	eb03 6300 	add.w	r3, r3, r0, lsl #24
 801721e:	7852      	ldrb	r2, [r2, #1]
 8017220:	eb03 2302 	add.w	r3, r3, r2, lsl #8
 8017224:	5d4a      	ldrb	r2, [r1, r5]
 8017226:	4413      	add	r3, r2
 8017228:	f023 4070 	bic.w	r0, r3, #4026531840	@ 0xf0000000
 801722c:	f043 4370 	orr.w	r3, r3, #4026531840	@ 0xf0000000
 8017230:	3308      	adds	r3, #8
 8017232:	2b07      	cmp	r3, #7
 8017234:	d8e4      	bhi.n	8017200 <fatfs_find_next_cluster+0x44>
 8017236:	f04f 30ff 	mov.w	r0, #4294967295	@ 0xffffffff
 801723a:	e7e1      	b.n	8017200 <fatfs_find_next_cluster+0x44>
 801723c:	f04f 30ff 	mov.w	r0, #4294967295	@ 0xffffffff
 8017240:	e7de      	b.n	8017200 <fatfs_find_next_cluster+0x44>
 8017242:	f04f 30ff 	mov.w	r0, #4294967295	@ 0xffffffff
 8017246:	e7db      	b.n	8017200 <fatfs_find_next_cluster+0x44>

08017248 <fatfs_set_fs_info_next_free_cluster>:
 8017248:	f890 302d 	ldrb.w	r3, [r0, #45]	@ 0x2d
 801724c:	b903      	cbnz	r3, 8017250 <fatfs_set_fs_info_next_free_cluster+0x8>
 801724e:	4770      	bx	lr
 8017250:	b570      	push	{r4, r5, r6, lr}
 8017252:	4604      	mov	r4, r0
 8017254:	460d      	mov	r5, r1
 8017256:	69c1      	ldr	r1, [r0, #28]
 8017258:	8b03      	ldrh	r3, [r0, #24]
 801725a:	4419      	add	r1, r3
 801725c:	f7ff ff22 	bl	80170a4 <fatfs_fat_read_sector>
 8017260:	4606      	mov	r6, r0
 8017262:	b330      	cbz	r0, 80172b2 <fatfs_set_fs_info_next_free_cluster+0x6a>
 8017264:	f8d0 3208 	ldr.w	r3, [r0, #520]	@ 0x208
 8017268:	f883 51ec 	strb.w	r5, [r3, #492]	@ 0x1ec
 801726c:	f8d0 3208 	ldr.w	r3, [r0, #520]	@ 0x208
 8017270:	f3c5 2207 	ubfx	r2, r5, #8, #8
 8017274:	f883 21ed 	strb.w	r2, [r3, #493]	@ 0x1ed
 8017278:	f8d0 3208 	ldr.w	r3, [r0, #520]	@ 0x208
 801727c:	f3c5 4207 	ubfx	r2, r5, #16, #8
 8017280:	f883 21ee 	strb.w	r2, [r3, #494]	@ 0x1ee
 8017284:	f8d0 3208 	ldr.w	r3, [r0, #520]	@ 0x208
 8017288:	0e2a      	lsrs	r2, r5, #24
 801728a:	f883 21ef 	strb.w	r2, [r3, #495]	@ 0x1ef
 801728e:	2301      	movs	r3, #1
 8017290:	f8c0 3204 	str.w	r3, [r0, #516]	@ 0x204
 8017294:	6265      	str	r5, [r4, #36]	@ 0x24
 8017296:	6b63      	ldr	r3, [r4, #52]	@ 0x34
 8017298:	b123      	cbz	r3, 80172a4 <fatfs_set_fs_info_next_free_cluster+0x5c>
 801729a:	2201      	movs	r2, #1
 801729c:	4601      	mov	r1, r0
 801729e:	f8d0 0200 	ldr.w	r0, [r0, #512]	@ 0x200
 80172a2:	4798      	blx	r3
 80172a4:	f04f 33ff 	mov.w	r3, #4294967295	@ 0xffffffff
 80172a8:	f8c6 3200 	str.w	r3, [r6, #512]	@ 0x200
 80172ac:	2300      	movs	r3, #0
 80172ae:	f8c6 3204 	str.w	r3, [r6, #516]	@ 0x204
 80172b2:	bd70      	pop	{r4, r5, r6, pc}

080172b4 <fatfs_find_blank_cluster>:
 80172b4:	b5f8      	push	{r3, r4, r5, r6, r7, lr}
 80172b6:	4605      	mov	r5, r0
 80172b8:	460e      	mov	r6, r1
 80172ba:	4617      	mov	r7, r2
 80172bc:	e016      	b.n	80172ec <fatfs_find_blank_cluster+0x38>
 80172be:	09f4      	lsrs	r4, r6, #7
 80172c0:	e019      	b.n	80172f6 <fatfs_find_blank_cluster+0x42>
 80172c2:	eba6 14c4 	sub.w	r4, r6, r4, lsl #7
 80172c6:	00a4      	lsls	r4, r4, #2
 80172c8:	f8d0 1208 	ldr.w	r1, [r0, #520]	@ 0x208
 80172cc:	b2a4      	uxth	r4, r4
 80172ce:	190a      	adds	r2, r1, r4
 80172d0:	78d0      	ldrb	r0, [r2, #3]
 80172d2:	7893      	ldrb	r3, [r2, #2]
 80172d4:	041b      	lsls	r3, r3, #16
 80172d6:	eb03 6300 	add.w	r3, r3, r0, lsl #24
 80172da:	7852      	ldrb	r2, [r2, #1]
 80172dc:	eb03 2302 	add.w	r3, r3, r2, lsl #8
 80172e0:	5d0a      	ldrb	r2, [r1, r4]
 80172e2:	4413      	add	r3, r2
 80172e4:	f023 4370 	bic.w	r3, r3, #4026531840	@ 0xf0000000
 80172e8:	e01d      	b.n	8017326 <fatfs_find_blank_cluster+0x72>
 80172ea:	b303      	cbz	r3, 801732e <fatfs_find_blank_cluster+0x7a>
 80172ec:	f895 302d 	ldrb.w	r3, [r5, #45]	@ 0x2d
 80172f0:	2b00      	cmp	r3, #0
 80172f2:	d1e4      	bne.n	80172be <fatfs_find_blank_cluster+0xa>
 80172f4:	0a34      	lsrs	r4, r6, #8
 80172f6:	6a2b      	ldr	r3, [r5, #32]
 80172f8:	42a3      	cmp	r3, r4
 80172fa:	d91b      	bls.n	8017334 <fatfs_find_blank_cluster+0x80>
 80172fc:	6969      	ldr	r1, [r5, #20]
 80172fe:	4421      	add	r1, r4
 8017300:	4628      	mov	r0, r5
 8017302:	f7ff fecf 	bl	80170a4 <fatfs_fat_read_sector>
 8017306:	b1b8      	cbz	r0, 8017338 <fatfs_find_blank_cluster+0x84>
 8017308:	f895 202d 	ldrb.w	r2, [r5, #45]	@ 0x2d
 801730c:	2a00      	cmp	r2, #0
 801730e:	d1d8      	bne.n	80172c2 <fatfs_find_blank_cluster+0xe>
 8017310:	eba6 2404 	sub.w	r4, r6, r4, lsl #8
 8017314:	0064      	lsls	r4, r4, #1
 8017316:	f8d0 3208 	ldr.w	r3, [r0, #520]	@ 0x208
 801731a:	b2a4      	uxth	r4, r4
 801731c:	191a      	adds	r2, r3, r4
 801731e:	7852      	ldrb	r2, [r2, #1]
 8017320:	5d1b      	ldrb	r3, [r3, r4]
 8017322:	eb03 2302 	add.w	r3, r3, r2, lsl #8
 8017326:	2b00      	cmp	r3, #0
 8017328:	d0df      	beq.n	80172ea <fatfs_find_blank_cluster+0x36>
 801732a:	3601      	adds	r6, #1
 801732c:	e7dd      	b.n	80172ea <fatfs_find_blank_cluster+0x36>
 801732e:	603e      	str	r6, [r7, #0]
 8017330:	2001      	movs	r0, #1
 8017332:	e000      	b.n	8017336 <fatfs_find_blank_cluster+0x82>
 8017334:	2000      	movs	r0, #0
 8017336:	bdf8      	pop	{r3, r4, r5, r6, r7, pc}
 8017338:	2000      	movs	r0, #0
 801733a:	e7fc      	b.n	8017336 <fatfs_find_blank_cluster+0x82>

0801733c <fatfs_fat_set_cluster>:
 801733c:	b5f8      	push	{r3, r4, r5, r6, r7, lr}
 801733e:	4606      	mov	r6, r0
 8017340:	460c      	mov	r4, r1
 8017342:	4615      	mov	r5, r2
 8017344:	f890 302d 	ldrb.w	r3, [r0, #45]	@ 0x2d
 8017348:	b9db      	cbnz	r3, 8017382 <fatfs_fat_set_cluster+0x46>
 801734a:	0a0f      	lsrs	r7, r1, #8
 801734c:	6971      	ldr	r1, [r6, #20]
 801734e:	4439      	add	r1, r7
 8017350:	4630      	mov	r0, r6
 8017352:	f7ff fea7 	bl	80170a4 <fatfs_fat_read_sector>
 8017356:	4603      	mov	r3, r0
 8017358:	b388      	cbz	r0, 80173be <fatfs_fat_set_cluster+0x82>
 801735a:	f896 202d 	ldrb.w	r2, [r6, #45]	@ 0x2d
 801735e:	b992      	cbnz	r2, 8017386 <fatfs_fat_set_cluster+0x4a>
 8017360:	eba4 2707 	sub.w	r7, r4, r7, lsl #8
 8017364:	007f      	lsls	r7, r7, #1
 8017366:	f8d0 2208 	ldr.w	r2, [r0, #520]	@ 0x208
 801736a:	b2bf      	uxth	r7, r7
 801736c:	55d5      	strb	r5, [r2, r7]
 801736e:	f8d0 2208 	ldr.w	r2, [r0, #520]	@ 0x208
 8017372:	3701      	adds	r7, #1
 8017374:	f3c5 2507 	ubfx	r5, r5, #8, #8
 8017378:	55d5      	strb	r5, [r2, r7]
 801737a:	2001      	movs	r0, #1
 801737c:	f8c3 0204 	str.w	r0, [r3, #516]	@ 0x204
 8017380:	bdf8      	pop	{r3, r4, r5, r6, r7, pc}
 8017382:	09cf      	lsrs	r7, r1, #7
 8017384:	e7e2      	b.n	801734c <fatfs_fat_set_cluster+0x10>
 8017386:	eba4 14c7 	sub.w	r4, r4, r7, lsl #7
 801738a:	00a4      	lsls	r4, r4, #2
 801738c:	f8d0 2208 	ldr.w	r2, [r0, #520]	@ 0x208
 8017390:	b2a4      	uxth	r4, r4
 8017392:	5515      	strb	r5, [r2, r4]
 8017394:	f8d0 1208 	ldr.w	r1, [r0, #520]	@ 0x208
 8017398:	1c62      	adds	r2, r4, #1
 801739a:	f3c5 2007 	ubfx	r0, r5, #8, #8
 801739e:	5488      	strb	r0, [r1, r2]
 80173a0:	f8d3 1208 	ldr.w	r1, [r3, #520]	@ 0x208
 80173a4:	1ca2      	adds	r2, r4, #2
 80173a6:	f3c5 4007 	ubfx	r0, r5, #16, #8
 80173aa:	5488      	strb	r0, [r1, r2]
 80173ac:	f8d3 2208 	ldr.w	r2, [r3, #520]	@ 0x208
 80173b0:	3403      	adds	r4, #3
 80173b2:	0e2d      	lsrs	r5, r5, #24
 80173b4:	5515      	strb	r5, [r2, r4]
 80173b6:	2001      	movs	r0, #1
 80173b8:	f8c3 0204 	str.w	r0, [r3, #516]	@ 0x204
 80173bc:	e7e0      	b.n	8017380 <fatfs_fat_set_cluster+0x44>
 80173be:	2000      	movs	r0, #0
 80173c0:	e7de      	b.n	8017380 <fatfs_fat_set_cluster+0x44>

080173c2 <fatfs_free_cluster_chain>:
 80173c2:	b570      	push	{r4, r5, r6, lr}
 80173c4:	4606      	mov	r6, r0
 80173c6:	460c      	mov	r4, r1
 80173c8:	e00a      	b.n	80173e0 <fatfs_free_cluster_chain+0x1e>
 80173ca:	4621      	mov	r1, r4
 80173cc:	4630      	mov	r0, r6
 80173ce:	f7ff fef5 	bl	80171bc <fatfs_find_next_cluster>
 80173d2:	4605      	mov	r5, r0
 80173d4:	2200      	movs	r2, #0
 80173d6:	4621      	mov	r1, r4
 80173d8:	4630      	mov	r0, r6
 80173da:	f7ff ffaf 	bl	801733c <fatfs_fat_set_cluster>
 80173de:	462c      	mov	r4, r5
 80173e0:	1e63      	subs	r3, r4, #1
 80173e2:	f113 0f03 	cmn.w	r3, #3
 80173e6:	d9f0      	bls.n	80173ca <fatfs_free_cluster_chain+0x8>
 80173e8:	2001      	movs	r0, #1
 80173ea:	bd70      	pop	{r4, r5, r6, pc}

080173ec <fatfs_fat_add_cluster_to_chain>:
 80173ec:	f1b1 3fff 	cmp.w	r1, #4294967295	@ 0xffffffff
 80173f0:	d01e      	beq.n	8017430 <fatfs_fat_add_cluster_to_chain+0x44>
 80173f2:	b570      	push	{r4, r5, r6, lr}
 80173f4:	4605      	mov	r5, r0
 80173f6:	460c      	mov	r4, r1
 80173f8:	4616      	mov	r6, r2
 80173fa:	f04f 31ff 	mov.w	r1, #4294967295	@ 0xffffffff
 80173fe:	f1b4 3fff 	cmp.w	r4, #4294967295	@ 0xffffffff
 8017402:	d009      	beq.n	8017418 <fatfs_fat_add_cluster_to_chain+0x2c>
 8017404:	4621      	mov	r1, r4
 8017406:	4628      	mov	r0, r5
 8017408:	f7ff fed8 	bl	80171bc <fatfs_find_next_cluster>
 801740c:	4621      	mov	r1, r4
 801740e:	4604      	mov	r4, r0
 8017410:	2800      	cmp	r0, #0
 8017412:	d1f4      	bne.n	80173fe <fatfs_fat_add_cluster_to_chain+0x12>
 8017414:	2000      	movs	r0, #0
 8017416:	e00a      	b.n	801742e <fatfs_fat_add_cluster_to_chain+0x42>
 8017418:	4632      	mov	r2, r6
 801741a:	4628      	mov	r0, r5
 801741c:	f7ff ff8e 	bl	801733c <fatfs_fat_set_cluster>
 8017420:	f04f 32ff 	mov.w	r2, #4294967295	@ 0xffffffff
 8017424:	4631      	mov	r1, r6
 8017426:	4628      	mov	r0, r5
 8017428:	f7ff ff88 	bl	801733c <fatfs_fat_set_cluster>
 801742c:	2001      	movs	r0, #1
 801742e:	bd70      	pop	{r4, r5, r6, pc}
 8017430:	2000      	movs	r0, #0
 8017432:	4770      	bx	lr

08017434 <fatfs_count_free_clusters>:
 8017434:	b5f8      	push	{r3, r4, r5, r6, r7, lr}
 8017436:	4604      	mov	r4, r0
 8017438:	2500      	movs	r5, #0
 801743a:	462e      	mov	r6, r5
 801743c:	e026      	b.n	801748c <fatfs_count_free_clusters+0x58>
 801743e:	3302      	adds	r3, #2
 8017440:	f5b3 7f00 	cmp.w	r3, #512	@ 0x200
 8017444:	d221      	bcs.n	801748a <fatfs_count_free_clusters+0x56>
 8017446:	f894 202d 	ldrb.w	r2, [r4, #45]	@ 0x2d
 801744a:	b95a      	cbnz	r2, 8017464 <fatfs_count_free_clusters+0x30>
 801744c:	f8dc 1208 	ldr.w	r1, [ip, #520]	@ 0x208
 8017450:	b29a      	uxth	r2, r3
 8017452:	1888      	adds	r0, r1, r2
 8017454:	7840      	ldrb	r0, [r0, #1]
 8017456:	5c8a      	ldrb	r2, [r1, r2]
 8017458:	eb02 2200 	add.w	r2, r2, r0, lsl #8
 801745c:	2a00      	cmp	r2, #0
 801745e:	d1ee      	bne.n	801743e <fatfs_count_free_clusters+0xa>
 8017460:	3501      	adds	r5, #1
 8017462:	e7ec      	b.n	801743e <fatfs_count_free_clusters+0xa>
 8017464:	f8dc 7208 	ldr.w	r7, [ip, #520]	@ 0x208
 8017468:	b298      	uxth	r0, r3
 801746a:	1839      	adds	r1, r7, r0
 801746c:	f891 e003 	ldrb.w	lr, [r1, #3]
 8017470:	788a      	ldrb	r2, [r1, #2]
 8017472:	0412      	lsls	r2, r2, #16
 8017474:	eb02 620e 	add.w	r2, r2, lr, lsl #24
 8017478:	7849      	ldrb	r1, [r1, #1]
 801747a:	eb02 2201 	add.w	r2, r2, r1, lsl #8
 801747e:	5c39      	ldrb	r1, [r7, r0]
 8017480:	42ca      	cmn	r2, r1
 8017482:	d100      	bne.n	8017486 <fatfs_count_free_clusters+0x52>
 8017484:	3501      	adds	r5, #1
 8017486:	3304      	adds	r3, #4
 8017488:	e7da      	b.n	8017440 <fatfs_count_free_clusters+0xc>
 801748a:	3601      	adds	r6, #1
 801748c:	6a23      	ldr	r3, [r4, #32]
 801748e:	42b3      	cmp	r3, r6
 8017490:	d908      	bls.n	80174a4 <fatfs_count_free_clusters+0x70>
 8017492:	6961      	ldr	r1, [r4, #20]
 8017494:	4431      	add	r1, r6
 8017496:	4620      	mov	r0, r4
 8017498:	f7ff fe04 	bl	80170a4 <fatfs_fat_read_sector>
 801749c:	4684      	mov	ip, r0
 801749e:	b108      	cbz	r0, 80174a4 <fatfs_count_free_clusters+0x70>
 80174a0:	2300      	movs	r3, #0
 80174a2:	e7cd      	b.n	8017440 <fatfs_count_free_clusters+0xc>
 80174a4:	4628      	mov	r0, r5
 80174a6:	bdf8      	pop	{r3, r4, r5, r6, r7, pc}

080174a8 <fatfs_find_free_dir_offset>:
 80174a8:	e92d 4ff0 	stmdb	sp!, {r4, r5, r6, r7, r8, r9, sl, fp, lr}
 80174ac:	b087      	sub	sp, #28
 80174ae:	9103      	str	r1, [sp, #12]
 80174b0:	f8dd a040 	ldr.w	sl, [sp, #64]	@ 0x40
 80174b4:	4693      	mov	fp, r2
 80174b6:	2a00      	cmp	r2, #0
 80174b8:	d073      	beq.n	80175a2 <fatfs_find_free_dir_offset+0xfa>
 80174ba:	4607      	mov	r7, r0
 80174bc:	4699      	mov	r9, r3
 80174be:	2300      	movs	r3, #0
 80174c0:	461e      	mov	r6, r3
 80174c2:	9301      	str	r3, [sp, #4]
 80174c4:	461d      	mov	r5, r3
 80174c6:	e037      	b.n	8017538 <fatfs_find_free_dir_offset+0x90>
 80174c8:	3501      	adds	r5, #1
 80174ca:	3401      	adds	r4, #1
 80174cc:	b2e4      	uxtb	r4, r4
 80174ce:	2c0f      	cmp	r4, #15
 80174d0:	d831      	bhi.n	8017536 <fatfs_find_free_dir_offset+0x8e>
 80174d2:	0166      	lsls	r6, r4, #5
 80174d4:	f107 0040 	add.w	r0, r7, #64	@ 0x40
 80174d8:	eb00 1044 	add.w	r0, r0, r4, lsl #5
 80174dc:	f7ff fa67 	bl	80169ae <fatfs_entry_lfn_text>
 80174e0:	b140      	cbz	r0, 80174f4 <fatfs_find_free_dir_offset+0x4c>
 80174e2:	2d00      	cmp	r5, #0
 80174e4:	d1f0      	bne.n	80174c8 <fatfs_find_free_dir_offset+0x20>
 80174e6:	f8c9 8000 	str.w	r8, [r9]
 80174ea:	f88a 4000 	strb.w	r4, [sl]
 80174ee:	2301      	movs	r3, #1
 80174f0:	9301      	str	r3, [sp, #4]
 80174f2:	e7e9      	b.n	80174c8 <fatfs_find_free_dir_offset+0x20>
 80174f4:	443e      	add	r6, r7
 80174f6:	f896 2040 	ldrb.w	r2, [r6, #64]	@ 0x40
 80174fa:	2ae5      	cmp	r2, #229	@ 0xe5
 80174fc:	d00c      	beq.n	8017518 <fatfs_find_free_dir_offset+0x70>
 80174fe:	b9ba      	cbnz	r2, 8017530 <fatfs_find_free_dir_offset+0x88>
 8017500:	b92d      	cbnz	r5, 801750e <fatfs_find_free_dir_offset+0x66>
 8017502:	f8c9 8000 	str.w	r8, [r9]
 8017506:	f88a 4000 	strb.w	r4, [sl]
 801750a:	2301      	movs	r3, #1
 801750c:	9301      	str	r3, [sp, #4]
 801750e:	3501      	adds	r5, #1
 8017510:	45ab      	cmp	fp, r5
 8017512:	dcda      	bgt.n	80174ca <fatfs_find_free_dir_offset+0x22>
 8017514:	2001      	movs	r0, #1
 8017516:	e045      	b.n	80175a4 <fatfs_find_free_dir_offset+0xfc>
 8017518:	b92d      	cbnz	r5, 8017526 <fatfs_find_free_dir_offset+0x7e>
 801751a:	f8c9 8000 	str.w	r8, [r9]
 801751e:	f88a 4000 	strb.w	r4, [sl]
 8017522:	2301      	movs	r3, #1
 8017524:	9301      	str	r3, [sp, #4]
 8017526:	3501      	adds	r5, #1
 8017528:	45ab      	cmp	fp, r5
 801752a:	dcce      	bgt.n	80174ca <fatfs_find_free_dir_offset+0x22>
 801752c:	2001      	movs	r0, #1
 801752e:	e039      	b.n	80175a4 <fatfs_find_free_dir_offset+0xfc>
 8017530:	9001      	str	r0, [sp, #4]
 8017532:	4605      	mov	r5, r0
 8017534:	e7c9      	b.n	80174ca <fatfs_find_free_dir_offset+0x22>
 8017536:	9e02      	ldr	r6, [sp, #8]
 8017538:	46b0      	mov	r8, r6
 801753a:	3601      	adds	r6, #1
 801753c:	2300      	movs	r3, #0
 801753e:	4642      	mov	r2, r8
 8017540:	9903      	ldr	r1, [sp, #12]
 8017542:	4638      	mov	r0, r7
 8017544:	f7fd fb02 	bl	8014b4c <fatfs_sector_reader>
 8017548:	b110      	cbz	r0, 8017550 <fatfs_find_free_dir_offset+0xa8>
 801754a:	2400      	movs	r4, #0
 801754c:	9602      	str	r6, [sp, #8]
 801754e:	e7be      	b.n	80174ce <fatfs_find_free_dir_offset+0x26>
 8017550:	aa05      	add	r2, sp, #20
 8017552:	68b9      	ldr	r1, [r7, #8]
 8017554:	4638      	mov	r0, r7
 8017556:	f7ff fead 	bl	80172b4 <fatfs_find_blank_cluster>
 801755a:	b318      	cbz	r0, 80175a4 <fatfs_find_free_dir_offset+0xfc>
 801755c:	9a05      	ldr	r2, [sp, #20]
 801755e:	9903      	ldr	r1, [sp, #12]
 8017560:	4638      	mov	r0, r7
 8017562:	f7ff ff43 	bl	80173ec <fatfs_fat_add_cluster_to_chain>
 8017566:	b1e8      	cbz	r0, 80175a4 <fatfs_find_free_dir_offset+0xfc>
 8017568:	f44f 7200 	mov.w	r2, #512	@ 0x200
 801756c:	2100      	movs	r1, #0
 801756e:	f107 0040 	add.w	r0, r7, #64	@ 0x40
 8017572:	f7fb f810 	bl	8012596 <memset>
 8017576:	2400      	movs	r4, #0
 8017578:	783b      	ldrb	r3, [r7, #0]
 801757a:	42a3      	cmp	r3, r4
 801757c:	d909      	bls.n	8017592 <fatfs_find_free_dir_offset+0xea>
 801757e:	2300      	movs	r3, #0
 8017580:	4622      	mov	r2, r4
 8017582:	9905      	ldr	r1, [sp, #20]
 8017584:	4638      	mov	r0, r7
 8017586:	f7fd fb56 	bl	8014c36 <fatfs_write_sector>
 801758a:	b158      	cbz	r0, 80175a4 <fatfs_find_free_dir_offset+0xfc>
 801758c:	3401      	adds	r4, #1
 801758e:	b2e4      	uxtb	r4, r4
 8017590:	e7f2      	b.n	8017578 <fatfs_find_free_dir_offset+0xd0>
 8017592:	9b01      	ldr	r3, [sp, #4]
 8017594:	b91b      	cbnz	r3, 801759e <fatfs_find_free_dir_offset+0xf6>
 8017596:	f8c9 8000 	str.w	r8, [r9]
 801759a:	f88a 3000 	strb.w	r3, [sl]
 801759e:	2001      	movs	r0, #1
 80175a0:	e000      	b.n	80175a4 <fatfs_find_free_dir_offset+0xfc>
 80175a2:	4610      	mov	r0, r2
 80175a4:	b007      	add	sp, #28
 80175a6:	e8bd 8ff0 	ldmia.w	sp!, {r4, r5, r6, r7, r8, r9, sl, fp, pc}

080175aa <fatfs_add_free_space>:
 80175aa:	e92d 41f0 	stmdb	sp!, {r4, r5, r6, r7, r8, lr}
 80175ae:	b082      	sub	sp, #8
 80175b0:	4604      	mov	r4, r0
 80175b2:	4688      	mov	r8, r1
 80175b4:	4617      	mov	r7, r2
 80175b6:	680e      	ldr	r6, [r1, #0]
 80175b8:	6a43      	ldr	r3, [r0, #36]	@ 0x24
 80175ba:	f1b3 3fff 	cmp.w	r3, #4294967295	@ 0xffffffff
 80175be:	d101      	bne.n	80175c4 <fatfs_add_free_space+0x1a>
 80175c0:	2500      	movs	r5, #0
 80175c2:	e005      	b.n	80175d0 <fatfs_add_free_space+0x26>
 80175c4:	f04f 31ff 	mov.w	r1, #4294967295	@ 0xffffffff
 80175c8:	f7ff fe3e 	bl	8017248 <fatfs_set_fs_info_next_free_cluster>
 80175cc:	e7f8      	b.n	80175c0 <fatfs_add_free_space+0x16>
 80175ce:	3501      	adds	r5, #1
 80175d0:	42bd      	cmp	r5, r7
 80175d2:	d217      	bcs.n	8017604 <fatfs_add_free_space+0x5a>
 80175d4:	aa01      	add	r2, sp, #4
 80175d6:	68a1      	ldr	r1, [r4, #8]
 80175d8:	4620      	mov	r0, r4
 80175da:	f7ff fe6b 	bl	80172b4 <fatfs_find_blank_cluster>
 80175de:	4603      	mov	r3, r0
 80175e0:	b188      	cbz	r0, 8017606 <fatfs_add_free_space+0x5c>
 80175e2:	9a01      	ldr	r2, [sp, #4]
 80175e4:	4631      	mov	r1, r6
 80175e6:	4620      	mov	r0, r4
 80175e8:	f7ff fea8 	bl	801733c <fatfs_fat_set_cluster>
 80175ec:	f04f 32ff 	mov.w	r2, #4294967295	@ 0xffffffff
 80175f0:	9901      	ldr	r1, [sp, #4]
 80175f2:	4620      	mov	r0, r4
 80175f4:	f7ff fea2 	bl	801733c <fatfs_fat_set_cluster>
 80175f8:	9e01      	ldr	r6, [sp, #4]
 80175fa:	2d00      	cmp	r5, #0
 80175fc:	d1e7      	bne.n	80175ce <fatfs_add_free_space+0x24>
 80175fe:	f8c8 6000 	str.w	r6, [r8]
 8017602:	e7e4      	b.n	80175ce <fatfs_add_free_space+0x24>
 8017604:	2301      	movs	r3, #1
 8017606:	4618      	mov	r0, r3
 8017608:	b002      	add	sp, #8
 801760a:	e8bd 81f0 	ldmia.w	sp!, {r4, r5, r6, r7, r8, pc}

0801760e <fatfs_allocate_free_space>:
 801760e:	2b00      	cmp	r3, #0
 8017610:	d03a      	beq.n	8017688 <fatfs_allocate_free_space+0x7a>
 8017612:	e92d 41f0 	stmdb	sp!, {r4, r5, r6, r7, r8, lr}
 8017616:	b082      	sub	sp, #8
 8017618:	4604      	mov	r4, r0
 801761a:	460d      	mov	r5, r1
 801761c:	4616      	mov	r6, r2
 801761e:	461f      	mov	r7, r3
 8017620:	6a43      	ldr	r3, [r0, #36]	@ 0x24
 8017622:	f1b3 3fff 	cmp.w	r3, #4294967295	@ 0xffffffff
 8017626:	d116      	bne.n	8017656 <fatfs_allocate_free_space+0x48>
 8017628:	7823      	ldrb	r3, [r4, #0]
 801762a:	025b      	lsls	r3, r3, #9
 801762c:	fbb7 f8f3 	udiv	r8, r7, r3
 8017630:	fb08 f303 	mul.w	r3, r8, r3
 8017634:	42bb      	cmp	r3, r7
 8017636:	d001      	beq.n	801763c <fatfs_allocate_free_space+0x2e>
 8017638:	f108 0801 	add.w	r8, r8, #1
 801763c:	b985      	cbnz	r5, 8017660 <fatfs_allocate_free_space+0x52>
 801763e:	6833      	ldr	r3, [r6, #0]
 8017640:	9301      	str	r3, [sp, #4]
 8017642:	4642      	mov	r2, r8
 8017644:	a901      	add	r1, sp, #4
 8017646:	4620      	mov	r0, r4
 8017648:	f7ff ffaf 	bl	80175aa <fatfs_add_free_space>
 801764c:	b100      	cbz	r0, 8017650 <fatfs_allocate_free_space+0x42>
 801764e:	2001      	movs	r0, #1
 8017650:	b002      	add	sp, #8
 8017652:	e8bd 81f0 	ldmia.w	sp!, {r4, r5, r6, r7, r8, pc}
 8017656:	f04f 31ff 	mov.w	r1, #4294967295	@ 0xffffffff
 801765a:	f7ff fdf5 	bl	8017248 <fatfs_set_fs_info_next_free_cluster>
 801765e:	e7e3      	b.n	8017628 <fatfs_allocate_free_space+0x1a>
 8017660:	aa01      	add	r2, sp, #4
 8017662:	68a1      	ldr	r1, [r4, #8]
 8017664:	4620      	mov	r0, r4
 8017666:	f7ff fe25 	bl	80172b4 <fatfs_find_blank_cluster>
 801766a:	2800      	cmp	r0, #0
 801766c:	d0f0      	beq.n	8017650 <fatfs_allocate_free_space+0x42>
 801766e:	f1b8 0f01 	cmp.w	r8, #1
 8017672:	d1e6      	bne.n	8017642 <fatfs_allocate_free_space+0x34>
 8017674:	f04f 32ff 	mov.w	r2, #4294967295	@ 0xffffffff
 8017678:	9901      	ldr	r1, [sp, #4]
 801767a:	4620      	mov	r0, r4
 801767c:	f7ff fe5e 	bl	801733c <fatfs_fat_set_cluster>
 8017680:	9b01      	ldr	r3, [sp, #4]
 8017682:	6033      	str	r3, [r6, #0]
 8017684:	2001      	movs	r0, #1
 8017686:	e7e3      	b.n	8017650 <fatfs_allocate_free_space+0x42>
 8017688:	2000      	movs	r0, #0
 801768a:	4770      	bx	lr

0801768c <fatfs_add_file_entry>:
 801768c:	e92d 4ff0 	stmdb	sp!, {r4, r5, r6, r7, r8, r9, sl, fp, lr}
 8017690:	b091      	sub	sp, #68	@ 0x44
 8017692:	9102      	str	r1, [sp, #8]
 8017694:	461d      	mov	r5, r3
 8017696:	9303      	str	r3, [sp, #12]
 8017698:	2300      	movs	r3, #0
 801769a:	9307      	str	r3, [sp, #28]
 801769c:	f88d 301b 	strb.w	r3, [sp, #27]
 80176a0:	6b43      	ldr	r3, [r0, #52]	@ 0x34
 80176a2:	2b00      	cmp	r3, #0
 80176a4:	f000 8086 	beq.w	80177b4 <fatfs_add_file_entry+0x128>
 80176a8:	4680      	mov	r8, r0
 80176aa:	460c      	mov	r4, r1
 80176ac:	4693      	mov	fp, r2
 80176ae:	4610      	mov	r0, r2
 80176b0:	f7ff f9df 	bl	8016a72 <fatfs_lfn_entries_required>
 80176b4:	4607      	mov	r7, r0
 80176b6:	b918      	cbnz	r0, 80176c0 <fatfs_add_file_entry+0x34>
 80176b8:	4638      	mov	r0, r7
 80176ba:	b011      	add	sp, #68	@ 0x44
 80176bc:	e8bd 8ff0 	ldmia.w	sp!, {r4, r5, r6, r7, r8, r9, sl, fp, pc}
 80176c0:	f10d 031b 	add.w	r3, sp, #27
 80176c4:	9300      	str	r3, [sp, #0]
 80176c6:	ab07      	add	r3, sp, #28
 80176c8:	1c42      	adds	r2, r0, #1
 80176ca:	4621      	mov	r1, r4
 80176cc:	4640      	mov	r0, r8
 80176ce:	f7ff feeb 	bl	80174a8 <fatfs_find_free_dir_offset>
 80176d2:	2800      	cmp	r0, #0
 80176d4:	d070      	beq.n	80177b8 <fatfs_add_file_entry+0x12c>
 80176d6:	462b      	mov	r3, r5
 80176d8:	2600      	movs	r6, #0
 80176da:	220b      	movs	r2, #11
 80176dc:	4631      	mov	r1, r6
 80176de:	e009      	b.n	80176f4 <fatfs_add_file_entry+0x68>
 80176e0:	084e      	lsrs	r6, r1, #1
 80176e2:	eb06 16c1 	add.w	r6, r6, r1, lsl #7
 80176e6:	f813 1b01 	ldrb.w	r1, [r3], #1
 80176ea:	fa51 f686 	uxtab	r6, r1, r6
 80176ee:	b2f1      	uxtb	r1, r6
 80176f0:	3a01      	subs	r2, #1
 80176f2:	b2d2      	uxtb	r2, r2
 80176f4:	2a00      	cmp	r2, #0
 80176f6:	d1f3      	bne.n	80176e0 <fatfs_add_file_entry+0x54>
 80176f8:	f8dd a01c 	ldr.w	sl, [sp, #28]
 80176fc:	f04f 0900 	mov.w	r9, #0
 8017700:	464b      	mov	r3, r9
 8017702:	464d      	mov	r5, r9
 8017704:	9205      	str	r2, [sp, #20]
 8017706:	4689      	mov	r9, r1
 8017708:	461e      	mov	r6, r3
 801770a:	e044      	b.n	8017796 <fatfs_add_file_entry+0x10a>
 801770c:	4607      	mov	r7, r0
 801770e:	e7d3      	b.n	80176b8 <fatfs_add_file_entry+0x2c>
 8017710:	b1cf      	cbz	r7, 8017746 <fatfs_add_file_entry+0xba>
 8017712:	3f01      	subs	r7, #1
 8017714:	3140      	adds	r1, #64	@ 0x40
 8017716:	464b      	mov	r3, r9
 8017718:	463a      	mov	r2, r7
 801771a:	4441      	add	r1, r8
 801771c:	4658      	mov	r0, fp
 801771e:	f7ff f9b7 	bl	8016a90 <fatfs_filename_to_lfn>
 8017722:	2601      	movs	r6, #1
 8017724:	3401      	adds	r4, #1
 8017726:	b2e4      	uxtb	r4, r4
 8017728:	2c0f      	cmp	r4, #15
 801772a:	d827      	bhi.n	801777c <fatfs_add_file_entry+0xf0>
 801772c:	0161      	lsls	r1, r4, #5
 801772e:	b289      	uxth	r1, r1
 8017730:	2d00      	cmp	r5, #0
 8017732:	d1ed      	bne.n	8017710 <fatfs_add_file_entry+0x84>
 8017734:	9b07      	ldr	r3, [sp, #28]
 8017736:	4553      	cmp	r3, sl
 8017738:	d1f4      	bne.n	8017724 <fatfs_add_file_entry+0x98>
 801773a:	f89d 301b 	ldrb.w	r3, [sp, #27]
 801773e:	42a3      	cmp	r3, r4
 8017740:	d1f0      	bne.n	8017724 <fatfs_add_file_entry+0x98>
 8017742:	2501      	movs	r5, #1
 8017744:	e7e4      	b.n	8017710 <fatfs_add_file_entry+0x84>
 8017746:	460d      	mov	r5, r1
 8017748:	9b1c      	ldr	r3, [sp, #112]	@ 0x70
 801774a:	9300      	str	r3, [sp, #0]
 801774c:	ab08      	add	r3, sp, #32
 801774e:	9a1a      	ldr	r2, [sp, #104]	@ 0x68
 8017750:	991b      	ldr	r1, [sp, #108]	@ 0x6c
 8017752:	9803      	ldr	r0, [sp, #12]
 8017754:	f7ff f9fa 	bl	8016b4c <fatfs_sfn_create_entry>
 8017758:	f105 0040 	add.w	r0, r5, #64	@ 0x40
 801775c:	2220      	movs	r2, #32
 801775e:	eb0d 0102 	add.w	r1, sp, r2
 8017762:	4440      	add	r0, r8
 8017764:	f7fa ff1e 	bl	80125a4 <memcpy>
 8017768:	f8d8 3034 	ldr.w	r3, [r8, #52]	@ 0x34
 801776c:	2201      	movs	r2, #1
 801776e:	f108 0140 	add.w	r1, r8, #64	@ 0x40
 8017772:	f8d8 0240 	ldr.w	r0, [r8, #576]	@ 0x240
 8017776:	4798      	blx	r3
 8017778:	4607      	mov	r7, r0
 801777a:	e79d      	b.n	80176b8 <fatfs_add_file_entry+0x2c>
 801777c:	b14e      	cbz	r6, 8017792 <fatfs_add_file_entry+0x106>
 801777e:	f8d8 3034 	ldr.w	r3, [r8, #52]	@ 0x34
 8017782:	2201      	movs	r2, #1
 8017784:	f108 0140 	add.w	r1, r8, #64	@ 0x40
 8017788:	f8d8 0240 	ldr.w	r0, [r8, #576]	@ 0x240
 801778c:	4798      	blx	r3
 801778e:	b178      	cbz	r0, 80177b0 <fatfs_add_file_entry+0x124>
 8017790:	2600      	movs	r6, #0
 8017792:	f8dd a010 	ldr.w	sl, [sp, #16]
 8017796:	f10a 0301 	add.w	r3, sl, #1
 801779a:	9304      	str	r3, [sp, #16]
 801779c:	2300      	movs	r3, #0
 801779e:	4652      	mov	r2, sl
 80177a0:	9902      	ldr	r1, [sp, #8]
 80177a2:	4640      	mov	r0, r8
 80177a4:	f7fd f9d2 	bl	8014b4c <fatfs_sector_reader>
 80177a8:	2800      	cmp	r0, #0
 80177aa:	d0af      	beq.n	801770c <fatfs_add_file_entry+0x80>
 80177ac:	9c05      	ldr	r4, [sp, #20]
 80177ae:	e7bb      	b.n	8017728 <fatfs_add_file_entry+0x9c>
 80177b0:	4607      	mov	r7, r0
 80177b2:	e781      	b.n	80176b8 <fatfs_add_file_entry+0x2c>
 80177b4:	2700      	movs	r7, #0
 80177b6:	e77f      	b.n	80176b8 <fatfs_add_file_entry+0x2c>
 80177b8:	4607      	mov	r7, r0
 80177ba:	e77d      	b.n	80176b8 <fatfs_add_file_entry+0x2c>

080177bc <crc7_one>:
 80177bc:	4048      	eors	r0, r1
 80177be:	2300      	movs	r3, #0
 80177c0:	e003      	b.n	80177ca <crc7_one+0xe>
 80177c2:	0040      	lsls	r0, r0, #1
 80177c4:	b2c0      	uxtb	r0, r0
 80177c6:	3301      	adds	r3, #1
 80177c8:	b2db      	uxtb	r3, r3
 80177ca:	2b07      	cmp	r3, #7
 80177cc:	d805      	bhi.n	80177da <crc7_one+0x1e>
 80177ce:	f010 0f80 	tst.w	r0, #128	@ 0x80
 80177d2:	d0f6      	beq.n	80177c2 <crc7_one+0x6>
 80177d4:	f080 0089 	eor.w	r0, r0, #137	@ 0x89
 80177d8:	e7f3      	b.n	80177c2 <crc7_one+0x6>
 80177da:	4770      	bx	lr

080177dc <crc7>:
 80177dc:	b570      	push	{r4, r5, r6, lr}
 80177de:	4606      	mov	r6, r0
 80177e0:	460d      	mov	r5, r1
 80177e2:	2000      	movs	r0, #0
 80177e4:	4604      	mov	r4, r0
 80177e6:	e004      	b.n	80177f2 <crc7+0x16>
 80177e8:	5d31      	ldrb	r1, [r6, r4]
 80177ea:	f7ff ffe7 	bl	80177bc <crc7_one>
 80177ee:	3401      	adds	r4, #1
 80177f0:	b2e4      	uxtb	r4, r4
 80177f2:	42ac      	cmp	r4, r5
 80177f4:	d3f8      	bcc.n	80177e8 <crc7+0xc>
 80177f6:	f3c0 0047 	ubfx	r0, r0, #1, #8
 80177fa:	bd70      	pop	{r4, r5, r6, pc}

080177fc <crc16_one>:
 80177fc:	0203      	lsls	r3, r0, #8
 80177fe:	ea43 2010 	orr.w	r0, r3, r0, lsr #8
 8017802:	b280      	uxth	r0, r0
 8017804:	4041      	eors	r1, r0
 8017806:	f3c1 1303 	ubfx	r3, r1, #4, #4
 801780a:	4059      	eors	r1, r3
 801780c:	ea81 3101 	eor.w	r1, r1, r1, lsl #12
 8017810:	b208      	sxth	r0, r1
 8017812:	b289      	uxth	r1, r1
 8017814:	0149      	lsls	r1, r1, #5
 8017816:	f401 51ff 	and.w	r1, r1, #8160	@ 0x1fe0
 801781a:	4048      	eors	r0, r1
 801781c:	b280      	uxth	r0, r0
 801781e:	4770      	bx	lr

08017820 <crc16>:
 8017820:	b570      	push	{r4, r5, r6, lr}
 8017822:	4606      	mov	r6, r0
 8017824:	460d      	mov	r5, r1
 8017826:	2000      	movs	r0, #0
 8017828:	4604      	mov	r4, r0
 801782a:	e004      	b.n	8017836 <crc16+0x16>
 801782c:	5d31      	ldrb	r1, [r6, r4]
 801782e:	f7ff ffe5 	bl	80177fc <crc16_one>
 8017832:	3401      	adds	r4, #1
 8017834:	b2a4      	uxth	r4, r4
 8017836:	42ac      	cmp	r4, r5
 8017838:	d3f8      	bcc.n	801782c <crc16+0xc>
 801783a:	bd70      	pop	{r4, r5, r6, pc}

0801783c <sd_spi_getcardinfo>:
 801783c:	4800      	ldr	r0, [pc, #0]	@ (8017840 <sd_spi_getcardinfo+0x4>)
 801783e:	4770      	bx	lr
 8017840:	20001470 	.word	0x20001470

08017844 <reset_prepare>:
 8017844:	b510      	push	{r4, lr}
 8017846:	f000 fd79 	bl	801833c <hal_sd_spi_release>
 801784a:	2400      	movs	r4, #0
 801784c:	e004      	b.n	8017858 <reset_prepare+0x14>
 801784e:	20ff      	movs	r0, #255	@ 0xff
 8017850:	f000 fd7e 	bl	8018350 <hal_sd_spi_txrx>
 8017854:	3401      	adds	r4, #1
 8017856:	b2e4      	uxtb	r4, r4
 8017858:	2c09      	cmp	r4, #9
 801785a:	d9f8      	bls.n	801784e <reset_prepare+0xa>
 801785c:	bd10      	pop	{r4, pc}

0801785e <send_command>:
 801785e:	e92d 41f0 	stmdb	sp!, {r4, r5, r6, r7, r8, lr}
 8017862:	b082      	sub	sp, #8
 8017864:	4607      	mov	r7, r0
 8017866:	4688      	mov	r8, r1
 8017868:	4614      	mov	r4, r2
 801786a:	461d      	mov	r5, r3
 801786c:	20ff      	movs	r0, #255	@ 0xff
 801786e:	f000 fd6f 	bl	8018350 <hal_sd_spi_txrx>
 8017872:	20ff      	movs	r0, #255	@ 0xff
 8017874:	f000 fd6c 	bl	8018350 <hal_sd_spi_txrx>
 8017878:	1e62      	subs	r2, r4, #1
 801787a:	2a05      	cmp	r2, #5
 801787c:	d85b      	bhi.n	8017936 <send_command+0xd8>
 801787e:	e8df f002 	tbb	[pc, r2]
 8017882:	0303      	.short	0x0303
 8017884:	215a2123 	.word	0x215a2123
 8017888:	2601      	movs	r6, #1
 801788a:	f047 0340 	orr.w	r3, r7, #64	@ 0x40
 801788e:	f88d 3000 	strb.w	r3, [sp]
 8017892:	ea4f 6318 	mov.w	r3, r8, lsr #24
 8017896:	f88d 3001 	strb.w	r3, [sp, #1]
 801789a:	f3c8 4307 	ubfx	r3, r8, #16, #8
 801789e:	f88d 3002 	strb.w	r3, [sp, #2]
 80178a2:	f3c8 2307 	ubfx	r3, r8, #8, #8
 80178a6:	f88d 3003 	strb.w	r3, [sp, #3]
 80178aa:	f88d 8004 	strb.w	r8, [sp, #4]
 80178ae:	2105      	movs	r1, #5
 80178b0:	4668      	mov	r0, sp
 80178b2:	f7ff ff93 	bl	80177dc <crc7>
 80178b6:	0040      	lsls	r0, r0, #1
 80178b8:	f040 0001 	orr.w	r0, r0, #1
 80178bc:	f88d 0005 	strb.w	r0, [sp, #5]
 80178c0:	2400      	movs	r4, #0
 80178c2:	e00c      	b.n	80178de <send_command+0x80>
 80178c4:	2605      	movs	r6, #5
 80178c6:	e7e0      	b.n	801788a <send_command+0x2c>
 80178c8:	2602      	movs	r6, #2
 80178ca:	e7de      	b.n	801788a <send_command+0x2c>
 80178cc:	f104 0308 	add.w	r3, r4, #8
 80178d0:	eb0d 0203 	add.w	r2, sp, r3
 80178d4:	f812 0c08 	ldrb.w	r0, [r2, #-8]
 80178d8:	f000 fd3a 	bl	8018350 <hal_sd_spi_txrx>
 80178dc:	3401      	adds	r4, #1
 80178de:	2c05      	cmp	r4, #5
 80178e0:	d9f4      	bls.n	80178cc <send_command+0x6e>
 80178e2:	2f0c      	cmp	r7, #12
 80178e4:	d002      	beq.n	80178ec <send_command+0x8e>
 80178e6:	20ff      	movs	r0, #255	@ 0xff
 80178e8:	2400      	movs	r4, #0
 80178ea:	e007      	b.n	80178fc <send_command+0x9e>
 80178ec:	20ff      	movs	r0, #255	@ 0xff
 80178ee:	f000 fd2f 	bl	8018350 <hal_sd_spi_txrx>
 80178f2:	e7f8      	b.n	80178e6 <send_command+0x88>
 80178f4:	20ff      	movs	r0, #255	@ 0xff
 80178f6:	f000 fd2b 	bl	8018350 <hal_sd_spi_txrx>
 80178fa:	3401      	adds	r4, #1
 80178fc:	f5b4 7f7a 	cmp.w	r4, #1000	@ 0x3e8
 8017900:	d202      	bcs.n	8017908 <send_command+0xaa>
 8017902:	f010 0f80 	tst.w	r0, #128	@ 0x80
 8017906:	d1f5      	bne.n	80178f4 <send_command+0x96>
 8017908:	f5b4 7f7a 	cmp.w	r4, #1000	@ 0x3e8
 801790c:	d015      	beq.n	801793a <send_command+0xdc>
 801790e:	f010 0f04 	tst.w	r0, #4
 8017912:	d114      	bne.n	801793e <send_command+0xe0>
 8017914:	f010 0708 	ands.w	r7, r0, #8
 8017918:	d113      	bne.n	8017942 <send_command+0xe4>
 801791a:	7028      	strb	r0, [r5, #0]
 801791c:	2401      	movs	r4, #1
 801791e:	e004      	b.n	801792a <send_command+0xcc>
 8017920:	20ff      	movs	r0, #255	@ 0xff
 8017922:	f000 fd15 	bl	8018350 <hal_sd_spi_txrx>
 8017926:	5528      	strb	r0, [r5, r4]
 8017928:	3401      	adds	r4, #1
 801792a:	42a6      	cmp	r6, r4
 801792c:	d8f8      	bhi.n	8017920 <send_command+0xc2>
 801792e:	4638      	mov	r0, r7
 8017930:	b002      	add	sp, #8
 8017932:	e8bd 81f0 	ldmia.w	sp!, {r4, r5, r6, r7, r8, pc}
 8017936:	270a      	movs	r7, #10
 8017938:	e7f9      	b.n	801792e <send_command+0xd0>
 801793a:	2701      	movs	r7, #1
 801793c:	e7f7      	b.n	801792e <send_command+0xd0>
 801793e:	2709      	movs	r7, #9
 8017940:	e7f5      	b.n	801792e <send_command+0xd0>
 8017942:	2702      	movs	r7, #2
 8017944:	e7f3      	b.n	801792e <send_command+0xd0>

08017946 <read_ocr>:
 8017946:	b500      	push	{lr}
 8017948:	b083      	sub	sp, #12
 801794a:	466b      	mov	r3, sp
 801794c:	2204      	movs	r2, #4
 801794e:	2100      	movs	r1, #0
 8017950:	203a      	movs	r0, #58	@ 0x3a
 8017952:	f7ff ff84 	bl	801785e <send_command>
 8017956:	b928      	cbnz	r0, 8017964 <read_ocr+0x1e>
 8017958:	f89d 3001 	ldrb.w	r3, [sp, #1]
 801795c:	f99d 2001 	ldrsb.w	r2, [sp, #1]
 8017960:	2a00      	cmp	r2, #0
 8017962:	db02      	blt.n	801796a <read_ocr+0x24>
 8017964:	b003      	add	sp, #12
 8017966:	f85d fb04 	ldr.w	pc, [sp], #4
 801796a:	f013 0340 	ands.w	r3, r3, #64	@ 0x40
 801796e:	d003      	beq.n	8017978 <read_ocr+0x32>
 8017970:	4b04      	ldr	r3, [pc, #16]	@ (8017984 <read_ocr+0x3e>)
 8017972:	2201      	movs	r2, #1
 8017974:	701a      	strb	r2, [r3, #0]
 8017976:	e7f5      	b.n	8017964 <read_ocr+0x1e>
 8017978:	4a02      	ldr	r2, [pc, #8]	@ (8017984 <read_ocr+0x3e>)
 801797a:	2100      	movs	r1, #0
 801797c:	7011      	strb	r1, [r2, #0]
 801797e:	4618      	mov	r0, r3
 8017980:	e7f0      	b.n	8017964 <read_ocr+0x1e>
 8017982:	bf00      	nop
 8017984:	20001470 	.word	0x20001470

08017988 <read_data>:
 8017988:	b570      	push	{r4, r5, r6, lr}
 801798a:	4606      	mov	r6, r0
 801798c:	460d      	mov	r5, r1
 801798e:	20ff      	movs	r0, #255	@ 0xff
 8017990:	2400      	movs	r4, #0
 8017992:	e003      	b.n	801799c <read_data+0x14>
 8017994:	20ff      	movs	r0, #255	@ 0xff
 8017996:	f000 fcdb 	bl	8018350 <hal_sd_spi_txrx>
 801799a:	3401      	adds	r4, #1
 801799c:	4b13      	ldr	r3, [pc, #76]	@ (80179ec <read_data+0x64>)
 801799e:	429c      	cmp	r4, r3
 80179a0:	d801      	bhi.n	80179a6 <read_data+0x1e>
 80179a2:	28fe      	cmp	r0, #254	@ 0xfe
 80179a4:	d1f6      	bne.n	8017994 <read_data+0xc>
 80179a6:	4b12      	ldr	r3, [pc, #72]	@ (80179f0 <read_data+0x68>)
 80179a8:	429c      	cmp	r4, r3
 80179aa:	d01a      	beq.n	80179e2 <read_data+0x5a>
 80179ac:	2400      	movs	r4, #0
 80179ae:	42a5      	cmp	r5, r4
 80179b0:	d905      	bls.n	80179be <read_data+0x36>
 80179b2:	20ff      	movs	r0, #255	@ 0xff
 80179b4:	f000 fccc 	bl	8018350 <hal_sd_spi_txrx>
 80179b8:	5530      	strb	r0, [r6, r4]
 80179ba:	3401      	adds	r4, #1
 80179bc:	e7f7      	b.n	80179ae <read_data+0x26>
 80179be:	20ff      	movs	r0, #255	@ 0xff
 80179c0:	f000 fcc6 	bl	8018350 <hal_sd_spi_txrx>
 80179c4:	0204      	lsls	r4, r0, #8
 80179c6:	b2a4      	uxth	r4, r4
 80179c8:	20ff      	movs	r0, #255	@ 0xff
 80179ca:	f000 fcc1 	bl	8018350 <hal_sd_spi_txrx>
 80179ce:	4304      	orrs	r4, r0
 80179d0:	b2a4      	uxth	r4, r4
 80179d2:	4629      	mov	r1, r5
 80179d4:	4630      	mov	r0, r6
 80179d6:	f7ff ff23 	bl	8017820 <crc16>
 80179da:	4284      	cmp	r4, r0
 80179dc:	d103      	bne.n	80179e6 <read_data+0x5e>
 80179de:	2000      	movs	r0, #0
 80179e0:	bd70      	pop	{r4, r5, r6, pc}
 80179e2:	2003      	movs	r0, #3
 80179e4:	e7fc      	b.n	80179e0 <read_data+0x58>
 80179e6:	2004      	movs	r0, #4
 80179e8:	e7fa      	b.n	80179e0 <read_data+0x58>
 80179ea:	bf00      	nop
 80179ec:	0001869f 	.word	0x0001869f
 80179f0:	000186a0 	.word	0x000186a0

080179f4 <read_scr>:
 80179f4:	b500      	push	{lr}
 80179f6:	b083      	sub	sp, #12
 80179f8:	466b      	mov	r3, sp
 80179fa:	2201      	movs	r2, #1
 80179fc:	2100      	movs	r1, #0
 80179fe:	2037      	movs	r0, #55	@ 0x37
 8017a00:	f7ff ff2d 	bl	801785e <send_command>
 8017a04:	b110      	cbz	r0, 8017a0c <read_scr+0x18>
 8017a06:	b003      	add	sp, #12
 8017a08:	f85d fb04 	ldr.w	pc, [sp], #4
 8017a0c:	466b      	mov	r3, sp
 8017a0e:	2201      	movs	r2, #1
 8017a10:	2100      	movs	r1, #0
 8017a12:	2033      	movs	r0, #51	@ 0x33
 8017a14:	f7ff ff23 	bl	801785e <send_command>
 8017a18:	2800      	cmp	r0, #0
 8017a1a:	d1f4      	bne.n	8017a06 <read_scr+0x12>
 8017a1c:	2108      	movs	r1, #8
 8017a1e:	4668      	mov	r0, sp
 8017a20:	f7ff ffb2 	bl	8017988 <read_data>
 8017a24:	2800      	cmp	r0, #0
 8017a26:	d1ee      	bne.n	8017a06 <read_scr+0x12>
 8017a28:	f89d 3001 	ldrb.w	r3, [sp, #1]
 8017a2c:	f003 0370 	and.w	r3, r3, #112	@ 0x70
 8017a30:	2b20      	cmp	r3, #32
 8017a32:	d007      	beq.n	8017a44 <read_scr+0x50>
 8017a34:	2b30      	cmp	r3, #48	@ 0x30
 8017a36:	d009      	beq.n	8017a4c <read_scr+0x58>
 8017a38:	2b40      	cmp	r3, #64	@ 0x40
 8017a3a:	d1e4      	bne.n	8017a06 <read_scr+0x12>
 8017a3c:	4b05      	ldr	r3, [pc, #20]	@ (8017a54 <read_scr+0x60>)
 8017a3e:	2202      	movs	r2, #2
 8017a40:	701a      	strb	r2, [r3, #0]
 8017a42:	e7e0      	b.n	8017a06 <read_scr+0x12>
 8017a44:	4a03      	ldr	r2, [pc, #12]	@ (8017a54 <read_scr+0x60>)
 8017a46:	2100      	movs	r1, #0
 8017a48:	7011      	strb	r1, [r2, #0]
 8017a4a:	e7f5      	b.n	8017a38 <read_scr+0x44>
 8017a4c:	4b01      	ldr	r3, [pc, #4]	@ (8017a54 <read_scr+0x60>)
 8017a4e:	2201      	movs	r2, #1
 8017a50:	701a      	strb	r2, [r3, #0]
 8017a52:	e7d8      	b.n	8017a06 <read_scr+0x12>
 8017a54:	20001470 	.word	0x20001470

08017a58 <read_csd>:
 8017a58:	b500      	push	{lr}
 8017a5a:	b085      	sub	sp, #20
 8017a5c:	466b      	mov	r3, sp
 8017a5e:	2201      	movs	r2, #1
 8017a60:	2100      	movs	r1, #0
 8017a62:	2009      	movs	r0, #9
 8017a64:	f7ff fefb 	bl	801785e <send_command>
 8017a68:	b110      	cbz	r0, 8017a70 <read_csd+0x18>
 8017a6a:	b005      	add	sp, #20
 8017a6c:	f85d fb04 	ldr.w	pc, [sp], #4
 8017a70:	2110      	movs	r1, #16
 8017a72:	4668      	mov	r0, sp
 8017a74:	f7ff ff88 	bl	8017988 <read_data>
 8017a78:	2800      	cmp	r0, #0
 8017a7a:	d1f6      	bne.n	8017a6a <read_csd+0x12>
 8017a7c:	4b20      	ldr	r3, [pc, #128]	@ (8017b00 <read_csd+0xa8>)
 8017a7e:	7819      	ldrb	r1, [r3, #0]
 8017a80:	bb39      	cbnz	r1, 8017ad2 <read_csd+0x7a>
 8017a82:	f89d 0005 	ldrb.w	r0, [sp, #5]
 8017a86:	f000 000f 	and.w	r0, r0, #15
 8017a8a:	f89d 3006 	ldrb.w	r3, [sp, #6]
 8017a8e:	029b      	lsls	r3, r3, #10
 8017a90:	f403 6340 	and.w	r3, r3, #3072	@ 0xc00
 8017a94:	f89d 2007 	ldrb.w	r2, [sp, #7]
 8017a98:	ea43 0382 	orr.w	r3, r3, r2, lsl #2
 8017a9c:	f89d 2008 	ldrb.w	r2, [sp, #8]
 8017aa0:	ea43 1392 	orr.w	r3, r3, r2, lsr #6
 8017aa4:	f89d 2009 	ldrb.w	r2, [sp, #9]
 8017aa8:	0052      	lsls	r2, r2, #1
 8017aaa:	f002 0206 	and.w	r2, r2, #6
 8017aae:	f89d c00a 	ldrb.w	ip, [sp, #10]
 8017ab2:	ea42 12dc 	orr.w	r2, r2, ip, lsr #7
 8017ab6:	3301      	adds	r3, #1
 8017ab8:	3202      	adds	r2, #2
 8017aba:	4093      	lsls	r3, r2
 8017abc:	4083      	lsls	r3, r0
 8017abe:	0a5b      	lsrs	r3, r3, #9
 8017ac0:	4a0f      	ldr	r2, [pc, #60]	@ (8017b00 <read_csd+0xa8>)
 8017ac2:	6093      	str	r3, [r2, #8]
 8017ac4:	f44f 7300 	mov.w	r3, #512	@ 0x200
 8017ac8:	60d3      	str	r3, [r2, #12]
 8017aca:	2301      	movs	r3, #1
 8017acc:	6113      	str	r3, [r2, #16]
 8017ace:	4608      	mov	r0, r1
 8017ad0:	e7cb      	b.n	8017a6a <read_csd+0x12>
 8017ad2:	f89d 2007 	ldrb.w	r2, [sp, #7]
 8017ad6:	0412      	lsls	r2, r2, #16
 8017ad8:	f402 127c 	and.w	r2, r2, #4128768	@ 0x3f0000
 8017adc:	f89d 3008 	ldrb.w	r3, [sp, #8]
 8017ae0:	ea42 2203 	orr.w	r2, r2, r3, lsl #8
 8017ae4:	f89d 3009 	ldrb.w	r3, [sp, #9]
 8017ae8:	4313      	orrs	r3, r2
 8017aea:	3301      	adds	r3, #1
 8017aec:	029b      	lsls	r3, r3, #10
 8017aee:	4a04      	ldr	r2, [pc, #16]	@ (8017b00 <read_csd+0xa8>)
 8017af0:	6093      	str	r3, [r2, #8]
 8017af2:	f44f 7300 	mov.w	r3, #512	@ 0x200
 8017af6:	60d3      	str	r3, [r2, #12]
 8017af8:	2301      	movs	r3, #1
 8017afa:	6113      	str	r3, [r2, #16]
 8017afc:	e7b5      	b.n	8017a6a <read_csd+0x12>
 8017afe:	bf00      	nop
 8017b00:	20001470 	.word	0x20001470

08017b04 <read>:
 8017b04:	b5f0      	push	{r4, r5, r6, r7, lr}
 8017b06:	b083      	sub	sp, #12
 8017b08:	4604      	mov	r4, r0
 8017b0a:	460d      	mov	r5, r1
 8017b0c:	4616      	mov	r6, r2
 8017b0e:	ab01      	add	r3, sp, #4
 8017b10:	2203      	movs	r2, #3
 8017b12:	2100      	movs	r1, #0
 8017b14:	200d      	movs	r0, #13
 8017b16:	f7ff fea2 	bl	801785e <send_command>
 8017b1a:	4603      	mov	r3, r0
 8017b1c:	bbc0      	cbnz	r0, 8017b90 <read+0x8c>
 8017b1e:	f89d 3004 	ldrb.w	r3, [sp, #4]
 8017b22:	bba3      	cbnz	r3, 8017b8e <read+0x8a>
 8017b24:	f89d 7005 	ldrb.w	r7, [sp, #5]
 8017b28:	bbaf      	cbnz	r7, 8017b96 <read+0x92>
 8017b2a:	4b1c      	ldr	r3, [pc, #112]	@ (8017b9c <read+0x98>)
 8017b2c:	781b      	ldrb	r3, [r3, #0]
 8017b2e:	b903      	cbnz	r3, 8017b32 <read+0x2e>
 8017b30:	026d      	lsls	r5, r5, #9
 8017b32:	2e01      	cmp	r6, #1
 8017b34:	d015      	beq.n	8017b62 <read+0x5e>
 8017b36:	ab01      	add	r3, sp, #4
 8017b38:	2201      	movs	r2, #1
 8017b3a:	4629      	mov	r1, r5
 8017b3c:	2012      	movs	r0, #18
 8017b3e:	f7ff fe8e 	bl	801785e <send_command>
 8017b42:	4603      	mov	r3, r0
 8017b44:	bb20      	cbnz	r0, 8017b90 <read+0x8c>
 8017b46:	2500      	movs	r5, #0
 8017b48:	42b5      	cmp	r5, r6
 8017b4a:	d214      	bcs.n	8017b76 <read+0x72>
 8017b4c:	f44f 7100 	mov.w	r1, #512	@ 0x200
 8017b50:	4620      	mov	r0, r4
 8017b52:	f7ff ff19 	bl	8017988 <read_data>
 8017b56:	4603      	mov	r3, r0
 8017b58:	b9d0      	cbnz	r0, 8017b90 <read+0x8c>
 8017b5a:	f504 7400 	add.w	r4, r4, #512	@ 0x200
 8017b5e:	3501      	adds	r5, #1
 8017b60:	e7f2      	b.n	8017b48 <read+0x44>
 8017b62:	ab01      	add	r3, sp, #4
 8017b64:	2201      	movs	r2, #1
 8017b66:	4629      	mov	r1, r5
 8017b68:	2011      	movs	r0, #17
 8017b6a:	f7ff fe78 	bl	801785e <send_command>
 8017b6e:	4603      	mov	r3, r0
 8017b70:	2800      	cmp	r0, #0
 8017b72:	d0e8      	beq.n	8017b46 <read+0x42>
 8017b74:	e00c      	b.n	8017b90 <read+0x8c>
 8017b76:	2e01      	cmp	r6, #1
 8017b78:	d801      	bhi.n	8017b7e <read+0x7a>
 8017b7a:	463b      	mov	r3, r7
 8017b7c:	e008      	b.n	8017b90 <read+0x8c>
 8017b7e:	ab01      	add	r3, sp, #4
 8017b80:	2202      	movs	r2, #2
 8017b82:	2100      	movs	r1, #0
 8017b84:	200c      	movs	r0, #12
 8017b86:	f7ff fe6a 	bl	801785e <send_command>
 8017b8a:	4603      	mov	r3, r0
 8017b8c:	e000      	b.n	8017b90 <read+0x8c>
 8017b8e:	230b      	movs	r3, #11
 8017b90:	4618      	mov	r0, r3
 8017b92:	b003      	add	sp, #12
 8017b94:	bdf0      	pop	{r4, r5, r6, r7, pc}
 8017b96:	230b      	movs	r3, #11
 8017b98:	e7fa      	b.n	8017b90 <read+0x8c>
 8017b9a:	bf00      	nop
 8017b9c:	20001470 	.word	0x20001470

08017ba0 <sd_spi_read>:
 8017ba0:	b570      	push	{r4, r5, r6, lr}
 8017ba2:	4604      	mov	r4, r0
 8017ba4:	460d      	mov	r5, r1
 8017ba6:	4616      	mov	r6, r2
 8017ba8:	f000 fbbe 	bl	8018328 <hal_sd_spi_select>
 8017bac:	4632      	mov	r2, r6
 8017bae:	4629      	mov	r1, r5
 8017bb0:	4620      	mov	r0, r4
 8017bb2:	f7ff ffa7 	bl	8017b04 <read>
 8017bb6:	4604      	mov	r4, r0
 8017bb8:	f000 fbc0 	bl	801833c <hal_sd_spi_release>
 8017bbc:	4620      	mov	r0, r4
 8017bbe:	bd70      	pop	{r4, r5, r6, pc}

08017bc0 <write_data>:
 8017bc0:	b5f8      	push	{r3, r4, r5, r6, r7, lr}
 8017bc2:	4606      	mov	r6, r0
 8017bc4:	460d      	mov	r5, r1
 8017bc6:	f7ff fe2b 	bl	8017820 <crc16>
 8017bca:	4607      	mov	r7, r0
 8017bcc:	2400      	movs	r4, #0
 8017bce:	e003      	b.n	8017bd8 <write_data+0x18>
 8017bd0:	5d30      	ldrb	r0, [r6, r4]
 8017bd2:	f000 fbbd 	bl	8018350 <hal_sd_spi_txrx>
 8017bd6:	3401      	adds	r4, #1
 8017bd8:	42a5      	cmp	r5, r4
 8017bda:	d8f9      	bhi.n	8017bd0 <write_data+0x10>
 8017bdc:	f3c7 2007 	ubfx	r0, r7, #8, #8
 8017be0:	f000 fbb6 	bl	8018350 <hal_sd_spi_txrx>
 8017be4:	b2f8      	uxtb	r0, r7
 8017be6:	f000 fbb3 	bl	8018350 <hal_sd_spi_txrx>
 8017bea:	20ff      	movs	r0, #255	@ 0xff
 8017bec:	2400      	movs	r4, #0
 8017bee:	e003      	b.n	8017bf8 <write_data+0x38>
 8017bf0:	20ff      	movs	r0, #255	@ 0xff
 8017bf2:	f000 fbad 	bl	8018350 <hal_sd_spi_txrx>
 8017bf6:	3401      	adds	r4, #1
 8017bf8:	4b13      	ldr	r3, [pc, #76]	@ (8017c48 <write_data+0x88>)
 8017bfa:	429c      	cmp	r4, r3
 8017bfc:	d801      	bhi.n	8017c02 <write_data+0x42>
 8017bfe:	28ff      	cmp	r0, #255	@ 0xff
 8017c00:	d0f6      	beq.n	8017bf0 <write_data+0x30>
 8017c02:	4b12      	ldr	r3, [pc, #72]	@ (8017c4c <write_data+0x8c>)
 8017c04:	429c      	cmp	r4, r3
 8017c06:	d016      	beq.n	8017c36 <write_data+0x76>
 8017c08:	f000 001f 	and.w	r0, r0, #31
 8017c0c:	280b      	cmp	r0, #11
 8017c0e:	d014      	beq.n	8017c3a <write_data+0x7a>
 8017c10:	280d      	cmp	r0, #13
 8017c12:	d014      	beq.n	8017c3e <write_data+0x7e>
 8017c14:	2000      	movs	r0, #0
 8017c16:	4604      	mov	r4, r0
 8017c18:	e003      	b.n	8017c22 <write_data+0x62>
 8017c1a:	20ff      	movs	r0, #255	@ 0xff
 8017c1c:	f000 fb98 	bl	8018350 <hal_sd_spi_txrx>
 8017c20:	3401      	adds	r4, #1
 8017c22:	4b09      	ldr	r3, [pc, #36]	@ (8017c48 <write_data+0x88>)
 8017c24:	429c      	cmp	r4, r3
 8017c26:	d801      	bhi.n	8017c2c <write_data+0x6c>
 8017c28:	28ff      	cmp	r0, #255	@ 0xff
 8017c2a:	d1f6      	bne.n	8017c1a <write_data+0x5a>
 8017c2c:	4b07      	ldr	r3, [pc, #28]	@ (8017c4c <write_data+0x8c>)
 8017c2e:	429c      	cmp	r4, r3
 8017c30:	d007      	beq.n	8017c42 <write_data+0x82>
 8017c32:	2000      	movs	r0, #0
 8017c34:	bdf8      	pop	{r3, r4, r5, r6, r7, pc}
 8017c36:	2003      	movs	r0, #3
 8017c38:	e7fc      	b.n	8017c34 <write_data+0x74>
 8017c3a:	2004      	movs	r0, #4
 8017c3c:	e7fa      	b.n	8017c34 <write_data+0x74>
 8017c3e:	2008      	movs	r0, #8
 8017c40:	e7f8      	b.n	8017c34 <write_data+0x74>
 8017c42:	2003      	movs	r0, #3
 8017c44:	e7f6      	b.n	8017c34 <write_data+0x74>
 8017c46:	bf00      	nop
 8017c48:	0001869f 	.word	0x0001869f
 8017c4c:	000186a0 	.word	0x000186a0

08017c50 <write_data_token>:
 8017c50:	b510      	push	{r4, lr}
 8017c52:	4604      	mov	r4, r0
 8017c54:	f000 fb7c 	bl	8018350 <hal_sd_spi_txrx>
 8017c58:	2cfd      	cmp	r4, #253	@ 0xfd
 8017c5a:	d00f      	beq.n	8017c7c <write_data_token+0x2c>
 8017c5c:	2000      	movs	r0, #0
 8017c5e:	bd10      	pop	{r4, pc}
 8017c60:	20ff      	movs	r0, #255	@ 0xff
 8017c62:	f000 fb75 	bl	8018350 <hal_sd_spi_txrx>
 8017c66:	3401      	adds	r4, #1
 8017c68:	4b07      	ldr	r3, [pc, #28]	@ (8017c88 <write_data_token+0x38>)
 8017c6a:	429c      	cmp	r4, r3
 8017c6c:	d801      	bhi.n	8017c72 <write_data_token+0x22>
 8017c6e:	28ff      	cmp	r0, #255	@ 0xff
 8017c70:	d1f6      	bne.n	8017c60 <write_data_token+0x10>
 8017c72:	4b06      	ldr	r3, [pc, #24]	@ (8017c8c <write_data_token+0x3c>)
 8017c74:	429c      	cmp	r4, r3
 8017c76:	d004      	beq.n	8017c82 <write_data_token+0x32>
 8017c78:	2000      	movs	r0, #0
 8017c7a:	e7f0      	b.n	8017c5e <write_data_token+0xe>
 8017c7c:	2000      	movs	r0, #0
 8017c7e:	4604      	mov	r4, r0
 8017c80:	e7f2      	b.n	8017c68 <write_data_token+0x18>
 8017c82:	2003      	movs	r0, #3
 8017c84:	e7eb      	b.n	8017c5e <write_data_token+0xe>
 8017c86:	bf00      	nop
 8017c88:	0001869f 	.word	0x0001869f
 8017c8c:	000186a0 	.word	0x000186a0

08017c90 <write>:
 8017c90:	b5f0      	push	{r4, r5, r6, r7, lr}
 8017c92:	b083      	sub	sp, #12
 8017c94:	4604      	mov	r4, r0
 8017c96:	460e      	mov	r6, r1
 8017c98:	4615      	mov	r5, r2
 8017c9a:	ab01      	add	r3, sp, #4
 8017c9c:	2203      	movs	r2, #3
 8017c9e:	2100      	movs	r1, #0
 8017ca0:	200d      	movs	r0, #13
 8017ca2:	f7ff fddc 	bl	801785e <send_command>
 8017ca6:	4603      	mov	r3, r0
 8017ca8:	2800      	cmp	r0, #0
 8017caa:	d14f      	bne.n	8017d4c <write+0xbc>
 8017cac:	f89d 3004 	ldrb.w	r3, [sp, #4]
 8017cb0:	2b00      	cmp	r3, #0
 8017cb2:	d14a      	bne.n	8017d4a <write+0xba>
 8017cb4:	f89d 7005 	ldrb.w	r7, [sp, #5]
 8017cb8:	2f00      	cmp	r7, #0
 8017cba:	d14a      	bne.n	8017d52 <write+0xc2>
 8017cbc:	4b26      	ldr	r3, [pc, #152]	@ (8017d58 <write+0xc8>)
 8017cbe:	781b      	ldrb	r3, [r3, #0]
 8017cc0:	b903      	cbnz	r3, 8017cc4 <write+0x34>
 8017cc2:	0276      	lsls	r6, r6, #9
 8017cc4:	2d01      	cmp	r5, #1
 8017cc6:	d018      	beq.n	8017cfa <write+0x6a>
 8017cc8:	ab01      	add	r3, sp, #4
 8017cca:	2201      	movs	r2, #1
 8017ccc:	2100      	movs	r1, #0
 8017cce:	2037      	movs	r0, #55	@ 0x37
 8017cd0:	f7ff fdc5 	bl	801785e <send_command>
 8017cd4:	4603      	mov	r3, r0
 8017cd6:	bbc8      	cbnz	r0, 8017d4c <write+0xbc>
 8017cd8:	ab01      	add	r3, sp, #4
 8017cda:	2201      	movs	r2, #1
 8017cdc:	4629      	mov	r1, r5
 8017cde:	2017      	movs	r0, #23
 8017ce0:	f7ff fdbd 	bl	801785e <send_command>
 8017ce4:	4603      	mov	r3, r0
 8017ce6:	bb88      	cbnz	r0, 8017d4c <write+0xbc>
 8017ce8:	ab01      	add	r3, sp, #4
 8017cea:	2201      	movs	r2, #1
 8017cec:	4631      	mov	r1, r6
 8017cee:	2019      	movs	r0, #25
 8017cf0:	f7ff fdb5 	bl	801785e <send_command>
 8017cf4:	4603      	mov	r3, r0
 8017cf6:	b140      	cbz	r0, 8017d0a <write+0x7a>
 8017cf8:	e028      	b.n	8017d4c <write+0xbc>
 8017cfa:	ab01      	add	r3, sp, #4
 8017cfc:	2201      	movs	r2, #1
 8017cfe:	4631      	mov	r1, r6
 8017d00:	2018      	movs	r0, #24
 8017d02:	f7ff fdac 	bl	801785e <send_command>
 8017d06:	4603      	mov	r3, r0
 8017d08:	bb00      	cbnz	r0, 8017d4c <write+0xbc>
 8017d0a:	2600      	movs	r6, #0
 8017d0c:	e00c      	b.n	8017d28 <write+0x98>
 8017d0e:	20fc      	movs	r0, #252	@ 0xfc
 8017d10:	f7ff ff9e 	bl	8017c50 <write_data_token>
 8017d14:	f44f 7100 	mov.w	r1, #512	@ 0x200
 8017d18:	4620      	mov	r0, r4
 8017d1a:	f7ff ff51 	bl	8017bc0 <write_data>
 8017d1e:	4603      	mov	r3, r0
 8017d20:	b9a0      	cbnz	r0, 8017d4c <write+0xbc>
 8017d22:	f504 7400 	add.w	r4, r4, #512	@ 0x200
 8017d26:	3601      	adds	r6, #1
 8017d28:	42ae      	cmp	r6, r5
 8017d2a:	d205      	bcs.n	8017d38 <write+0xa8>
 8017d2c:	2d01      	cmp	r5, #1
 8017d2e:	d1ee      	bne.n	8017d0e <write+0x7e>
 8017d30:	20fe      	movs	r0, #254	@ 0xfe
 8017d32:	f7ff ff8d 	bl	8017c50 <write_data_token>
 8017d36:	e7ed      	b.n	8017d14 <write+0x84>
 8017d38:	2d01      	cmp	r5, #1
 8017d3a:	d801      	bhi.n	8017d40 <write+0xb0>
 8017d3c:	463b      	mov	r3, r7
 8017d3e:	e005      	b.n	8017d4c <write+0xbc>
 8017d40:	20fd      	movs	r0, #253	@ 0xfd
 8017d42:	f7ff ff85 	bl	8017c50 <write_data_token>
 8017d46:	463b      	mov	r3, r7
 8017d48:	e000      	b.n	8017d4c <write+0xbc>
 8017d4a:	230b      	movs	r3, #11
 8017d4c:	4618      	mov	r0, r3
 8017d4e:	b003      	add	sp, #12
 8017d50:	bdf0      	pop	{r4, r5, r6, r7, pc}
 8017d52:	230b      	movs	r3, #11
 8017d54:	e7fa      	b.n	8017d4c <write+0xbc>
 8017d56:	bf00      	nop
 8017d58:	20001470 	.word	0x20001470

08017d5c <sd_spi_write>:
 8017d5c:	b570      	push	{r4, r5, r6, lr}
 8017d5e:	4604      	mov	r4, r0
 8017d60:	460d      	mov	r5, r1
 8017d62:	4616      	mov	r6, r2
 8017d64:	f000 fae0 	bl	8018328 <hal_sd_spi_select>
 8017d68:	4632      	mov	r2, r6
 8017d6a:	4629      	mov	r1, r5
 8017d6c:	4620      	mov	r0, r4
 8017d6e:	f7ff ff8f 	bl	8017c90 <write>
 8017d72:	4604      	mov	r4, r0
 8017d74:	f000 fae2 	bl	801833c <hal_sd_spi_release>
 8017d78:	4620      	mov	r0, r4
 8017d7a:	bd70      	pop	{r4, r5, r6, pc}

08017d7c <reset_idle>:
 8017d7c:	b510      	push	{r4, lr}
 8017d7e:	b084      	sub	sp, #16
 8017d80:	466b      	mov	r3, sp
 8017d82:	2201      	movs	r2, #1
 8017d84:	2100      	movs	r1, #0
 8017d86:	4608      	mov	r0, r1
 8017d88:	f7ff fd69 	bl	801785e <send_command>
 8017d8c:	4603      	mov	r3, r0
 8017d8e:	b110      	cbz	r0, 8017d96 <reset_idle+0x1a>
 8017d90:	4618      	mov	r0, r3
 8017d92:	b004      	add	sp, #16
 8017d94:	bd10      	pop	{r4, pc}
 8017d96:	466b      	mov	r3, sp
 8017d98:	2206      	movs	r2, #6
 8017d9a:	f44f 71d5 	mov.w	r1, #426	@ 0x1aa
 8017d9e:	2008      	movs	r0, #8
 8017da0:	f7ff fd5d 	bl	801785e <send_command>
 8017da4:	4603      	mov	r3, r0
 8017da6:	2809      	cmp	r0, #9
 8017da8:	d033      	beq.n	8017e12 <reset_idle+0x96>
 8017daa:	2800      	cmp	r0, #0
 8017dac:	d1f0      	bne.n	8017d90 <reset_idle+0x14>
 8017dae:	f89d 2001 	ldrb.w	r2, [sp, #1]
 8017db2:	f89d 3002 	ldrb.w	r3, [sp, #2]
 8017db6:	041b      	lsls	r3, r3, #16
 8017db8:	ea43 6302 	orr.w	r3, r3, r2, lsl #24
 8017dbc:	f89d 2003 	ldrb.w	r2, [sp, #3]
 8017dc0:	ea43 2302 	orr.w	r3, r3, r2, lsl #8
 8017dc4:	f89d 2004 	ldrb.w	r2, [sp, #4]
 8017dc8:	4313      	orrs	r3, r2
 8017dca:	f5b3 7fd5 	cmp.w	r3, #426	@ 0x1aa
 8017dce:	d167      	bne.n	8017ea0 <reset_idle+0x124>
 8017dd0:	2400      	movs	r4, #0
 8017dd2:	f5b4 7f7a 	cmp.w	r4, #1000	@ 0x3e8
 8017dd6:	d258      	bcs.n	8017e8a <reset_idle+0x10e>
 8017dd8:	f89d 3000 	ldrb.w	r3, [sp]
 8017ddc:	f013 0f01 	tst.w	r3, #1
 8017de0:	d053      	beq.n	8017e8a <reset_idle+0x10e>
 8017de2:	466b      	mov	r3, sp
 8017de4:	2201      	movs	r2, #1
 8017de6:	2100      	movs	r1, #0
 8017de8:	2037      	movs	r0, #55	@ 0x37
 8017dea:	f7ff fd38 	bl	801785e <send_command>
 8017dee:	4603      	mov	r3, r0
 8017df0:	2800      	cmp	r0, #0
 8017df2:	d1cd      	bne.n	8017d90 <reset_idle+0x14>
 8017df4:	466b      	mov	r3, sp
 8017df6:	2201      	movs	r2, #1
 8017df8:	f04f 4180 	mov.w	r1, #1073741824	@ 0x40000000
 8017dfc:	2029      	movs	r0, #41	@ 0x29
 8017dfe:	f7ff fd2e 	bl	801785e <send_command>
 8017e02:	4603      	mov	r3, r0
 8017e04:	2800      	cmp	r0, #0
 8017e06:	d1c3      	bne.n	8017d90 <reset_idle+0x14>
 8017e08:	200a      	movs	r0, #10
 8017e0a:	f001 fc6d 	bl	80196e8 <delay>
 8017e0e:	3401      	adds	r4, #1
 8017e10:	e7df      	b.n	8017dd2 <reset_idle+0x56>
 8017e12:	2400      	movs	r4, #0
 8017e14:	f5b4 7f7a 	cmp.w	r4, #1000	@ 0x3e8
 8017e18:	d21b      	bcs.n	8017e52 <reset_idle+0xd6>
 8017e1a:	f89d 3000 	ldrb.w	r3, [sp]
 8017e1e:	f013 0f01 	tst.w	r3, #1
 8017e22:	d016      	beq.n	8017e52 <reset_idle+0xd6>
 8017e24:	466b      	mov	r3, sp
 8017e26:	2201      	movs	r2, #1
 8017e28:	2100      	movs	r1, #0
 8017e2a:	2037      	movs	r0, #55	@ 0x37
 8017e2c:	f7ff fd17 	bl	801785e <send_command>
 8017e30:	4603      	mov	r3, r0
 8017e32:	2800      	cmp	r0, #0
 8017e34:	d1ac      	bne.n	8017d90 <reset_idle+0x14>
 8017e36:	466b      	mov	r3, sp
 8017e38:	2201      	movs	r2, #1
 8017e3a:	2100      	movs	r1, #0
 8017e3c:	2029      	movs	r0, #41	@ 0x29
 8017e3e:	f7ff fd0e 	bl	801785e <send_command>
 8017e42:	4603      	mov	r3, r0
 8017e44:	2800      	cmp	r0, #0
 8017e46:	d1a3      	bne.n	8017d90 <reset_idle+0x14>
 8017e48:	2064      	movs	r0, #100	@ 0x64
 8017e4a:	f001 fc4d 	bl	80196e8 <delay>
 8017e4e:	3401      	adds	r4, #1
 8017e50:	e7e0      	b.n	8017e14 <reset_idle+0x98>
 8017e52:	f5b4 7f7a 	cmp.w	r4, #1000	@ 0x3e8
 8017e56:	d021      	beq.n	8017e9c <reset_idle+0x120>
 8017e58:	4b13      	ldr	r3, [pc, #76]	@ (8017ea8 <reset_idle+0x12c>)
 8017e5a:	2200      	movs	r2, #0
 8017e5c:	701a      	strb	r2, [r3, #0]
 8017e5e:	4b12      	ldr	r3, [pc, #72]	@ (8017ea8 <reset_idle+0x12c>)
 8017e60:	781b      	ldrb	r3, [r3, #0]
 8017e62:	b94b      	cbnz	r3, 8017e78 <reset_idle+0xfc>
 8017e64:	466b      	mov	r3, sp
 8017e66:	2201      	movs	r2, #1
 8017e68:	f44f 7100 	mov.w	r1, #512	@ 0x200
 8017e6c:	2010      	movs	r0, #16
 8017e6e:	f7ff fcf6 	bl	801785e <send_command>
 8017e72:	4603      	mov	r3, r0
 8017e74:	2800      	cmp	r0, #0
 8017e76:	d18b      	bne.n	8017d90 <reset_idle+0x14>
 8017e78:	f7ff fdbc 	bl	80179f4 <read_scr>
 8017e7c:	4603      	mov	r3, r0
 8017e7e:	2800      	cmp	r0, #0
 8017e80:	d186      	bne.n	8017d90 <reset_idle+0x14>
 8017e82:	f7ff fde9 	bl	8017a58 <read_csd>
 8017e86:	4603      	mov	r3, r0
 8017e88:	e782      	b.n	8017d90 <reset_idle+0x14>
 8017e8a:	f5b4 7f7a 	cmp.w	r4, #1000	@ 0x3e8
 8017e8e:	d009      	beq.n	8017ea4 <reset_idle+0x128>
 8017e90:	f7ff fd59 	bl	8017946 <read_ocr>
 8017e94:	4603      	mov	r3, r0
 8017e96:	2800      	cmp	r0, #0
 8017e98:	d0e1      	beq.n	8017e5e <reset_idle+0xe2>
 8017e9a:	e779      	b.n	8017d90 <reset_idle+0x14>
 8017e9c:	230a      	movs	r3, #10
 8017e9e:	e777      	b.n	8017d90 <reset_idle+0x14>
 8017ea0:	230a      	movs	r3, #10
 8017ea2:	e775      	b.n	8017d90 <reset_idle+0x14>
 8017ea4:	230a      	movs	r3, #10
 8017ea6:	e773      	b.n	8017d90 <reset_idle+0x14>
 8017ea8:	20001470 	.word	0x20001470

08017eac <sd_spi_reset>:
 8017eac:	b510      	push	{r4, lr}
 8017eae:	f000 fa61 	bl	8018374 <hal_sd_spi_slow>
 8017eb2:	f7ff fcc7 	bl	8017844 <reset_prepare>
 8017eb6:	f000 fa37 	bl	8018328 <hal_sd_spi_select>
 8017eba:	f7ff ff5f 	bl	8017d7c <reset_idle>
 8017ebe:	4604      	mov	r4, r0
 8017ec0:	f000 fa3c 	bl	801833c <hal_sd_spi_release>
 8017ec4:	b10c      	cbz	r4, 8017eca <sd_spi_reset+0x1e>
 8017ec6:	4620      	mov	r0, r4
 8017ec8:	bd10      	pop	{r4, pc}
 8017eca:	f000 fa5b 	bl	8018384 <hal_sd_spi_fast>
 8017ece:	e7fa      	b.n	8017ec6 <sd_spi_reset+0x1a>

08017ed0 <flash_spi_getcardinfo>:
 8017ed0:	4800      	ldr	r0, [pc, #0]	@ (8017ed4 <flash_spi_getcardinfo+0x4>)
 8017ed2:	4770      	bx	lr
 8017ed4:	20001484 	.word	0x20001484

08017ed8 <SPI_Flash_ReadSR>:
 8017ed8:	b510      	push	{r4, lr}
 8017eda:	f000 f9cb 	bl	8018274 <hal_w25q_spi_select>
 8017ede:	2005      	movs	r0, #5
 8017ee0:	f000 f9dc 	bl	801829c <hal_w25q_spi_txrx>
 8017ee4:	20ff      	movs	r0, #255	@ 0xff
 8017ee6:	f000 f9d9 	bl	801829c <hal_w25q_spi_txrx>
 8017eea:	4604      	mov	r4, r0
 8017eec:	f000 f9cc 	bl	8018288 <hal_w25q_spi_release>
 8017ef0:	4620      	mov	r0, r4
 8017ef2:	bd10      	pop	{r4, pc}

08017ef4 <SPI_FLASH_Write_SR>:
 8017ef4:	b510      	push	{r4, lr}
 8017ef6:	4604      	mov	r4, r0
 8017ef8:	f000 f9bc 	bl	8018274 <hal_w25q_spi_select>
 8017efc:	2001      	movs	r0, #1
 8017efe:	f000 f9cd 	bl	801829c <hal_w25q_spi_txrx>
 8017f02:	4620      	mov	r0, r4
 8017f04:	f000 f9ca 	bl	801829c <hal_w25q_spi_txrx>
 8017f08:	f000 f9be 	bl	8018288 <hal_w25q_spi_release>
 8017f0c:	bd10      	pop	{r4, pc}

08017f0e <SPI_FLASH_Write_Enable>:
 8017f0e:	b508      	push	{r3, lr}
 8017f10:	f000 f9b0 	bl	8018274 <hal_w25q_spi_select>
 8017f14:	2006      	movs	r0, #6
 8017f16:	f000 f9c1 	bl	801829c <hal_w25q_spi_txrx>
 8017f1a:	f000 f9b5 	bl	8018288 <hal_w25q_spi_release>
 8017f1e:	bd08      	pop	{r3, pc}

08017f20 <SPI_FLASH_Write_Disable>:
 8017f20:	b508      	push	{r3, lr}
 8017f22:	f000 f9a7 	bl	8018274 <hal_w25q_spi_select>
 8017f26:	2004      	movs	r0, #4
 8017f28:	f000 f9b8 	bl	801829c <hal_w25q_spi_txrx>
 8017f2c:	f000 f9ac 	bl	8018288 <hal_w25q_spi_release>
 8017f30:	bd08      	pop	{r3, pc}

08017f32 <SPI_Flash_ReadID>:
 8017f32:	b510      	push	{r4, lr}
 8017f34:	f000 f99e 	bl	8018274 <hal_w25q_spi_select>
 8017f38:	2090      	movs	r0, #144	@ 0x90
 8017f3a:	f000 f9af 	bl	801829c <hal_w25q_spi_txrx>
 8017f3e:	2000      	movs	r0, #0
 8017f40:	f000 f9ac 	bl	801829c <hal_w25q_spi_txrx>
 8017f44:	2000      	movs	r0, #0
 8017f46:	f000 f9a9 	bl	801829c <hal_w25q_spi_txrx>
 8017f4a:	2000      	movs	r0, #0
 8017f4c:	f000 f9a6 	bl	801829c <hal_w25q_spi_txrx>
 8017f50:	20ff      	movs	r0, #255	@ 0xff
 8017f52:	f000 f9a3 	bl	801829c <hal_w25q_spi_txrx>
 8017f56:	0204      	lsls	r4, r0, #8
 8017f58:	b2a4      	uxth	r4, r4
 8017f5a:	20ff      	movs	r0, #255	@ 0xff
 8017f5c:	f000 f99e 	bl	801829c <hal_w25q_spi_txrx>
 8017f60:	4304      	orrs	r4, r0
 8017f62:	b2a4      	uxth	r4, r4
 8017f64:	f000 f990 	bl	8018288 <hal_w25q_spi_release>
 8017f68:	4620      	mov	r0, r4
 8017f6a:	bd10      	pop	{r4, pc}

08017f6c <SPI_Flash_Init>:
 8017f6c:	b508      	push	{r3, lr}
 8017f6e:	f000 f94d 	bl	801820c <hal_w25q_spi_init>
 8017f72:	f000 f989 	bl	8018288 <hal_w25q_spi_release>
 8017f76:	f7ff ffdc 	bl	8017f32 <SPI_Flash_ReadID>
 8017f7a:	4b07      	ldr	r3, [pc, #28]	@ (8017f98 <SPI_Flash_Init+0x2c>)
 8017f7c:	8018      	strh	r0, [r3, #0]
 8017f7e:	4b07      	ldr	r3, [pc, #28]	@ (8017f9c <SPI_Flash_Init+0x30>)
 8017f80:	f44f 7200 	mov.w	r2, #512	@ 0x200
 8017f84:	605a      	str	r2, [r3, #4]
 8017f86:	f44f 4200 	mov.w	r2, #32768	@ 0x8000
 8017f8a:	601a      	str	r2, [r3, #0]
 8017f8c:	210d      	movs	r1, #13
 8017f8e:	4804      	ldr	r0, [pc, #16]	@ (8017fa0 <SPI_Flash_Init+0x34>)
 8017f90:	f7fa fcd2 	bl	8012938 <hw_toggle_pin>
 8017f94:	bd08      	pop	{r3, pc}
 8017f96:	bf00      	nop
 8017f98:	200000fc 	.word	0x200000fc
 8017f9c:	20001484 	.word	0x20001484
 8017fa0:	40020800 	.word	0x40020800

08017fa4 <SPI_Flash_Read>:
 8017fa4:	b570      	push	{r4, r5, r6, lr}
 8017fa6:	4606      	mov	r6, r0
 8017fa8:	460c      	mov	r4, r1
 8017faa:	4615      	mov	r5, r2
 8017fac:	f000 f962 	bl	8018274 <hal_w25q_spi_select>
 8017fb0:	2003      	movs	r0, #3
 8017fb2:	f000 f973 	bl	801829c <hal_w25q_spi_txrx>
 8017fb6:	f3c4 4007 	ubfx	r0, r4, #16, #8
 8017fba:	f000 f96f 	bl	801829c <hal_w25q_spi_txrx>
 8017fbe:	f3c4 2007 	ubfx	r0, r4, #8, #8
 8017fc2:	f000 f96b 	bl	801829c <hal_w25q_spi_txrx>
 8017fc6:	b2e0      	uxtb	r0, r4
 8017fc8:	f000 f968 	bl	801829c <hal_w25q_spi_txrx>
 8017fcc:	2400      	movs	r4, #0
 8017fce:	e005      	b.n	8017fdc <SPI_Flash_Read+0x38>
 8017fd0:	20ff      	movs	r0, #255	@ 0xff
 8017fd2:	f000 f963 	bl	801829c <hal_w25q_spi_txrx>
 8017fd6:	5530      	strb	r0, [r6, r4]
 8017fd8:	3401      	adds	r4, #1
 8017fda:	b2a4      	uxth	r4, r4
 8017fdc:	42ac      	cmp	r4, r5
 8017fde:	d3f7      	bcc.n	8017fd0 <SPI_Flash_Read+0x2c>
 8017fe0:	f000 f952 	bl	8018288 <hal_w25q_spi_release>
 8017fe4:	bd70      	pop	{r4, r5, r6, pc}

08017fe6 <disk_read>:
 8017fe6:	b570      	push	{r4, r5, r6, lr}
 8017fe8:	4606      	mov	r6, r0
 8017fea:	460d      	mov	r5, r1
 8017fec:	4614      	mov	r4, r2
 8017fee:	e009      	b.n	8018004 <disk_read+0x1e>
 8017ff0:	f44f 7200 	mov.w	r2, #512	@ 0x200
 8017ff4:	0269      	lsls	r1, r5, #9
 8017ff6:	4630      	mov	r0, r6
 8017ff8:	f7ff ffd4 	bl	8017fa4 <SPI_Flash_Read>
 8017ffc:	3501      	adds	r5, #1
 8017ffe:	f506 7600 	add.w	r6, r6, #512	@ 0x200
 8018002:	3c01      	subs	r4, #1
 8018004:	2c00      	cmp	r4, #0
 8018006:	d1f3      	bne.n	8017ff0 <disk_read+0xa>
 8018008:	210d      	movs	r1, #13
 801800a:	4802      	ldr	r0, [pc, #8]	@ (8018014 <disk_read+0x2e>)
 801800c:	f7fa fc94 	bl	8012938 <hw_toggle_pin>
 8018010:	2000      	movs	r0, #0
 8018012:	bd70      	pop	{r4, r5, r6, pc}
 8018014:	40020800 	.word	0x40020800

08018018 <SPI_Flash_Wait_Busy>:
 8018018:	b508      	push	{r3, lr}
 801801a:	f7ff ff5d 	bl	8017ed8 <SPI_Flash_ReadSR>
 801801e:	f010 0f01 	tst.w	r0, #1
 8018022:	d1fa      	bne.n	801801a <SPI_Flash_Wait_Busy+0x2>
 8018024:	bd08      	pop	{r3, pc}

08018026 <SPI_Flash_Write_Page>:
 8018026:	b570      	push	{r4, r5, r6, lr}
 8018028:	4606      	mov	r6, r0
 801802a:	460c      	mov	r4, r1
 801802c:	4615      	mov	r5, r2
 801802e:	f7ff ff6e 	bl	8017f0e <SPI_FLASH_Write_Enable>
 8018032:	f000 f91f 	bl	8018274 <hal_w25q_spi_select>
 8018036:	2002      	movs	r0, #2
 8018038:	f000 f930 	bl	801829c <hal_w25q_spi_txrx>
 801803c:	f3c4 4007 	ubfx	r0, r4, #16, #8
 8018040:	f000 f92c 	bl	801829c <hal_w25q_spi_txrx>
 8018044:	f3c4 2007 	ubfx	r0, r4, #8, #8
 8018048:	f000 f928 	bl	801829c <hal_w25q_spi_txrx>
 801804c:	b2e0      	uxtb	r0, r4
 801804e:	f000 f925 	bl	801829c <hal_w25q_spi_txrx>
 8018052:	2400      	movs	r4, #0
 8018054:	e004      	b.n	8018060 <SPI_Flash_Write_Page+0x3a>
 8018056:	5d30      	ldrb	r0, [r6, r4]
 8018058:	f000 f920 	bl	801829c <hal_w25q_spi_txrx>
 801805c:	3401      	adds	r4, #1
 801805e:	b2a4      	uxth	r4, r4
 8018060:	42ac      	cmp	r4, r5
 8018062:	d3f8      	bcc.n	8018056 <SPI_Flash_Write_Page+0x30>
 8018064:	f000 f910 	bl	8018288 <hal_w25q_spi_release>
 8018068:	f7ff ffd6 	bl	8018018 <SPI_Flash_Wait_Busy>
 801806c:	bd70      	pop	{r4, r5, r6, pc}

0801806e <SPI_Flash_Write_NoCheck>:
 801806e:	b5f8      	push	{r3, r4, r5, r6, r7, lr}
 8018070:	4607      	mov	r7, r0
 8018072:	460e      	mov	r6, r1
 8018074:	4614      	mov	r4, r2
 8018076:	b2cd      	uxtb	r5, r1
 8018078:	f5c5 7580 	rsb	r5, r5, #256	@ 0x100
 801807c:	b2ad      	uxth	r5, r5
 801807e:	4295      	cmp	r5, r2
 8018080:	d303      	bcc.n	801808a <SPI_Flash_Write_NoCheck+0x1c>
 8018082:	4615      	mov	r5, r2
 8018084:	e001      	b.n	801808a <SPI_Flash_Write_NoCheck+0x1c>
 8018086:	f44f 7580 	mov.w	r5, #256	@ 0x100
 801808a:	462a      	mov	r2, r5
 801808c:	4631      	mov	r1, r6
 801808e:	4638      	mov	r0, r7
 8018090:	f7ff ffc9 	bl	8018026 <SPI_Flash_Write_Page>
 8018094:	42ac      	cmp	r4, r5
 8018096:	d008      	beq.n	80180aa <SPI_Flash_Write_NoCheck+0x3c>
 8018098:	442f      	add	r7, r5
 801809a:	442e      	add	r6, r5
 801809c:	1b64      	subs	r4, r4, r5
 801809e:	b2a4      	uxth	r4, r4
 80180a0:	f5b4 7f80 	cmp.w	r4, #256	@ 0x100
 80180a4:	d8ef      	bhi.n	8018086 <SPI_Flash_Write_NoCheck+0x18>
 80180a6:	4625      	mov	r5, r4
 80180a8:	e7ef      	b.n	801808a <SPI_Flash_Write_NoCheck+0x1c>
 80180aa:	bdf8      	pop	{r3, r4, r5, r6, r7, pc}

080180ac <SPI_Flash_Erase_Chip>:
 80180ac:	b508      	push	{r3, lr}
 80180ae:	f7ff ff2e 	bl	8017f0e <SPI_FLASH_Write_Enable>
 80180b2:	f7ff ffb1 	bl	8018018 <SPI_Flash_Wait_Busy>
 80180b6:	f000 f8dd 	bl	8018274 <hal_w25q_spi_select>
 80180ba:	20c7      	movs	r0, #199	@ 0xc7
 80180bc:	f000 f8ee 	bl	801829c <hal_w25q_spi_txrx>
 80180c0:	f000 f8e2 	bl	8018288 <hal_w25q_spi_release>
 80180c4:	f7ff ffa8 	bl	8018018 <SPI_Flash_Wait_Busy>
 80180c8:	bd08      	pop	{r3, pc}

080180ca <SPI_Flash_Erase_Sector>:
 80180ca:	b510      	push	{r4, lr}
 80180cc:	0304      	lsls	r4, r0, #12
 80180ce:	f7ff ff1e 	bl	8017f0e <SPI_FLASH_Write_Enable>
 80180d2:	f7ff ffa1 	bl	8018018 <SPI_Flash_Wait_Busy>
 80180d6:	f000 f8cd 	bl	8018274 <hal_w25q_spi_select>
 80180da:	2020      	movs	r0, #32
 80180dc:	f000 f8de 	bl	801829c <hal_w25q_spi_txrx>
 80180e0:	f3c4 4007 	ubfx	r0, r4, #16, #8
 80180e4:	f000 f8da 	bl	801829c <hal_w25q_spi_txrx>
 80180e8:	0a20      	lsrs	r0, r4, #8
 80180ea:	f000 00f0 	and.w	r0, r0, #240	@ 0xf0
 80180ee:	f000 f8d5 	bl	801829c <hal_w25q_spi_txrx>
 80180f2:	2000      	movs	r0, #0
 80180f4:	f000 f8d2 	bl	801829c <hal_w25q_spi_txrx>
 80180f8:	f000 f8c6 	bl	8018288 <hal_w25q_spi_release>
 80180fc:	f7ff ff8c 	bl	8018018 <SPI_Flash_Wait_Busy>
 8018100:	bd10      	pop	{r4, pc}

08018102 <SPI_Flash_Write>:
 8018102:	e92d 47f0 	stmdb	sp!, {r4, r5, r6, r7, r8, r9, sl, lr}
 8018106:	4606      	mov	r6, r0
 8018108:	4689      	mov	r9, r1
 801810a:	4617      	mov	r7, r2
 801810c:	ea4f 3811 	mov.w	r8, r1, lsr #12
 8018110:	f3c1 050b 	ubfx	r5, r1, #0, #12
 8018114:	f5c5 5480 	rsb	r4, r5, #4096	@ 0x1000
 8018118:	b2a4      	uxth	r4, r4
 801811a:	4294      	cmp	r4, r2
 801811c:	d304      	bcc.n	8018128 <SPI_Flash_Write+0x26>
 801811e:	4614      	mov	r4, r2
 8018120:	e002      	b.n	8018128 <SPI_Flash_Write+0x26>
 8018122:	f44f 5480 	mov.w	r4, #4096	@ 0x1000
 8018126:	2500      	movs	r5, #0
 8018128:	ea4f 3a08 	mov.w	sl, r8, lsl #12
 801812c:	f44f 5280 	mov.w	r2, #4096	@ 0x1000
 8018130:	4651      	mov	r1, sl
 8018132:	481c      	ldr	r0, [pc, #112]	@ (80181a4 <SPI_Flash_Write+0xa2>)
 8018134:	f7ff ff36 	bl	8017fa4 <SPI_Flash_Read>
 8018138:	2300      	movs	r3, #0
 801813a:	429c      	cmp	r4, r3
 801813c:	d907      	bls.n	801814e <SPI_Flash_Write+0x4c>
 801813e:	18ea      	adds	r2, r5, r3
 8018140:	4918      	ldr	r1, [pc, #96]	@ (80181a4 <SPI_Flash_Write+0xa2>)
 8018142:	5c8a      	ldrb	r2, [r1, r2]
 8018144:	2aff      	cmp	r2, #255	@ 0xff
 8018146:	d102      	bne.n	801814e <SPI_Flash_Write+0x4c>
 8018148:	3301      	adds	r3, #1
 801814a:	b29b      	uxth	r3, r3
 801814c:	e7f5      	b.n	801813a <SPI_Flash_Write+0x38>
 801814e:	429c      	cmp	r4, r3
 8018150:	d811      	bhi.n	8018176 <SPI_Flash_Write+0x74>
 8018152:	4622      	mov	r2, r4
 8018154:	4649      	mov	r1, r9
 8018156:	4630      	mov	r0, r6
 8018158:	f7ff ff89 	bl	801806e <SPI_Flash_Write_NoCheck>
 801815c:	42a7      	cmp	r7, r4
 801815e:	d01e      	beq.n	801819e <SPI_Flash_Write+0x9c>
 8018160:	f108 0801 	add.w	r8, r8, #1
 8018164:	4426      	add	r6, r4
 8018166:	44a1      	add	r9, r4
 8018168:	1b3c      	subs	r4, r7, r4
 801816a:	b2a7      	uxth	r7, r4
 801816c:	f5b7 5f80 	cmp.w	r7, #4096	@ 0x1000
 8018170:	d8d7      	bhi.n	8018122 <SPI_Flash_Write+0x20>
 8018172:	463c      	mov	r4, r7
 8018174:	e7d7      	b.n	8018126 <SPI_Flash_Write+0x24>
 8018176:	4640      	mov	r0, r8
 8018178:	f7ff ffa7 	bl	80180ca <SPI_Flash_Erase_Sector>
 801817c:	2300      	movs	r3, #0
 801817e:	e005      	b.n	801818c <SPI_Flash_Write+0x8a>
 8018180:	195a      	adds	r2, r3, r5
 8018182:	5cf0      	ldrb	r0, [r6, r3]
 8018184:	4907      	ldr	r1, [pc, #28]	@ (80181a4 <SPI_Flash_Write+0xa2>)
 8018186:	5488      	strb	r0, [r1, r2]
 8018188:	3301      	adds	r3, #1
 801818a:	b29b      	uxth	r3, r3
 801818c:	429c      	cmp	r4, r3
 801818e:	d8f7      	bhi.n	8018180 <SPI_Flash_Write+0x7e>
 8018190:	f44f 5280 	mov.w	r2, #4096	@ 0x1000
 8018194:	4651      	mov	r1, sl
 8018196:	4803      	ldr	r0, [pc, #12]	@ (80181a4 <SPI_Flash_Write+0xa2>)
 8018198:	f7ff ff69 	bl	801806e <SPI_Flash_Write_NoCheck>
 801819c:	e7de      	b.n	801815c <SPI_Flash_Write+0x5a>
 801819e:	e8bd 87f0 	ldmia.w	sp!, {r4, r5, r6, r7, r8, r9, sl, pc}
 80181a2:	bf00      	nop
 80181a4:	2000148c 	.word	0x2000148c

080181a8 <disk_write>:
 80181a8:	b570      	push	{r4, r5, r6, lr}
 80181aa:	4606      	mov	r6, r0
 80181ac:	460d      	mov	r5, r1
 80181ae:	4614      	mov	r4, r2
 80181b0:	e009      	b.n	80181c6 <disk_write+0x1e>
 80181b2:	f44f 7200 	mov.w	r2, #512	@ 0x200
 80181b6:	0269      	lsls	r1, r5, #9
 80181b8:	4630      	mov	r0, r6
 80181ba:	f7ff ffa2 	bl	8018102 <SPI_Flash_Write>
 80181be:	3501      	adds	r5, #1
 80181c0:	f506 7600 	add.w	r6, r6, #512	@ 0x200
 80181c4:	3c01      	subs	r4, #1
 80181c6:	2c00      	cmp	r4, #0
 80181c8:	d1f3      	bne.n	80181b2 <disk_write+0xa>
 80181ca:	210d      	movs	r1, #13
 80181cc:	4802      	ldr	r0, [pc, #8]	@ (80181d8 <disk_write+0x30>)
 80181ce:	f7fa fbb3 	bl	8012938 <hw_toggle_pin>
 80181d2:	2000      	movs	r0, #0
 80181d4:	bd70      	pop	{r4, r5, r6, pc}
 80181d6:	bf00      	nop
 80181d8:	40020800 	.word	0x40020800

080181dc <SPI_Flash_PowerDown>:
 80181dc:	b508      	push	{r3, lr}
 80181de:	f000 f849 	bl	8018274 <hal_w25q_spi_select>
 80181e2:	20b9      	movs	r0, #185	@ 0xb9
 80181e4:	f000 f85a 	bl	801829c <hal_w25q_spi_txrx>
 80181e8:	f000 f84e 	bl	8018288 <hal_w25q_spi_release>
 80181ec:	2003      	movs	r0, #3
 80181ee:	f001 fa7b 	bl	80196e8 <delay>
 80181f2:	bd08      	pop	{r3, pc}

080181f4 <SPI_Flash_WAKEUP>:
 80181f4:	b508      	push	{r3, lr}
 80181f6:	f000 f83d 	bl	8018274 <hal_w25q_spi_select>
 80181fa:	20ab      	movs	r0, #171	@ 0xab
 80181fc:	f000 f84e 	bl	801829c <hal_w25q_spi_txrx>
 8018200:	f000 f842 	bl	8018288 <hal_w25q_spi_release>
 8018204:	2003      	movs	r0, #3
 8018206:	f001 fa6f 	bl	80196e8 <delay>
 801820a:	bd08      	pop	{r3, pc}

0801820c <hal_w25q_spi_init>:
 801820c:	b510      	push	{r4, lr}
 801820e:	4b16      	ldr	r3, [pc, #88]	@ (8018268 <hal_w25q_spi_init+0x5c>)
 8018210:	6c5a      	ldr	r2, [r3, #68]	@ 0x44
 8018212:	f442 5280 	orr.w	r2, r2, #4096	@ 0x1000
 8018216:	645a      	str	r2, [r3, #68]	@ 0x44
 8018218:	6b1a      	ldr	r2, [r3, #48]	@ 0x30
 801821a:	f042 0203 	orr.w	r2, r2, #3
 801821e:	631a      	str	r2, [r3, #48]	@ 0x30
 8018220:	4c12      	ldr	r4, [pc, #72]	@ (801826c <hal_w25q_spi_init+0x60>)
 8018222:	f240 32a5 	movw	r2, #933	@ 0x3a5
 8018226:	2105      	movs	r1, #5
 8018228:	4620      	mov	r0, r4
 801822a:	f7fa fb21 	bl	8012870 <hw_cfg_pin>
 801822e:	f240 32a5 	movw	r2, #933	@ 0x3a5
 8018232:	2106      	movs	r1, #6
 8018234:	4620      	mov	r0, r4
 8018236:	f7fa fb1b 	bl	8012870 <hw_cfg_pin>
 801823a:	f240 32a5 	movw	r2, #933	@ 0x3a5
 801823e:	2107      	movs	r1, #7
 8018240:	4620      	mov	r0, r4
 8018242:	f7fa fb15 	bl	8012870 <hw_cfg_pin>
 8018246:	f44f 7264 	mov.w	r2, #912	@ 0x390
 801824a:	2104      	movs	r1, #4
 801824c:	4620      	mov	r0, r4
 801824e:	f7fa fb0f 	bl	8012870 <hw_cfg_pin>
 8018252:	4b07      	ldr	r3, [pc, #28]	@ (8018270 <hal_w25q_spi_init+0x64>)
 8018254:	f44f 7259 	mov.w	r2, #868	@ 0x364
 8018258:	601a      	str	r2, [r3, #0]
 801825a:	2201      	movs	r2, #1
 801825c:	2104      	movs	r1, #4
 801825e:	4620      	mov	r0, r4
 8018260:	f7fa fb50 	bl	8012904 <hw_set_pin>
 8018264:	bd10      	pop	{r4, pc}
 8018266:	bf00      	nop
 8018268:	40023800 	.word	0x40023800
 801826c:	40020000 	.word	0x40020000
 8018270:	40013000 	.word	0x40013000

08018274 <hal_w25q_spi_select>:
 8018274:	b508      	push	{r3, lr}
 8018276:	2200      	movs	r2, #0
 8018278:	2104      	movs	r1, #4
 801827a:	4802      	ldr	r0, [pc, #8]	@ (8018284 <hal_w25q_spi_select+0x10>)
 801827c:	f7fa fb42 	bl	8012904 <hw_set_pin>
 8018280:	bd08      	pop	{r3, pc}
 8018282:	bf00      	nop
 8018284:	40020000 	.word	0x40020000

08018288 <hal_w25q_spi_release>:
 8018288:	b508      	push	{r3, lr}
 801828a:	2201      	movs	r2, #1
 801828c:	2104      	movs	r1, #4
 801828e:	4802      	ldr	r0, [pc, #8]	@ (8018298 <hal_w25q_spi_release+0x10>)
 8018290:	f7fa fb38 	bl	8012904 <hw_set_pin>
 8018294:	bd08      	pop	{r3, pc}
 8018296:	bf00      	nop
 8018298:	40020000 	.word	0x40020000

0801829c <hal_w25q_spi_txrx>:
 801829c:	4b07      	ldr	r3, [pc, #28]	@ (80182bc <hal_w25q_spi_txrx+0x20>)
 801829e:	689b      	ldr	r3, [r3, #8]
 80182a0:	f013 0f02 	tst.w	r3, #2
 80182a4:	d0fa      	beq.n	801829c <hal_w25q_spi_txrx>
 80182a6:	4b05      	ldr	r3, [pc, #20]	@ (80182bc <hal_w25q_spi_txrx+0x20>)
 80182a8:	60d8      	str	r0, [r3, #12]
 80182aa:	4b04      	ldr	r3, [pc, #16]	@ (80182bc <hal_w25q_spi_txrx+0x20>)
 80182ac:	689b      	ldr	r3, [r3, #8]
 80182ae:	f013 0f01 	tst.w	r3, #1
 80182b2:	d0fa      	beq.n	80182aa <hal_w25q_spi_txrx+0xe>
 80182b4:	4b01      	ldr	r3, [pc, #4]	@ (80182bc <hal_w25q_spi_txrx+0x20>)
 80182b6:	68d8      	ldr	r0, [r3, #12]
 80182b8:	b2c0      	uxtb	r0, r0
 80182ba:	4770      	bx	lr
 80182bc:	40013000 	.word	0x40013000

080182c0 <hal_sd_spi_init>:
 80182c0:	b510      	push	{r4, lr}
 80182c2:	4b16      	ldr	r3, [pc, #88]	@ (801831c <hal_sd_spi_init+0x5c>)
 80182c4:	6c1a      	ldr	r2, [r3, #64]	@ 0x40
 80182c6:	f442 4280 	orr.w	r2, r2, #16384	@ 0x4000
 80182ca:	641a      	str	r2, [r3, #64]	@ 0x40
 80182cc:	6b1a      	ldr	r2, [r3, #48]	@ 0x30
 80182ce:	f042 0202 	orr.w	r2, r2, #2
 80182d2:	631a      	str	r2, [r3, #48]	@ 0x30
 80182d4:	4c12      	ldr	r4, [pc, #72]	@ (8018320 <hal_sd_spi_init+0x60>)
 80182d6:	f240 32a5 	movw	r2, #933	@ 0x3a5
 80182da:	210d      	movs	r1, #13
 80182dc:	4620      	mov	r0, r4
 80182de:	f7fa fac7 	bl	8012870 <hw_cfg_pin>
 80182e2:	f240 32a5 	movw	r2, #933	@ 0x3a5
 80182e6:	210e      	movs	r1, #14
 80182e8:	4620      	mov	r0, r4
 80182ea:	f7fa fac1 	bl	8012870 <hw_cfg_pin>
 80182ee:	f240 32a5 	movw	r2, #933	@ 0x3a5
 80182f2:	210f      	movs	r1, #15
 80182f4:	4620      	mov	r0, r4
 80182f6:	f7fa fabb 	bl	8012870 <hw_cfg_pin>
 80182fa:	f44f 7264 	mov.w	r2, #912	@ 0x390
 80182fe:	210c      	movs	r1, #12
 8018300:	4620      	mov	r0, r4
 8018302:	f7fa fab5 	bl	8012870 <hw_cfg_pin>
 8018306:	4b07      	ldr	r3, [pc, #28]	@ (8018324 <hal_sd_spi_init+0x64>)
 8018308:	f44f 7259 	mov.w	r2, #868	@ 0x364
 801830c:	601a      	str	r2, [r3, #0]
 801830e:	2201      	movs	r2, #1
 8018310:	210c      	movs	r1, #12
 8018312:	4620      	mov	r0, r4
 8018314:	f7fa faf6 	bl	8012904 <hw_set_pin>
 8018318:	bd10      	pop	{r4, pc}
 801831a:	bf00      	nop
 801831c:	40023800 	.word	0x40023800
 8018320:	40020400 	.word	0x40020400
 8018324:	40003800 	.word	0x40003800

08018328 <hal_sd_spi_select>:
 8018328:	b508      	push	{r3, lr}
 801832a:	2200      	movs	r2, #0
 801832c:	210c      	movs	r1, #12
 801832e:	4802      	ldr	r0, [pc, #8]	@ (8018338 <hal_sd_spi_select+0x10>)
 8018330:	f7fa fae8 	bl	8012904 <hw_set_pin>
 8018334:	bd08      	pop	{r3, pc}
 8018336:	bf00      	nop
 8018338:	40020400 	.word	0x40020400

0801833c <hal_sd_spi_release>:
 801833c:	b508      	push	{r3, lr}
 801833e:	2201      	movs	r2, #1
 8018340:	210c      	movs	r1, #12
 8018342:	4802      	ldr	r0, [pc, #8]	@ (801834c <hal_sd_spi_release+0x10>)
 8018344:	f7fa fade 	bl	8012904 <hw_set_pin>
 8018348:	bd08      	pop	{r3, pc}
 801834a:	bf00      	nop
 801834c:	40020400 	.word	0x40020400

08018350 <hal_sd_spi_txrx>:
 8018350:	4b07      	ldr	r3, [pc, #28]	@ (8018370 <hal_sd_spi_txrx+0x20>)
 8018352:	689b      	ldr	r3, [r3, #8]
 8018354:	f013 0f02 	tst.w	r3, #2
 8018358:	d0fa      	beq.n	8018350 <hal_sd_spi_txrx>
 801835a:	4b05      	ldr	r3, [pc, #20]	@ (8018370 <hal_sd_spi_txrx+0x20>)
 801835c:	60d8      	str	r0, [r3, #12]
 801835e:	4b04      	ldr	r3, [pc, #16]	@ (8018370 <hal_sd_spi_txrx+0x20>)
 8018360:	689b      	ldr	r3, [r3, #8]
 8018362:	f013 0f01 	tst.w	r3, #1
 8018366:	d0fa      	beq.n	801835e <hal_sd_spi_txrx+0xe>
 8018368:	4b01      	ldr	r3, [pc, #4]	@ (8018370 <hal_sd_spi_txrx+0x20>)
 801836a:	68d8      	ldr	r0, [r3, #12]
 801836c:	b2c0      	uxtb	r0, r0
 801836e:	4770      	bx	lr
 8018370:	40003800 	.word	0x40003800

08018374 <hal_sd_spi_slow>:
 8018374:	4b02      	ldr	r3, [pc, #8]	@ (8018380 <hal_sd_spi_slow+0xc>)
 8018376:	f44f 725f 	mov.w	r2, #892	@ 0x37c
 801837a:	601a      	str	r2, [r3, #0]
 801837c:	4770      	bx	lr
 801837e:	bf00      	nop
 8018380:	40003800 	.word	0x40003800

08018384 <hal_sd_spi_fast>:
 8018384:	4b02      	ldr	r3, [pc, #8]	@ (8018390 <hal_sd_spi_fast+0xc>)
 8018386:	f44f 7253 	mov.w	r2, #844	@ 0x34c
 801838a:	601a      	str	r2, [r3, #0]
 801838c:	4770      	bx	lr
 801838e:	bf00      	nop
 8018390:	40003800 	.word	0x40003800

08018394 <TIM2_Handler>:
 8018394:	f04f 4280 	mov.w	r2, #1073741824	@ 0x40000000
 8018398:	6913      	ldr	r3, [r2, #16]
 801839a:	f023 0301 	bic.w	r3, r3, #1
 801839e:	6113      	str	r3, [r2, #16]
 80183a0:	4a15      	ldr	r2, [pc, #84]	@ (80183f8 <TIM2_Handler+0x64>)
 80183a2:	6813      	ldr	r3, [r2, #0]
 80183a4:	3301      	adds	r3, #1
 80183a6:	6013      	str	r3, [r2, #0]
 80183a8:	4b14      	ldr	r3, [pc, #80]	@ (80183fc <TIM2_Handler+0x68>)
 80183aa:	681b      	ldr	r3, [r3, #0]
 80183ac:	b903      	cbnz	r3, 80183b0 <TIM2_Handler+0x1c>
 80183ae:	4770      	bx	lr
 80183b0:	b510      	push	{r4, lr}
 80183b2:	4813      	ldr	r0, [pc, #76]	@ (8018400 <TIM2_Handler+0x6c>)
 80183b4:	f000 fa7f 	bl	80188b6 <queue_peek>
 80183b8:	b178      	cbz	r0, 80183da <TIM2_Handler+0x46>
 80183ba:	6a02      	ldr	r2, [r0, #32]
 80183bc:	4b0e      	ldr	r3, [pc, #56]	@ (80183f8 <TIM2_Handler+0x64>)
 80183be:	681b      	ldr	r3, [r3, #0]
 80183c0:	429a      	cmp	r2, r3
 80183c2:	d80a      	bhi.n	80183da <TIM2_Handler+0x46>
 80183c4:	4c0e      	ldr	r4, [pc, #56]	@ (8018400 <TIM2_Handler+0x6c>)
 80183c6:	4620      	mov	r0, r4
 80183c8:	f000 fa6c 	bl	80188a4 <queue_pop>
 80183cc:	7f00      	ldrb	r0, [r0, #28]
 80183ce:	f000 f933 	bl	8018638 <ready>
 80183d2:	4620      	mov	r0, r4
 80183d4:	f000 fa6f 	bl	80188b6 <queue_peek>
 80183d8:	e7ee      	b.n	80183b8 <TIM2_Handler+0x24>
 80183da:	4a0a      	ldr	r2, [pc, #40]	@ (8018404 <TIM2_Handler+0x70>)
 80183dc:	6813      	ldr	r3, [r2, #0]
 80183de:	3b01      	subs	r3, #1
 80183e0:	6013      	str	r3, [r2, #0]
 80183e2:	b943      	cbnz	r3, 80183f6 <TIM2_Handler+0x62>
 80183e4:	4613      	mov	r3, r2
 80183e6:	220a      	movs	r2, #10
 80183e8:	601a      	str	r2, [r3, #0]
 80183ea:	f04f 23e0 	mov.w	r3, #3758153728	@ 0xe000e000
 80183ee:	f04f 5280 	mov.w	r2, #268435456	@ 0x10000000
 80183f2:	f8c3 2d04 	str.w	r2, [r3, #3332]	@ 0xd04
 80183f6:	bd10      	pop	{r4, pc}
 80183f8:	20002790 	.word	0x20002790
 80183fc:	200027b8 	.word	0x200027b8
 8018400:	20002794 	.word	0x20002794
 8018404:	200027a4 	.word	0x200027a4

08018408 <clkinit>:
 8018408:	4a0c      	ldr	r2, [pc, #48]	@ (801843c <clkinit+0x34>)
 801840a:	6c13      	ldr	r3, [r2, #64]	@ 0x40
 801840c:	f043 0301 	orr.w	r3, r3, #1
 8018410:	6413      	str	r3, [r2, #64]	@ 0x40
 8018412:	f04f 4380 	mov.w	r3, #1073741824	@ 0x40000000
 8018416:	681a      	ldr	r2, [r3, #0]
 8018418:	f042 0204 	orr.w	r2, r2, #4
 801841c:	601a      	str	r2, [r3, #0]
 801841e:	2207      	movs	r2, #7
 8018420:	629a      	str	r2, [r3, #40]	@ 0x28
 8018422:	f44f 5280 	mov.w	r2, #4096	@ 0x1000
 8018426:	62da      	str	r2, [r3, #44]	@ 0x2c
 8018428:	68da      	ldr	r2, [r3, #12]
 801842a:	f042 0201 	orr.w	r2, r2, #1
 801842e:	60da      	str	r2, [r3, #12]
 8018430:	4b03      	ldr	r3, [pc, #12]	@ (8018440 <clkinit+0x38>)
 8018432:	f04f 5280 	mov.w	r2, #268435456	@ 0x10000000
 8018436:	601a      	str	r2, [r3, #0]
 8018438:	4770      	bx	lr
 801843a:	bf00      	nop
 801843c:	40023800 	.word	0x40023800
 8018440:	e000e100 	.word	0xe000e100

08018444 <newpid>:
 8018444:	2000      	movs	r0, #0
 8018446:	4603      	mov	r3, r0
 8018448:	2b0b      	cmp	r3, #11
 801844a:	d807      	bhi.n	801845c <newpid+0x18>
 801844c:	4a05      	ldr	r2, [pc, #20]	@ (8018464 <newpid+0x20>)
 801844e:	eb02 1283 	add.w	r2, r2, r3, lsl #6
 8018452:	7f92      	ldrb	r2, [r2, #30]
 8018454:	b122      	cbz	r2, 8018460 <newpid+0x1c>
 8018456:	3001      	adds	r0, #1
 8018458:	3301      	adds	r3, #1
 801845a:	e7f5      	b.n	8018448 <newpid+0x4>
 801845c:	f04f 30ff 	mov.w	r0, #4294967295	@ 0xffffffff
 8018460:	4770      	bx	lr
 8018462:	bf00      	nop
 8018464:	2000248c 	.word	0x2000248c

08018468 <cmcm_push_context>:
 8018468:	f3ef 8009 	mrs	r0, PSP
 801846c:	e920 0ff0 	stmdb	r0!, {r4, r5, r6, r7, r8, r9, sl, fp}
 8018470:	f380 8809 	msr	PSP, r0
 8018474:	4770      	bx	lr

08018476 <cmcm_pop_context>:
 8018476:	e8b0 0ff0 	ldmia.w	r0!, {r4, r5, r6, r7, r8, r9, sl, fp}
 801847a:	f380 8809 	msr	PSP, r0
 801847e:	4770      	bx	lr

08018480 <sleep>:
 8018480:	b538      	push	{r3, r4, r5, lr}
 8018482:	4604      	mov	r4, r0
 8018484:	f001 fac0 	bl	8019a08 <irq_disable>
 8018488:	4605      	mov	r5, r0
 801848a:	b94c      	cbnz	r4, 80184a0 <sleep+0x20>
 801848c:	4628      	mov	r0, r5
 801848e:	f001 fabf 	bl	8019a10 <irq_restore>
 8018492:	f04f 23e0 	mov.w	r3, #3758153728	@ 0xe000e000
 8018496:	f04f 5280 	mov.w	r2, #268435456	@ 0x10000000
 801849a:	f8c3 2d04 	str.w	r2, [r3, #3332]	@ 0xd04
 801849e:	bd38      	pop	{r3, r4, r5, pc}
 80184a0:	4806      	ldr	r0, [pc, #24]	@ (80184bc <sleep+0x3c>)
 80184a2:	f8d0 1300 	ldr.w	r1, [r0, #768]	@ 0x300
 80184a6:	2304      	movs	r3, #4
 80184a8:	778b      	strb	r3, [r1, #30]
 80184aa:	f8d0 3304 	ldr.w	r3, [r0, #772]	@ 0x304
 80184ae:	441c      	add	r4, r3
 80184b0:	620c      	str	r4, [r1, #32]
 80184b2:	f500 7042 	add.w	r0, r0, #776	@ 0x308
 80184b6:	f000 f9d5 	bl	8018864 <queue_pushsort>
 80184ba:	e7e7      	b.n	801848c <sleep+0xc>
 80184bc:	2000248c 	.word	0x2000248c

080184c0 <ilde>:
 80184c0:	b508      	push	{r3, lr}
 80184c2:	4806      	ldr	r0, [pc, #24]	@ (80184dc <ilde+0x1c>)
 80184c4:	f7f8 fbde 	bl	8010c84 <kprintf>
 80184c8:	210d      	movs	r1, #13
 80184ca:	4805      	ldr	r0, [pc, #20]	@ (80184e0 <ilde+0x20>)
 80184cc:	f7fa fa34 	bl	8012938 <hw_toggle_pin>
 80184d0:	f44f 70fa 	mov.w	r0, #500	@ 0x1f4
 80184d4:	f7ff ffd4 	bl	8018480 <sleep>
 80184d8:	e7f6      	b.n	80184c8 <ilde+0x8>
 80184da:	bf00      	nop
 80184dc:	0801a2dc 	.word	0x0801a2dc
 80184e0:	40020800 	.word	0x40020800

080184e4 <kill>:
 80184e4:	b5f8      	push	{r3, r4, r5, r6, r7, lr}
 80184e6:	4605      	mov	r5, r0
 80184e8:	f001 fa8e 	bl	8019a08 <irq_disable>
 80184ec:	4606      	mov	r6, r0
 80184ee:	4b31      	ldr	r3, [pc, #196]	@ (80185b4 <kill+0xd0>)
 80184f0:	01aa      	lsls	r2, r5, #6
 80184f2:	eb03 1485 	add.w	r4, r3, r5, lsl #6
 80184f6:	5898      	ldr	r0, [r3, r2]
 80184f8:	f7f8 fcb6 	bl	8010e68 <free>
 80184fc:	f894 3034 	ldrb.w	r3, [r4, #52]	@ 0x34
 8018500:	b97b      	cbnz	r3, 8018522 <kill+0x3e>
 8018502:	4b2c      	ldr	r3, [pc, #176]	@ (80185b4 <kill+0xd0>)
 8018504:	eb03 1385 	add.w	r3, r3, r5, lsl #6
 8018508:	7f9b      	ldrb	r3, [r3, #30]
 801850a:	2b02      	cmp	r3, #2
 801850c:	d037      	beq.n	801857e <kill+0x9a>
 801850e:	2b04      	cmp	r3, #4
 8018510:	d01a      	beq.n	8018548 <kill+0x64>
 8018512:	2b01      	cmp	r3, #1
 8018514:	d00f      	beq.n	8018536 <kill+0x52>
 8018516:	4b27      	ldr	r3, [pc, #156]	@ (80185b4 <kill+0xd0>)
 8018518:	eb03 1385 	add.w	r3, r3, r5, lsl #6
 801851c:	2200      	movs	r2, #0
 801851e:	779a      	strb	r2, [r3, #30]
 8018520:	e00e      	b.n	8018540 <kill+0x5c>
 8018522:	4c24      	ldr	r4, [pc, #144]	@ (80185b4 <kill+0xd0>)
 8018524:	eb04 1485 	add.w	r4, r4, r5, lsl #6
 8018528:	6ba0      	ldr	r0, [r4, #56]	@ 0x38
 801852a:	f7f8 fc9d 	bl	8010e68 <free>
 801852e:	2300      	movs	r3, #0
 8018530:	f884 3034 	strb.w	r3, [r4, #52]	@ 0x34
 8018534:	e7e5      	b.n	8018502 <kill+0x1e>
 8018536:	4b1f      	ldr	r3, [pc, #124]	@ (80185b4 <kill+0xd0>)
 8018538:	eb03 1385 	add.w	r3, r3, r5, lsl #6
 801853c:	2200      	movs	r2, #0
 801853e:	779a      	strb	r2, [r3, #30]
 8018540:	4630      	mov	r0, r6
 8018542:	f001 fa65 	bl	8019a10 <irq_restore>
 8018546:	bdf8      	pop	{r3, r4, r5, r6, r7, pc}
 8018548:	481b      	ldr	r0, [pc, #108]	@ (80185b8 <kill+0xd4>)
 801854a:	f000 f9b4 	bl	80188b6 <queue_peek>
 801854e:	4604      	mov	r4, r0
 8018550:	e003      	b.n	801855a <kill+0x76>
 8018552:	4601      	mov	r1, r0
 8018554:	4818      	ldr	r0, [pc, #96]	@ (80185b8 <kill+0xd4>)
 8018556:	f000 f979 	bl	801884c <queue_push>
 801855a:	7fa3      	ldrb	r3, [r4, #30]
 801855c:	2b04      	cmp	r3, #4
 801855e:	d1ef      	bne.n	8018540 <kill+0x5c>
 8018560:	4f14      	ldr	r7, [pc, #80]	@ (80185b4 <kill+0xd0>)
 8018562:	f507 7042 	add.w	r0, r7, #776	@ 0x308
 8018566:	f000 f99d 	bl	80188a4 <queue_pop>
 801856a:	4604      	mov	r4, r0
 801856c:	7f02      	ldrb	r2, [r0, #28]
 801856e:	eb07 1785 	add.w	r7, r7, r5, lsl #6
 8018572:	7f3b      	ldrb	r3, [r7, #28]
 8018574:	429a      	cmp	r2, r3
 8018576:	d1ec      	bne.n	8018552 <kill+0x6e>
 8018578:	2300      	movs	r3, #0
 801857a:	7783      	strb	r3, [r0, #30]
 801857c:	e7e0      	b.n	8018540 <kill+0x5c>
 801857e:	480f      	ldr	r0, [pc, #60]	@ (80185bc <kill+0xd8>)
 8018580:	f000 f999 	bl	80188b6 <queue_peek>
 8018584:	4604      	mov	r4, r0
 8018586:	e003      	b.n	8018590 <kill+0xac>
 8018588:	4601      	mov	r1, r0
 801858a:	480c      	ldr	r0, [pc, #48]	@ (80185bc <kill+0xd8>)
 801858c:	f000 f95e 	bl	801884c <queue_push>
 8018590:	7fa3      	ldrb	r3, [r4, #30]
 8018592:	2b02      	cmp	r3, #2
 8018594:	d1d4      	bne.n	8018540 <kill+0x5c>
 8018596:	4f07      	ldr	r7, [pc, #28]	@ (80185b4 <kill+0xd0>)
 8018598:	f507 7044 	add.w	r0, r7, #784	@ 0x310
 801859c:	f000 f982 	bl	80188a4 <queue_pop>
 80185a0:	4604      	mov	r4, r0
 80185a2:	7f02      	ldrb	r2, [r0, #28]
 80185a4:	eb07 1785 	add.w	r7, r7, r5, lsl #6
 80185a8:	7f3b      	ldrb	r3, [r7, #28]
 80185aa:	429a      	cmp	r2, r3
 80185ac:	d1ec      	bne.n	8018588 <kill+0xa4>
 80185ae:	2300      	movs	r3, #0
 80185b0:	7783      	strb	r3, [r0, #30]
 80185b2:	e7c5      	b.n	8018540 <kill+0x5c>
 80185b4:	2000248c 	.word	0x2000248c
 80185b8:	20002794 	.word	0x20002794
 80185bc:	2000279c 	.word	0x2000279c

080185c0 <getpid>:
 80185c0:	4b02      	ldr	r3, [pc, #8]	@ (80185cc <getpid+0xc>)
 80185c2:	f8d3 3300 	ldr.w	r3, [r3, #768]	@ 0x300
 80185c6:	7f18      	ldrb	r0, [r3, #28]
 80185c8:	4770      	bx	lr
 80185ca:	bf00      	nop
 80185cc:	2000248c 	.word	0x2000248c

080185d0 <killer>:
 80185d0:	b508      	push	{r3, lr}
 80185d2:	f7ff fff5 	bl	80185c0 <getpid>
 80185d6:	f7ff ff85 	bl	80184e4 <kill>
 80185da:	f04f 23e0 	mov.w	r3, #3758153728	@ 0xe000e000
 80185de:	f04f 5280 	mov.w	r2, #268435456	@ 0x10000000
 80185e2:	f8c3 2d04 	str.w	r2, [r3, #3332]	@ 0xd04
 80185e6:	e7fe      	b.n	80185e6 <killer+0x16>

080185e8 <PendSV_Handler>:
 80185e8:	f7ff ff3e 	bl	8018468 <cmcm_push_context>
 80185ec:	4604      	mov	r4, r0
 80185ee:	4b10      	ldr	r3, [pc, #64]	@ (8018630 <PendSV_Handler+0x48>)
 80185f0:	f8d3 6300 	ldr.w	r6, [r3, #768]	@ 0x300
 80185f4:	7fb3      	ldrb	r3, [r6, #30]
 80185f6:	2b01      	cmp	r3, #1
 80185f8:	d012      	beq.n	8018620 <PendSV_Handler+0x38>
 80185fa:	4d0d      	ldr	r5, [pc, #52]	@ (8018630 <PendSV_Handler+0x48>)
 80185fc:	f505 7044 	add.w	r0, r5, #784	@ 0x310
 8018600:	f000 f950 	bl	80188a4 <queue_pop>
 8018604:	f8c5 0300 	str.w	r0, [r5, #768]	@ 0x300
 8018608:	2301      	movs	r3, #1
 801860a:	7783      	strb	r3, [r0, #30]
 801860c:	230a      	movs	r3, #10
 801860e:	f8c5 3318 	str.w	r3, [r5, #792]	@ 0x318
 8018612:	6074      	str	r4, [r6, #4]
 8018614:	6840      	ldr	r0, [r0, #4]
 8018616:	f7ff ff2e 	bl	8018476 <cmcm_pop_context>
 801861a:	f06f 0302 	mvn.w	r3, #2
 801861e:	4718      	bx	r3
 8018620:	2302      	movs	r3, #2
 8018622:	77b3      	strb	r3, [r6, #30]
 8018624:	4631      	mov	r1, r6
 8018626:	4803      	ldr	r0, [pc, #12]	@ (8018634 <PendSV_Handler+0x4c>)
 8018628:	f000 f910 	bl	801884c <queue_push>
 801862c:	e7e5      	b.n	80185fa <PendSV_Handler+0x12>
 801862e:	bf00      	nop
 8018630:	2000248c 	.word	0x2000248c
 8018634:	2000279c 	.word	0x2000279c

08018638 <ready>:
 8018638:	b508      	push	{r3, lr}
 801863a:	4b05      	ldr	r3, [pc, #20]	@ (8018650 <ready+0x18>)
 801863c:	eb03 1180 	add.w	r1, r3, r0, lsl #6
 8018640:	2201      	movs	r2, #1
 8018642:	778a      	strb	r2, [r1, #30]
 8018644:	f503 7044 	add.w	r0, r3, #784	@ 0x310
 8018648:	f000 f900 	bl	801884c <queue_push>
 801864c:	bd08      	pop	{r3, pc}
 801864e:	bf00      	nop
 8018650:	2000248c 	.word	0x2000248c

08018654 <create>:
 8018654:	e92d 4ff0 	stmdb	sp!, {r4, r5, r6, r7, r8, r9, sl, fp, lr}
 8018658:	b085      	sub	sp, #20
 801865a:	9001      	str	r0, [sp, #4]
 801865c:	460f      	mov	r7, r1
 801865e:	469a      	mov	sl, r3
 8018660:	f8dd 8038 	ldr.w	r8, [sp, #56]	@ 0x38
 8018664:	f001 f9d0 	bl	8019a08 <irq_disable>
 8018668:	4681      	mov	r9, r0
 801866a:	f7ff feeb 	bl	8018444 <newpid>
 801866e:	4606      	mov	r6, r0
 8018670:	4638      	mov	r0, r7
 8018672:	f7f8 fbd9 	bl	8010e28 <malloc>
 8018676:	4605      	mov	r5, r0
 8018678:	463a      	mov	r2, r7
 801867a:	2100      	movs	r1, #0
 801867c:	f7f9 ff8b 	bl	8012596 <memset>
 8018680:	b1bd      	cbz	r5, 80186b2 <create+0x5e>
 8018682:	4823      	ldr	r0, [pc, #140]	@ (8018710 <create+0xbc>)
 8018684:	01b3      	lsls	r3, r6, #6
 8018686:	eb00 1b86 	add.w	fp, r0, r6, lsl #6
 801868a:	2400      	movs	r4, #0
 801868c:	f88b 4034 	strb.w	r4, [fp, #52]	@ 0x34
 8018690:	2205      	movs	r2, #5
 8018692:	f88b 201e 	strb.w	r2, [fp, #30]
 8018696:	50c5      	str	r5, [r0, r3]
 8018698:	f8cb 7008 	str.w	r7, [fp, #8]
 801869c:	3320      	adds	r3, #32
 801869e:	4418      	add	r0, r3
 80186a0:	4651      	mov	r1, sl
 80186a2:	3004      	adds	r0, #4
 80186a4:	f7fa f85d 	bl	8012762 <strcpy>
 80186a8:	f88b 601c 	strb.w	r6, [fp, #28]
 80186ac:	ab0f      	add	r3, sp, #60	@ 0x3c
 80186ae:	9303      	str	r3, [sp, #12]
 80186b0:	e00f      	b.n	80186d2 <create+0x7e>
 80186b2:	4818      	ldr	r0, [pc, #96]	@ (8018714 <create+0xc0>)
 80186b4:	f001 f8cc 	bl	8019850 <panic>
 80186b8:	e7fe      	b.n	80186b8 <create+0x64>
 80186ba:	9b03      	ldr	r3, [sp, #12]
 80186bc:	1d1a      	adds	r2, r3, #4
 80186be:	9203      	str	r2, [sp, #12]
 80186c0:	6819      	ldr	r1, [r3, #0]
 80186c2:	eb04 1206 	add.w	r2, r4, r6, lsl #4
 80186c6:	3202      	adds	r2, #2
 80186c8:	4b11      	ldr	r3, [pc, #68]	@ (8018710 <create+0xbc>)
 80186ca:	eb03 0382 	add.w	r3, r3, r2, lsl #2
 80186ce:	6059      	str	r1, [r3, #4]
 80186d0:	3401      	adds	r4, #1
 80186d2:	4544      	cmp	r4, r8
 80186d4:	dbf1      	blt.n	80186ba <create+0x66>
 80186d6:	443d      	add	r5, r7
 80186d8:	4b0d      	ldr	r3, [pc, #52]	@ (8018710 <create+0xbc>)
 80186da:	01b2      	lsls	r2, r6, #6
 80186dc:	eb03 1186 	add.w	r1, r3, r6, lsl #6
 80186e0:	604d      	str	r5, [r1, #4]
 80186e2:	3d40      	subs	r5, #64	@ 0x40
 80186e4:	604d      	str	r5, [r1, #4]
 80186e6:	f8c5 8020 	str.w	r8, [r5, #32]
 80186ea:	3208      	adds	r2, #8
 80186ec:	4413      	add	r3, r2
 80186ee:	3304      	adds	r3, #4
 80186f0:	626b      	str	r3, [r5, #36]	@ 0x24
 80186f2:	4b09      	ldr	r3, [pc, #36]	@ (8018718 <create+0xc4>)
 80186f4:	636b      	str	r3, [r5, #52]	@ 0x34
 80186f6:	9b01      	ldr	r3, [sp, #4]
 80186f8:	63ab      	str	r3, [r5, #56]	@ 0x38
 80186fa:	f04f 7380 	mov.w	r3, #16777216	@ 0x1000000
 80186fe:	63eb      	str	r3, [r5, #60]	@ 0x3c
 8018700:	4648      	mov	r0, r9
 8018702:	f001 f985 	bl	8019a10 <irq_restore>
 8018706:	4630      	mov	r0, r6
 8018708:	b005      	add	sp, #20
 801870a:	e8bd 8ff0 	ldmia.w	sp!, {r4, r5, r6, r7, r8, r9, sl, fp, pc}
 801870e:	bf00      	nop
 8018710:	2000248c 	.word	0x2000248c
 8018714:	0801a2ec 	.word	0x0801a2ec
 8018718:	080185d1 	.word	0x080185d1

0801871c <nullp>:
 801871c:	b510      	push	{r4, lr}
 801871e:	b082      	sub	sp, #8
 8018720:	2400      	movs	r4, #0
 8018722:	9400      	str	r4, [sp, #0]
 8018724:	4b0c      	ldr	r3, [pc, #48]	@ (8018758 <nullp+0x3c>)
 8018726:	2201      	movs	r2, #1
 8018728:	f44f 7100 	mov.w	r1, #512	@ 0x200
 801872c:	480b      	ldr	r0, [pc, #44]	@ (801875c <nullp+0x40>)
 801872e:	f7ff ff91 	bl	8018654 <create>
 8018732:	f7ff ff81 	bl	8018638 <ready>
 8018736:	9400      	str	r4, [sp, #0]
 8018738:	4b09      	ldr	r3, [pc, #36]	@ (8018760 <nullp+0x44>)
 801873a:	2201      	movs	r2, #1
 801873c:	f44f 5180 	mov.w	r1, #4096	@ 0x1000
 8018740:	4808      	ldr	r0, [pc, #32]	@ (8018764 <nullp+0x48>)
 8018742:	f7ff ff87 	bl	8018654 <create>
 8018746:	f7ff ff77 	bl	8018638 <ready>
 801874a:	4807      	ldr	r0, [pc, #28]	@ (8018768 <nullp+0x4c>)
 801874c:	f7f8 fa9a 	bl	8010c84 <kprintf>
 8018750:	4620      	mov	r0, r4
 8018752:	b002      	add	sp, #8
 8018754:	bd10      	pop	{r4, pc}
 8018756:	bf00      	nop
 8018758:	0801a304 	.word	0x0801a304
 801875c:	080184c1 	.word	0x080184c1
 8018760:	0801a30c 	.word	0x0801a30c
 8018764:	08018eb5 	.word	0x08018eb5
 8018768:	0801a310 	.word	0x0801a310

0801876c <ilde3>:
 801876c:	e7fe      	b.n	801876c <ilde3>

0801876e <ilde2>:
 801876e:	b508      	push	{r3, lr}
 8018770:	f44f 707a 	mov.w	r0, #1000	@ 0x3e8
 8018774:	f7ff fe84 	bl	8018480 <sleep>
 8018778:	e7fa      	b.n	8018770 <ilde2+0x2>

0801877a <init_kernel>:
 801877a:	b530      	push	{r4, r5, lr}
 801877c:	b083      	sub	sp, #12
 801877e:	4d29      	ldr	r5, [pc, #164]	@ (8018824 <init_kernel+0xaa>)
 8018780:	230a      	movs	r3, #10
 8018782:	f8c5 3318 	str.w	r3, [r5, #792]	@ 0x318
 8018786:	2400      	movs	r4, #0
 8018788:	f8c5 4300 	str.w	r4, [r5, #768]	@ 0x300
 801878c:	f505 7044 	add.w	r0, r5, #784	@ 0x310
 8018790:	f000 f858 	bl	8018844 <queue_init>
 8018794:	f505 7042 	add.w	r0, r5, #776	@ 0x308
 8018798:	f000 f854 	bl	8018844 <queue_init>
 801879c:	2101      	movs	r1, #1
 801879e:	4822      	ldr	r0, [pc, #136]	@ (8018828 <init_kernel+0xae>)
 80187a0:	f000 f88b 	bl	80188ba <sem_init>
 80187a4:	4622      	mov	r2, r4
 80187a6:	e008      	b.n	80187ba <init_kernel+0x40>
 80187a8:	4b1e      	ldr	r3, [pc, #120]	@ (8018824 <init_kernel+0xaa>)
 80187aa:	eb03 1382 	add.w	r3, r3, r2, lsl #6
 80187ae:	2100      	movs	r1, #0
 80187b0:	7799      	strb	r1, [r3, #30]
 80187b2:	f883 1034 	strb.w	r1, [r3, #52]	@ 0x34
 80187b6:	6399      	str	r1, [r3, #56]	@ 0x38
 80187b8:	3201      	adds	r2, #1
 80187ba:	2a0b      	cmp	r2, #11
 80187bc:	ddf4      	ble.n	80187a8 <init_kernel+0x2e>
 80187be:	f7ff fe23 	bl	8018408 <clkinit>
 80187c2:	2300      	movs	r3, #0
 80187c4:	9300      	str	r3, [sp, #0]
 80187c6:	4b19      	ldr	r3, [pc, #100]	@ (801882c <init_kernel+0xb2>)
 80187c8:	2201      	movs	r2, #1
 80187ca:	f44f 6100 	mov.w	r1, #2048	@ 0x800
 80187ce:	4818      	ldr	r0, [pc, #96]	@ (8018830 <init_kernel+0xb6>)
 80187d0:	f7ff ff40 	bl	8018654 <create>
 80187d4:	4c13      	ldr	r4, [pc, #76]	@ (8018824 <init_kernel+0xaa>)
 80187d6:	eb04 1080 	add.w	r0, r4, r0, lsl #6
 80187da:	f8c4 0300 	str.w	r0, [r4, #768]	@ 0x300
 80187de:	2501      	movs	r5, #1
 80187e0:	7785      	strb	r5, [r0, #30]
 80187e2:	4a14      	ldr	r2, [pc, #80]	@ (8018834 <init_kernel+0xba>)
 80187e4:	4914      	ldr	r1, [pc, #80]	@ (8018838 <init_kernel+0xbe>)
 80187e6:	4815      	ldr	r0, [pc, #84]	@ (801883c <init_kernel+0xc2>)
 80187e8:	f7f8 fa4c 	bl	8010c84 <kprintf>
 80187ec:	f001 f914 	bl	8019a18 <irq_enable>
 80187f0:	f04f 4280 	mov.w	r2, #1073741824	@ 0x40000000
 80187f4:	6813      	ldr	r3, [r2, #0]
 80187f6:	432b      	orrs	r3, r5
 80187f8:	6013      	str	r3, [r2, #0]
 80187fa:	4b11      	ldr	r3, [pc, #68]	@ (8018840 <init_kernel+0xc6>)
 80187fc:	601d      	str	r5, [r3, #0]
 80187fe:	f8d4 3300 	ldr.w	r3, [r4, #768]	@ 0x300
 8018802:	685b      	ldr	r3, [r3, #4]
 8018804:	4618      	mov	r0, r3
 8018806:	f380 8809 	msr	PSP, r0
 801880a:	e8b0 0ff0 	ldmia.w	r0!, {r4, r5, r6, r7, r8, r9, sl, fp}
 801880e:	f380 8809 	msr	PSP, r0
 8018812:	f04f 0002 	mov.w	r0, #2
 8018816:	f380 8814 	msr	CONTROL, r0
 801881a:	f3bf 8f6f 	isb	sy
 801881e:	f7ff ff7d 	bl	801871c <nullp>
 8018822:	e7fe      	b.n	8018822 <init_kernel+0xa8>
 8018824:	2000248c 	.word	0x2000248c
 8018828:	20000134 	.word	0x20000134
 801882c:	0801a320 	.word	0x0801a320
 8018830:	0801871d 	.word	0x0801871d
 8018834:	0801a328 	.word	0x0801a328
 8018838:	0801a334 	.word	0x0801a334
 801883c:	0801a340 	.word	0x0801a340
 8018840:	200027b8 	.word	0x200027b8

08018844 <queue_init>:
 8018844:	2300      	movs	r3, #0
 8018846:	6003      	str	r3, [r0, #0]
 8018848:	6043      	str	r3, [r0, #4]
 801884a:	4770      	bx	lr

0801884c <queue_push>:
 801884c:	6803      	ldr	r3, [r0, #0]
 801884e:	b12b      	cbz	r3, 801885c <queue_push+0x10>
 8018850:	2300      	movs	r3, #0
 8018852:	63cb      	str	r3, [r1, #60]	@ 0x3c
 8018854:	6843      	ldr	r3, [r0, #4]
 8018856:	63d9      	str	r1, [r3, #60]	@ 0x3c
 8018858:	6041      	str	r1, [r0, #4]
 801885a:	4770      	bx	lr
 801885c:	63cb      	str	r3, [r1, #60]	@ 0x3c
 801885e:	6001      	str	r1, [r0, #0]
 8018860:	6041      	str	r1, [r0, #4]
 8018862:	4770      	bx	lr

08018864 <queue_pushsort>:
 8018864:	6803      	ldr	r3, [r0, #0]
 8018866:	b14b      	cbz	r3, 801887c <queue_pushsort+0x18>
 8018868:	b410      	push	{r4}
 801886a:	6a0c      	ldr	r4, [r1, #32]
 801886c:	6a1a      	ldr	r2, [r3, #32]
 801886e:	4294      	cmp	r4, r2
 8018870:	d208      	bcs.n	8018884 <queue_pushsort+0x20>
 8018872:	63cb      	str	r3, [r1, #60]	@ 0x3c
 8018874:	6001      	str	r1, [r0, #0]
 8018876:	f85d 4b04 	ldr.w	r4, [sp], #4
 801887a:	4770      	bx	lr
 801887c:	6001      	str	r1, [r0, #0]
 801887e:	6041      	str	r1, [r0, #4]
 8018880:	63cb      	str	r3, [r1, #60]	@ 0x3c
 8018882:	4770      	bx	lr
 8018884:	469c      	mov	ip, r3
 8018886:	6bdb      	ldr	r3, [r3, #60]	@ 0x3c
 8018888:	b113      	cbz	r3, 8018890 <queue_pushsort+0x2c>
 801888a:	6a1a      	ldr	r2, [r3, #32]
 801888c:	4294      	cmp	r4, r2
 801888e:	d8f9      	bhi.n	8018884 <queue_pushsort+0x20>
 8018890:	b11b      	cbz	r3, 801889a <queue_pushsort+0x36>
 8018892:	63cb      	str	r3, [r1, #60]	@ 0x3c
 8018894:	f8cc 103c 	str.w	r1, [ip, #60]	@ 0x3c
 8018898:	e7ed      	b.n	8018876 <queue_pushsort+0x12>
 801889a:	f8cc 103c 	str.w	r1, [ip, #60]	@ 0x3c
 801889e:	63cb      	str	r3, [r1, #60]	@ 0x3c
 80188a0:	6041      	str	r1, [r0, #4]
 80188a2:	e7e8      	b.n	8018876 <queue_pushsort+0x12>

080188a4 <queue_pop>:
 80188a4:	4603      	mov	r3, r0
 80188a6:	6800      	ldr	r0, [r0, #0]
 80188a8:	b110      	cbz	r0, 80188b0 <queue_pop+0xc>
 80188aa:	6bc2      	ldr	r2, [r0, #60]	@ 0x3c
 80188ac:	601a      	str	r2, [r3, #0]
 80188ae:	b102      	cbz	r2, 80188b2 <queue_pop+0xe>
 80188b0:	4770      	bx	lr
 80188b2:	605a      	str	r2, [r3, #4]
 80188b4:	e7fc      	b.n	80188b0 <queue_pop+0xc>

080188b6 <queue_peek>:
 80188b6:	6800      	ldr	r0, [r0, #0]
 80188b8:	4770      	bx	lr

080188ba <sem_init>:
 80188ba:	b130      	cbz	r0, 80188ca <sem_init+0x10>
 80188bc:	b508      	push	{r3, lr}
 80188be:	f840 1b04 	str.w	r1, [r0], #4
 80188c2:	f7ff ffbf 	bl	8018844 <queue_init>
 80188c6:	2000      	movs	r0, #0
 80188c8:	bd08      	pop	{r3, pc}
 80188ca:	2002      	movs	r0, #2
 80188cc:	4770      	bx	lr

080188ce <sem_wait>:
 80188ce:	b1c8      	cbz	r0, 8018904 <sem_wait+0x36>
 80188d0:	b508      	push	{r3, lr}
 80188d2:	4b0e      	ldr	r3, [pc, #56]	@ (801890c <sem_wait+0x3e>)
 80188d4:	681b      	ldr	r3, [r3, #0]
 80188d6:	b1bb      	cbz	r3, 8018908 <sem_wait+0x3a>
 80188d8:	b672      	cpsid	i
 80188da:	6803      	ldr	r3, [r0, #0]
 80188dc:	b123      	cbz	r3, 80188e8 <sem_wait+0x1a>
 80188de:	3b01      	subs	r3, #1
 80188e0:	6003      	str	r3, [r0, #0]
 80188e2:	b662      	cpsie	i
 80188e4:	2000      	movs	r0, #0
 80188e6:	bd08      	pop	{r3, pc}
 80188e8:	4b08      	ldr	r3, [pc, #32]	@ (801890c <sem_wait+0x3e>)
 80188ea:	6819      	ldr	r1, [r3, #0]
 80188ec:	2306      	movs	r3, #6
 80188ee:	778b      	strb	r3, [r1, #30]
 80188f0:	3004      	adds	r0, #4
 80188f2:	f7ff ffab 	bl	801884c <queue_push>
 80188f6:	f04f 23e0 	mov.w	r3, #3758153728	@ 0xe000e000
 80188fa:	f04f 5280 	mov.w	r2, #268435456	@ 0x10000000
 80188fe:	f8c3 2d04 	str.w	r2, [r3, #3332]	@ 0xd04
 8018902:	e7ee      	b.n	80188e2 <sem_wait+0x14>
 8018904:	2002      	movs	r0, #2
 8018906:	4770      	bx	lr
 8018908:	2002      	movs	r0, #2
 801890a:	e7ec      	b.n	80188e6 <sem_wait+0x18>
 801890c:	2000278c 	.word	0x2000278c

08018910 <sem_signal>:
 8018910:	b1e0      	cbz	r0, 801894c <sem_signal+0x3c>
 8018912:	b510      	push	{r4, lr}
 8018914:	4604      	mov	r4, r0
 8018916:	4b0f      	ldr	r3, [pc, #60]	@ (8018954 <sem_signal+0x44>)
 8018918:	681b      	ldr	r3, [r3, #0]
 801891a:	b1cb      	cbz	r3, 8018950 <sem_signal+0x40>
 801891c:	b672      	cpsid	i
 801891e:	3004      	adds	r0, #4
 8018920:	f7ff ffc0 	bl	80188a4 <queue_pop>
 8018924:	4601      	mov	r1, r0
 8018926:	b168      	cbz	r0, 8018944 <sem_signal+0x34>
 8018928:	2302      	movs	r3, #2
 801892a:	7783      	strb	r3, [r0, #30]
 801892c:	480a      	ldr	r0, [pc, #40]	@ (8018958 <sem_signal+0x48>)
 801892e:	f7ff ff8d 	bl	801884c <queue_push>
 8018932:	f04f 23e0 	mov.w	r3, #3758153728	@ 0xe000e000
 8018936:	f04f 5280 	mov.w	r2, #268435456	@ 0x10000000
 801893a:	f8c3 2d04 	str.w	r2, [r3, #3332]	@ 0xd04
 801893e:	b662      	cpsie	i
 8018940:	2000      	movs	r0, #0
 8018942:	bd10      	pop	{r4, pc}
 8018944:	6823      	ldr	r3, [r4, #0]
 8018946:	3301      	adds	r3, #1
 8018948:	6023      	str	r3, [r4, #0]
 801894a:	e7f8      	b.n	801893e <sem_signal+0x2e>
 801894c:	2002      	movs	r0, #2
 801894e:	4770      	bx	lr
 8018950:	2002      	movs	r0, #2
 8018952:	e7f6      	b.n	8018942 <sem_signal+0x32>
 8018954:	2000278c 	.word	0x2000278c
 8018958:	2000279c 	.word	0x2000279c

0801895c <sys_rewindDir>:
 801895c:	2000      	movs	r0, #0
 801895e:	4770      	bx	lr

08018960 <sys_tellDir>:
 8018960:	2000      	movs	r0, #0
 8018962:	4770      	bx	lr

08018964 <sys_seekDir>:
 8018964:	2000      	movs	r0, #0
 8018966:	4770      	bx	lr

08018968 <sys_open>:
 8018968:	b508      	push	{r3, lr}
 801896a:	460a      	mov	r2, r1
 801896c:	4601      	mov	r1, r0
 801896e:	201c      	movs	r0, #28
 8018970:	f001 f856 	bl	8019a20 <syscall>
 8018974:	bd08      	pop	{r3, pc}

08018976 <sys_exist>:
 8018976:	b508      	push	{r3, lr}
 8018978:	4601      	mov	r1, r0
 801897a:	2018      	movs	r0, #24
 801897c:	f001 f850 	bl	8019a20 <syscall>
 8018980:	bd08      	pop	{r3, pc}

08018982 <sys_write>:
 8018982:	b508      	push	{r3, lr}
 8018984:	4613      	mov	r3, r2
 8018986:	460a      	mov	r2, r1
 8018988:	4601      	mov	r1, r0
 801898a:	201f      	movs	r0, #31
 801898c:	f001 f848 	bl	8019a20 <syscall>
 8018990:	bd08      	pop	{r3, pc}

08018992 <sys_read>:
 8018992:	b508      	push	{r3, lr}
 8018994:	4613      	mov	r3, r2
 8018996:	460a      	mov	r2, r1
 8018998:	4601      	mov	r1, r0
 801899a:	201e      	movs	r0, #30
 801899c:	f001 f840 	bl	8019a20 <syscall>
 80189a0:	bd08      	pop	{r3, pc}

080189a2 <sys_close>:
 80189a2:	b508      	push	{r3, lr}
 80189a4:	4601      	mov	r1, r0
 80189a6:	2020      	movs	r0, #32
 80189a8:	f001 f83a 	bl	8019a20 <syscall>
 80189ac:	bd08      	pop	{r3, pc}

080189ae <sys_seek>:
 80189ae:	b508      	push	{r3, lr}
 80189b0:	4613      	mov	r3, r2
 80189b2:	460a      	mov	r2, r1
 80189b4:	4601      	mov	r1, r0
 80189b6:	201d      	movs	r0, #29
 80189b8:	f001 f832 	bl	8019a20 <syscall>
 80189bc:	bd08      	pop	{r3, pc}

080189be <sys_tell>:
 80189be:	b508      	push	{r3, lr}
 80189c0:	4601      	mov	r1, r0
 80189c2:	2021      	movs	r0, #33	@ 0x21
 80189c4:	f001 f82c 	bl	8019a20 <syscall>
 80189c8:	bd08      	pop	{r3, pc}

080189ca <sys_rewind>:
 80189ca:	b508      	push	{r3, lr}
 80189cc:	4601      	mov	r1, r0
 80189ce:	2022      	movs	r0, #34	@ 0x22
 80189d0:	f001 f826 	bl	8019a20 <syscall>
 80189d4:	bd08      	pop	{r3, pc}

080189d6 <sys_truncate>:
 80189d6:	b508      	push	{r3, lr}
 80189d8:	460a      	mov	r2, r1
 80189da:	4601      	mov	r1, r0
 80189dc:	2023      	movs	r0, #35	@ 0x23
 80189de:	f001 f81f 	bl	8019a20 <syscall>
 80189e2:	bd08      	pop	{r3, pc}

080189e4 <sys_size>:
 80189e4:	b508      	push	{r3, lr}
 80189e6:	4601      	mov	r1, r0
 80189e8:	2024      	movs	r0, #36	@ 0x24
 80189ea:	f001 f819 	bl	8019a20 <syscall>
 80189ee:	bd08      	pop	{r3, pc}

080189f0 <sys_available>:
 80189f0:	b508      	push	{r3, lr}
 80189f2:	4601      	mov	r1, r0
 80189f4:	2025      	movs	r0, #37	@ 0x25
 80189f6:	f001 f813 	bl	8019a20 <syscall>
 80189fa:	bd08      	pop	{r3, pc}

080189fc <sys_mkdir>:
 80189fc:	b508      	push	{r3, lr}
 80189fe:	4601      	mov	r1, r0
 8018a00:	2026      	movs	r0, #38	@ 0x26
 8018a02:	f001 f80d 	bl	8019a20 <syscall>
 8018a06:	bd08      	pop	{r3, pc}

08018a08 <sys_openDir>:
 8018a08:	b508      	push	{r3, lr}
 8018a0a:	4601      	mov	r1, r0
 8018a0c:	2028      	movs	r0, #40	@ 0x28
 8018a0e:	f001 f807 	bl	8019a20 <syscall>
 8018a12:	bd08      	pop	{r3, pc}

08018a14 <sys_closeDir>:
 8018a14:	b508      	push	{r3, lr}
 8018a16:	4601      	mov	r1, r0
 8018a18:	2030      	movs	r0, #48	@ 0x30
 8018a1a:	f001 f801 	bl	8019a20 <syscall>
 8018a1e:	bd08      	pop	{r3, pc}

08018a20 <sys_readDir>:
 8018a20:	b508      	push	{r3, lr}
 8018a22:	460a      	mov	r2, r1
 8018a24:	4601      	mov	r1, r0
 8018a26:	2029      	movs	r0, #41	@ 0x29
 8018a28:	f000 fffa 	bl	8019a20 <syscall>
 8018a2c:	bd08      	pop	{r3, pc}

08018a2e <sys_format>:
 8018a2e:	b508      	push	{r3, lr}
 8018a30:	460a      	mov	r2, r1
 8018a32:	4601      	mov	r1, r0
 8018a34:	202c      	movs	r0, #44	@ 0x2c
 8018a36:	f000 fff3 	bl	8019a20 <syscall>
 8018a3a:	bd08      	pop	{r3, pc}

08018a3c <sys_mount>:
 8018a3c:	b508      	push	{r3, lr}
 8018a3e:	460a      	mov	r2, r1
 8018a40:	4601      	mov	r1, r0
 8018a42:	202d      	movs	r0, #45	@ 0x2d
 8018a44:	f000 ffec 	bl	8019a20 <syscall>
 8018a48:	bd08      	pop	{r3, pc}

08018a4a <sys_unmount>:
 8018a4a:	b508      	push	{r3, lr}
 8018a4c:	4601      	mov	r1, r0
 8018a4e:	202e      	movs	r0, #46	@ 0x2e
 8018a50:	f000 ffe6 	bl	8019a20 <syscall>
 8018a54:	bd08      	pop	{r3, pc}

08018a56 <sys_remove>:
 8018a56:	b508      	push	{r3, lr}
 8018a58:	4601      	mov	r1, r0
 8018a5a:	202a      	movs	r0, #42	@ 0x2a
 8018a5c:	f000 ffe0 	bl	8019a20 <syscall>
 8018a60:	bd08      	pop	{r3, pc}

08018a62 <sys_rename>:
 8018a62:	b508      	push	{r3, lr}
 8018a64:	460a      	mov	r2, r1
 8018a66:	4601      	mov	r1, r0
 8018a68:	202b      	movs	r0, #43	@ 0x2b
 8018a6a:	f000 ffd9 	bl	8019a20 <syscall>
 8018a6e:	bd08      	pop	{r3, pc}

08018a70 <sys_free>:
 8018a70:	b508      	push	{r3, lr}
 8018a72:	202f      	movs	r0, #47	@ 0x2f
 8018a74:	f000 ffd4 	bl	8019a20 <syscall>
 8018a78:	bd08      	pop	{r3, pc}

08018a7a <sys_sleep>:
 8018a7a:	b508      	push	{r3, lr}
 8018a7c:	4601      	mov	r1, r0
 8018a7e:	200c      	movs	r0, #12
 8018a80:	f000 ffce 	bl	8019a20 <syscall>
 8018a84:	bd08      	pop	{r3, pc}

08018a86 <sys_kill>:
 8018a86:	b508      	push	{r3, lr}
 8018a88:	4601      	mov	r1, r0
 8018a8a:	200a      	movs	r0, #10
 8018a8c:	f000 ffc8 	bl	8019a20 <syscall>
 8018a90:	bd08      	pop	{r3, pc}

08018a92 <sys_getpid>:
 8018a92:	b508      	push	{r3, lr}
 8018a94:	2017      	movs	r0, #23
 8018a96:	f000 ffc3 	bl	8019a20 <syscall>
 8018a9a:	bd08      	pop	{r3, pc}

08018a9c <sys_yield>:
 8018a9c:	b508      	push	{r3, lr}
 8018a9e:	203d      	movs	r0, #61	@ 0x3d
 8018aa0:	f000 ffbe 	bl	8019a20 <syscall>
 8018aa4:	bd08      	pop	{r3, pc}

08018aa6 <sys_ready>:
 8018aa6:	b508      	push	{r3, lr}
 8018aa8:	4601      	mov	r1, r0
 8018aaa:	200b      	movs	r0, #11
 8018aac:	f000 ffb8 	bl	8019a20 <syscall>
 8018ab0:	bd08      	pop	{r3, pc}

08018ab2 <sys_full_path>:
 8018ab2:	b508      	push	{r3, lr}
 8018ab4:	4601      	mov	r1, r0
 8018ab6:	203e      	movs	r0, #62	@ 0x3e
 8018ab8:	f000 ffb2 	bl	8019a20 <syscall>
 8018abc:	bd08      	pop	{r3, pc}

08018abe <sys_update_path>:
 8018abe:	b508      	push	{r3, lr}
 8018ac0:	203f      	movs	r0, #63	@ 0x3f
 8018ac2:	f000 ffad 	bl	8019a20 <syscall>
 8018ac6:	bd08      	pop	{r3, pc}

08018ac8 <sys_malloc>:
 8018ac8:	b508      	push	{r3, lr}
 8018aca:	4601      	mov	r1, r0
 8018acc:	200e      	movs	r0, #14
 8018ace:	f000 ffa7 	bl	8019a20 <syscall>
 8018ad2:	bd08      	pop	{r3, pc}

08018ad4 <sys_mfree>:
 8018ad4:	b508      	push	{r3, lr}
 8018ad6:	4601      	mov	r1, r0
 8018ad8:	200d      	movs	r0, #13
 8018ada:	f000 ffa1 	bl	8019a20 <syscall>
 8018ade:	bd08      	pop	{r3, pc}

08018ae0 <sys_putc>:
 8018ae0:	b508      	push	{r3, lr}
 8018ae2:	4601      	mov	r1, r0
 8018ae4:	2001      	movs	r0, #1
 8018ae6:	f000 ff9b 	bl	8019a20 <syscall>
 8018aea:	bd08      	pop	{r3, pc}

08018aec <sys_puts>:
 8018aec:	b508      	push	{r3, lr}
 8018aee:	4601      	mov	r1, r0
 8018af0:	2002      	movs	r0, #2
 8018af2:	f000 ff95 	bl	8019a20 <syscall>
 8018af6:	bd08      	pop	{r3, pc}

08018af8 <sys_struct_task>:
 8018af8:	b508      	push	{r3, lr}
 8018afa:	4601      	mov	r1, r0
 8018afc:	203a      	movs	r0, #58	@ 0x3a
 8018afe:	f000 ff8f 	bl	8019a20 <syscall>
 8018b02:	bd08      	pop	{r3, pc}

08018b04 <sys_get_path>:
 8018b04:	b508      	push	{r3, lr}
 8018b06:	2040      	movs	r0, #64	@ 0x40
 8018b08:	f000 ff8a 	bl	8019a20 <syscall>
 8018b0c:	bd08      	pop	{r3, pc}

08018b0e <sys_cd>:
 8018b0e:	b508      	push	{r3, lr}
 8018b10:	4601      	mov	r1, r0
 8018b12:	2041      	movs	r0, #65	@ 0x41
 8018b14:	f000 ff84 	bl	8019a20 <syscall>
 8018b18:	bd08      	pop	{r3, pc}

08018b1a <sys_elf_execve>:
 8018b1a:	b508      	push	{r3, lr}
 8018b1c:	460a      	mov	r2, r1
 8018b1e:	4601      	mov	r1, r0
 8018b20:	203b      	movs	r0, #59	@ 0x3b
 8018b22:	f000 ff7d 	bl	8019a20 <syscall>
 8018b26:	bd08      	pop	{r3, pc}

08018b28 <sys_create>:
 8018b28:	b508      	push	{r3, lr}
 8018b2a:	460a      	mov	r2, r1
 8018b2c:	4601      	mov	r1, r0
 8018b2e:	2009      	movs	r0, #9
 8018b30:	f000 ff76 	bl	8019a20 <syscall>
 8018b34:	bd08      	pop	{r3, pc}

08018b36 <sys_js0n>:
 8018b36:	b508      	push	{r3, lr}
 8018b38:	4601      	mov	r1, r0
 8018b3a:	2042      	movs	r0, #66	@ 0x42
 8018b3c:	f000 ff70 	bl	8019a20 <syscall>
 8018b40:	bd08      	pop	{r3, pc}

08018b42 <sys_free_heap>:
 8018b42:	b508      	push	{r3, lr}
 8018b44:	2016      	movs	r0, #22
 8018b46:	f000 ff6b 	bl	8019a20 <syscall>
 8018b4a:	bd08      	pop	{r3, pc}

08018b4c <len_fifo_usb>:
 8018b4c:	b508      	push	{r3, lr}
 8018b4e:	2043      	movs	r0, #67	@ 0x43
 8018b50:	f000 ff66 	bl	8019a20 <syscall>
 8018b54:	bd08      	pop	{r3, pc}

08018b56 <fifo_usb>:
 8018b56:	b508      	push	{r3, lr}
 8018b58:	2004      	movs	r0, #4
 8018b5a:	f000 ff61 	bl	8019a20 <syscall>
 8018b5e:	bd08      	pop	{r3, pc}

08018b60 <syscall_init>:
 8018b60:	4b37      	ldr	r3, [pc, #220]	@ (8018c40 <syscall_init+0xe0>)
 8018b62:	6018      	str	r0, [r3, #0]
 8018b64:	4a37      	ldr	r2, [pc, #220]	@ (8018c44 <syscall_init+0xe4>)
 8018b66:	6602      	str	r2, [r0, #96]	@ 0x60
 8018b68:	4a37      	ldr	r2, [pc, #220]	@ (8018c48 <syscall_init+0xe8>)
 8018b6a:	6002      	str	r2, [r0, #0]
 8018b6c:	681b      	ldr	r3, [r3, #0]
 8018b6e:	4a37      	ldr	r2, [pc, #220]	@ (8018c4c <syscall_init+0xec>)
 8018b70:	605a      	str	r2, [r3, #4]
 8018b72:	4a37      	ldr	r2, [pc, #220]	@ (8018c50 <syscall_init+0xf0>)
 8018b74:	609a      	str	r2, [r3, #8]
 8018b76:	4a37      	ldr	r2, [pc, #220]	@ (8018c54 <syscall_init+0xf4>)
 8018b78:	60da      	str	r2, [r3, #12]
 8018b7a:	4a37      	ldr	r2, [pc, #220]	@ (8018c58 <syscall_init+0xf8>)
 8018b7c:	611a      	str	r2, [r3, #16]
 8018b7e:	4a37      	ldr	r2, [pc, #220]	@ (8018c5c <syscall_init+0xfc>)
 8018b80:	615a      	str	r2, [r3, #20]
 8018b82:	4a37      	ldr	r2, [pc, #220]	@ (8018c60 <syscall_init+0x100>)
 8018b84:	619a      	str	r2, [r3, #24]
 8018b86:	4a37      	ldr	r2, [pc, #220]	@ (8018c64 <syscall_init+0x104>)
 8018b88:	61da      	str	r2, [r3, #28]
 8018b8a:	4a37      	ldr	r2, [pc, #220]	@ (8018c68 <syscall_init+0x108>)
 8018b8c:	621a      	str	r2, [r3, #32]
 8018b8e:	4a37      	ldr	r2, [pc, #220]	@ (8018c6c <syscall_init+0x10c>)
 8018b90:	625a      	str	r2, [r3, #36]	@ 0x24
 8018b92:	4a37      	ldr	r2, [pc, #220]	@ (8018c70 <syscall_init+0x110>)
 8018b94:	629a      	str	r2, [r3, #40]	@ 0x28
 8018b96:	4a37      	ldr	r2, [pc, #220]	@ (8018c74 <syscall_init+0x114>)
 8018b98:	62da      	str	r2, [r3, #44]	@ 0x2c
 8018b9a:	4a37      	ldr	r2, [pc, #220]	@ (8018c78 <syscall_init+0x118>)
 8018b9c:	631a      	str	r2, [r3, #48]	@ 0x30
 8018b9e:	4a37      	ldr	r2, [pc, #220]	@ (8018c7c <syscall_init+0x11c>)
 8018ba0:	635a      	str	r2, [r3, #52]	@ 0x34
 8018ba2:	4a37      	ldr	r2, [pc, #220]	@ (8018c80 <syscall_init+0x120>)
 8018ba4:	639a      	str	r2, [r3, #56]	@ 0x38
 8018ba6:	4a37      	ldr	r2, [pc, #220]	@ (8018c84 <syscall_init+0x124>)
 8018ba8:	63da      	str	r2, [r3, #60]	@ 0x3c
 8018baa:	4a37      	ldr	r2, [pc, #220]	@ (8018c88 <syscall_init+0x128>)
 8018bac:	641a      	str	r2, [r3, #64]	@ 0x40
 8018bae:	4a37      	ldr	r2, [pc, #220]	@ (8018c8c <syscall_init+0x12c>)
 8018bb0:	645a      	str	r2, [r3, #68]	@ 0x44
 8018bb2:	4a37      	ldr	r2, [pc, #220]	@ (8018c90 <syscall_init+0x130>)
 8018bb4:	649a      	str	r2, [r3, #72]	@ 0x48
 8018bb6:	4a37      	ldr	r2, [pc, #220]	@ (8018c94 <syscall_init+0x134>)
 8018bb8:	64da      	str	r2, [r3, #76]	@ 0x4c
 8018bba:	4a37      	ldr	r2, [pc, #220]	@ (8018c98 <syscall_init+0x138>)
 8018bbc:	651a      	str	r2, [r3, #80]	@ 0x50
 8018bbe:	4a37      	ldr	r2, [pc, #220]	@ (8018c9c <syscall_init+0x13c>)
 8018bc0:	655a      	str	r2, [r3, #84]	@ 0x54
 8018bc2:	4a37      	ldr	r2, [pc, #220]	@ (8018ca0 <syscall_init+0x140>)
 8018bc4:	659a      	str	r2, [r3, #88]	@ 0x58
 8018bc6:	4a37      	ldr	r2, [pc, #220]	@ (8018ca4 <syscall_init+0x144>)
 8018bc8:	665a      	str	r2, [r3, #100]	@ 0x64
 8018bca:	4a37      	ldr	r2, [pc, #220]	@ (8018ca8 <syscall_init+0x148>)
 8018bcc:	669a      	str	r2, [r3, #104]	@ 0x68
 8018bce:	4a37      	ldr	r2, [pc, #220]	@ (8018cac <syscall_init+0x14c>)
 8018bd0:	66da      	str	r2, [r3, #108]	@ 0x6c
 8018bd2:	4a37      	ldr	r2, [pc, #220]	@ (8018cb0 <syscall_init+0x150>)
 8018bd4:	671a      	str	r2, [r3, #112]	@ 0x70
 8018bd6:	4a37      	ldr	r2, [pc, #220]	@ (8018cb4 <syscall_init+0x154>)
 8018bd8:	675a      	str	r2, [r3, #116]	@ 0x74
 8018bda:	2000      	movs	r0, #0
 8018bdc:	6798      	str	r0, [r3, #120]	@ 0x78
 8018bde:	4a36      	ldr	r2, [pc, #216]	@ (8018cb8 <syscall_init+0x158>)
 8018be0:	67da      	str	r2, [r3, #124]	@ 0x7c
 8018be2:	4a36      	ldr	r2, [pc, #216]	@ (8018cbc <syscall_init+0x15c>)
 8018be4:	f8c3 2080 	str.w	r2, [r3, #128]	@ 0x80
 8018be8:	f8c3 0084 	str.w	r0, [r3, #132]	@ 0x84
 8018bec:	f8c3 0088 	str.w	r0, [r3, #136]	@ 0x88
 8018bf0:	4a33      	ldr	r2, [pc, #204]	@ (8018cc0 <syscall_init+0x160>)
 8018bf2:	f8c3 208c 	str.w	r2, [r3, #140]	@ 0x8c
 8018bf6:	4a33      	ldr	r2, [pc, #204]	@ (8018cc4 <syscall_init+0x164>)
 8018bf8:	f8c3 2090 	str.w	r2, [r3, #144]	@ 0x90
 8018bfc:	4a32      	ldr	r2, [pc, #200]	@ (8018cc8 <syscall_init+0x168>)
 8018bfe:	f8c3 2094 	str.w	r2, [r3, #148]	@ 0x94
 8018c02:	4a32      	ldr	r2, [pc, #200]	@ (8018ccc <syscall_init+0x16c>)
 8018c04:	f8c3 2098 	str.w	r2, [r3, #152]	@ 0x98
 8018c08:	4a31      	ldr	r2, [pc, #196]	@ (8018cd0 <syscall_init+0x170>)
 8018c0a:	f8c3 209c 	str.w	r2, [r3, #156]	@ 0x9c
 8018c0e:	4a31      	ldr	r2, [pc, #196]	@ (8018cd4 <syscall_init+0x174>)
 8018c10:	f8c3 20a0 	str.w	r2, [r3, #160]	@ 0xa0
 8018c14:	4a30      	ldr	r2, [pc, #192]	@ (8018cd8 <syscall_init+0x178>)
 8018c16:	f8c3 20a4 	str.w	r2, [r3, #164]	@ 0xa4
 8018c1a:	4a30      	ldr	r2, [pc, #192]	@ (8018cdc <syscall_init+0x17c>)
 8018c1c:	f8c3 20ac 	str.w	r2, [r3, #172]	@ 0xac
 8018c20:	4a2f      	ldr	r2, [pc, #188]	@ (8018ce0 <syscall_init+0x180>)
 8018c22:	f8c3 20b0 	str.w	r2, [r3, #176]	@ 0xb0
 8018c26:	4a2f      	ldr	r2, [pc, #188]	@ (8018ce4 <syscall_init+0x184>)
 8018c28:	f8c3 20b4 	str.w	r2, [r3, #180]	@ 0xb4
 8018c2c:	4a2e      	ldr	r2, [pc, #184]	@ (8018ce8 <syscall_init+0x188>)
 8018c2e:	f8c3 20a8 	str.w	r2, [r3, #168]	@ 0xa8
 8018c32:	4a2e      	ldr	r2, [pc, #184]	@ (8018cec <syscall_init+0x18c>)
 8018c34:	f8c3 20b8 	str.w	r2, [r3, #184]	@ 0xb8
 8018c38:	4a2d      	ldr	r2, [pc, #180]	@ (8018cf0 <syscall_init+0x190>)
 8018c3a:	f8c3 20bc 	str.w	r2, [r3, #188]	@ 0xbc
 8018c3e:	4770      	bx	lr
 8018c40:	200027a8 	.word	0x200027a8
 8018c44:	08018977 	.word	0x08018977
 8018c48:	08018969 	.word	0x08018969
 8018c4c:	08018983 	.word	0x08018983
 8018c50:	08018993 	.word	0x08018993
 8018c54:	080189a3 	.word	0x080189a3
 8018c58:	080189af 	.word	0x080189af
 8018c5c:	080189bf 	.word	0x080189bf
 8018c60:	080189cb 	.word	0x080189cb
 8018c64:	080189d7 	.word	0x080189d7
 8018c68:	080189e5 	.word	0x080189e5
 8018c6c:	080189f1 	.word	0x080189f1
 8018c70:	080189fd 	.word	0x080189fd
 8018c74:	08018a09 	.word	0x08018a09
 8018c78:	08018a15 	.word	0x08018a15
 8018c7c:	08018a21 	.word	0x08018a21
 8018c80:	0801895d 	.word	0x0801895d
 8018c84:	08018961 	.word	0x08018961
 8018c88:	08018965 	.word	0x08018965
 8018c8c:	08018a2f 	.word	0x08018a2f
 8018c90:	08018a3d 	.word	0x08018a3d
 8018c94:	08018a4b 	.word	0x08018a4b
 8018c98:	08018a57 	.word	0x08018a57
 8018c9c:	08018a63 	.word	0x08018a63
 8018ca0:	08018a71 	.word	0x08018a71
 8018ca4:	08018a7b 	.word	0x08018a7b
 8018ca8:	08018a87 	.word	0x08018a87
 8018cac:	08018a93 	.word	0x08018a93
 8018cb0:	08018a9d 	.word	0x08018a9d
 8018cb4:	08018aa7 	.word	0x08018aa7
 8018cb8:	08018ae1 	.word	0x08018ae1
 8018cbc:	08018aed 	.word	0x08018aed
 8018cc0:	08018ab3 	.word	0x08018ab3
 8018cc4:	08018abf 	.word	0x08018abf
 8018cc8:	08018ac9 	.word	0x08018ac9
 8018ccc:	08018ad5 	.word	0x08018ad5
 8018cd0:	08018af9 	.word	0x08018af9
 8018cd4:	08018b05 	.word	0x08018b05
 8018cd8:	08018b0f 	.word	0x08018b0f
 8018cdc:	08018b1b 	.word	0x08018b1b
 8018ce0:	08018b29 	.word	0x08018b29
 8018ce4:	08018b37 	.word	0x08018b37
 8018ce8:	08018b43 	.word	0x08018b43
 8018cec:	08018b4d 	.word	0x08018b4d
 8018cf0:	08018b57 	.word	0x08018b57

08018cf4 <loadConfig>:
 8018cf4:	2000      	movs	r0, #0
 8018cf6:	4770      	bx	lr

08018cf8 <svccall_handler>:
 8018cf8:	b530      	push	{r4, r5, lr}
 8018cfa:	b083      	sub	sp, #12
 8018cfc:	4604      	mov	r4, r0
 8018cfe:	b672      	cpsid	i
 8018d00:	6801      	ldr	r1, [r0, #0]
 8018d02:	2918      	cmp	r1, #24
 8018d04:	d81a      	bhi.n	8018d3c <svccall_handler+0x44>
 8018d06:	2918      	cmp	r1, #24
 8018d08:	d83e      	bhi.n	8018d88 <svccall_handler+0x90>
 8018d0a:	e8df f001 	tbb	[pc, r1]
 8018d0e:	7373      	.short	0x7373
 8018d10:	1499917e 	.word	0x1499917e
 8018d14:	9c141414 	.word	0x9c141414
 8018d18:	6662a66f 	.word	0x6662a66f
 8018d1c:	14143d6a 	.word	0x14143d6a
 8018d20:	bdb7b114 	.word	0xbdb7b114
 8018d24:	aa41      	.short	0xaa41
 8018d26:	14          	.byte	0x14
 8018d27:	00          	.byte	0x00
 8018d28:	f1a1 021c 	sub.w	r2, r1, #28
 8018d2c:	4b59      	ldr	r3, [pc, #356]	@ (8018e94 <svccall_handler+0x19c>)
 8018d2e:	40d3      	lsrs	r3, r2
 8018d30:	f013 0f01 	tst.w	r3, #1
 8018d34:	d028      	beq.n	8018d88 <svccall_handler+0x90>
 8018d36:	b662      	cpsie	i
 8018d38:	b003      	add	sp, #12
 8018d3a:	bd30      	pop	{r4, r5, pc}
 8018d3c:	2938      	cmp	r1, #56	@ 0x38
 8018d3e:	d921      	bls.n	8018d84 <svccall_handler+0x8c>
 8018d40:	2943      	cmp	r1, #67	@ 0x43
 8018d42:	d821      	bhi.n	8018d88 <svccall_handler+0x90>
 8018d44:	2939      	cmp	r1, #57	@ 0x39
 8018d46:	d31f      	bcc.n	8018d88 <svccall_handler+0x90>
 8018d48:	f1a1 0339 	sub.w	r3, r1, #57	@ 0x39
 8018d4c:	2b0a      	cmp	r3, #10
 8018d4e:	d81b      	bhi.n	8018d88 <svccall_handler+0x90>
 8018d50:	a201      	add	r2, pc, #4	@ (adr r2, 8018d58 <svccall_handler+0x60>)
 8018d52:	f852 f023 	ldr.w	pc, [r2, r3, lsl #2]
 8018d56:	bf00      	nop
 8018d58:	08018e6b 	.word	0x08018e6b
 8018d5c:	08018db7 	.word	0x08018db7
 8018d60:	08018d99 	.word	0x08018d99
 8018d64:	08018d89 	.word	0x08018d89
 8018d68:	08018d37 	.word	0x08018d37
 8018d6c:	08018dc9 	.word	0x08018dc9
 8018d70:	08018dc3 	.word	0x08018dc3
 8018d74:	08018dad 	.word	0x08018dad
 8018d78:	08018da5 	.word	0x08018da5
 8018d7c:	08018d89 	.word	0x08018d89
 8018d80:	08018e39 	.word	0x08018e39
 8018d84:	291c      	cmp	r1, #28
 8018d86:	d2cf      	bcs.n	8018d28 <svccall_handler+0x30>
 8018d88:	4843      	ldr	r0, [pc, #268]	@ (8018e98 <svccall_handler+0x1a0>)
 8018d8a:	f7f7 ff7b 	bl	8010c84 <kprintf>
 8018d8e:	e7d2      	b.n	8018d36 <svccall_handler+0x3e>
 8018d90:	f7f7 ffa0 	bl	8010cd4 <heap_free>
 8018d94:	6020      	str	r0, [r4, #0]
 8018d96:	e7ce      	b.n	8018d36 <svccall_handler+0x3e>
 8018d98:	68a1      	ldr	r1, [r4, #8]
 8018d9a:	6860      	ldr	r0, [r4, #4]
 8018d9c:	f7f7 fe86 	bl	8010aac <elf_execve>
 8018da0:	6020      	str	r0, [r4, #0]
 8018da2:	e7c8      	b.n	8018d36 <svccall_handler+0x3e>
 8018da4:	6860      	ldr	r0, [r4, #4]
 8018da6:	f7f9 ff95 	bl	8012cd4 <cd>
 8018daa:	e7c4      	b.n	8018d36 <svccall_handler+0x3e>
 8018dac:	483b      	ldr	r0, [pc, #236]	@ (8018e9c <svccall_handler+0x1a4>)
 8018dae:	f7f9 ff4b 	bl	8012c48 <full_path>
 8018db2:	6020      	str	r0, [r4, #0]
 8018db4:	e7bf      	b.n	8018d36 <svccall_handler+0x3e>
 8018db6:	6862      	ldr	r2, [r4, #4]
 8018db8:	4b39      	ldr	r3, [pc, #228]	@ (8018ea0 <svccall_handler+0x1a8>)
 8018dba:	eb03 1382 	add.w	r3, r3, r2, lsl #6
 8018dbe:	6023      	str	r3, [r4, #0]
 8018dc0:	e7b9      	b.n	8018d36 <svccall_handler+0x3e>
 8018dc2:	f7f9 ff37 	bl	8012c34 <update_path>
 8018dc6:	e7b6      	b.n	8018d36 <svccall_handler+0x3e>
 8018dc8:	6860      	ldr	r0, [r4, #4]
 8018dca:	f7f9 ff3d 	bl	8012c48 <full_path>
 8018dce:	6020      	str	r0, [r4, #0]
 8018dd0:	e7b1      	b.n	8018d36 <svccall_handler+0x3e>
 8018dd2:	6840      	ldr	r0, [r0, #4]
 8018dd4:	f7ff fb54 	bl	8018480 <sleep>
 8018dd8:	e7ad      	b.n	8018d36 <svccall_handler+0x3e>
 8018dda:	6840      	ldr	r0, [r0, #4]
 8018ddc:	f7f8 f844 	bl	8010e68 <free>
 8018de0:	e7a9      	b.n	8018d36 <svccall_handler+0x3e>
 8018de2:	6840      	ldr	r0, [r0, #4]
 8018de4:	f7f8 f820 	bl	8010e28 <malloc>
 8018de8:	6020      	str	r0, [r4, #0]
 8018dea:	e7a4      	b.n	8018d36 <svccall_handler+0x3e>
 8018dec:	6840      	ldr	r0, [r0, #4]
 8018dee:	f7ff fb79 	bl	80184e4 <kill>
 8018df2:	e7a0      	b.n	8018d36 <svccall_handler+0x3e>
 8018df4:	4b2b      	ldr	r3, [pc, #172]	@ (8018ea4 <svccall_handler+0x1ac>)
 8018df6:	681b      	ldr	r3, [r3, #0]
 8018df8:	69db      	ldr	r3, [r3, #28]
 8018dfa:	2201      	movs	r2, #1
 8018dfc:	1d21      	adds	r1, r4, #4
 8018dfe:	2081      	movs	r0, #129	@ 0x81
 8018e00:	4798      	blx	r3
 8018e02:	f1b0 3fff 	cmp.w	r0, #4294967295	@ 0xffffffff
 8018e06:	d0f5      	beq.n	8018df4 <svccall_handler+0xfc>
 8018e08:	e795      	b.n	8018d36 <svccall_handler+0x3e>
 8018e0a:	6845      	ldr	r5, [r0, #4]
 8018e0c:	6884      	ldr	r4, [r0, #8]
 8018e0e:	4826      	ldr	r0, [pc, #152]	@ (8018ea8 <svccall_handler+0x1b0>)
 8018e10:	f7ff fd5d 	bl	80188ce <sem_wait>
 8018e14:	4b23      	ldr	r3, [pc, #140]	@ (8018ea4 <svccall_handler+0x1ac>)
 8018e16:	681b      	ldr	r3, [r3, #0]
 8018e18:	69db      	ldr	r3, [r3, #28]
 8018e1a:	b2a2      	uxth	r2, r4
 8018e1c:	4629      	mov	r1, r5
 8018e1e:	2081      	movs	r0, #129	@ 0x81
 8018e20:	4798      	blx	r3
 8018e22:	f1b0 3fff 	cmp.w	r0, #4294967295	@ 0xffffffff
 8018e26:	d0f5      	beq.n	8018e14 <svccall_handler+0x11c>
 8018e28:	481f      	ldr	r0, [pc, #124]	@ (8018ea8 <svccall_handler+0x1b0>)
 8018e2a:	f7ff fd71 	bl	8018910 <sem_signal>
 8018e2e:	e782      	b.n	8018d36 <svccall_handler+0x3e>
 8018e30:	4b1e      	ldr	r3, [pc, #120]	@ (8018eac <svccall_handler+0x1b4>)
 8018e32:	781b      	ldrb	r3, [r3, #0]
 8018e34:	6003      	str	r3, [r0, #0]
 8018e36:	e77e      	b.n	8018d36 <svccall_handler+0x3e>
 8018e38:	4b1d      	ldr	r3, [pc, #116]	@ (8018eb0 <svccall_handler+0x1b8>)
 8018e3a:	681b      	ldr	r3, [r3, #0]
 8018e3c:	6023      	str	r3, [r4, #0]
 8018e3e:	e77a      	b.n	8018d36 <svccall_handler+0x3e>
 8018e40:	4b1a      	ldr	r3, [pc, #104]	@ (8018eac <svccall_handler+0x1b4>)
 8018e42:	6003      	str	r3, [r0, #0]
 8018e44:	e777      	b.n	8018d36 <svccall_handler+0x3e>
 8018e46:	2300      	movs	r3, #0
 8018e48:	9300      	str	r3, [sp, #0]
 8018e4a:	68c3      	ldr	r3, [r0, #12]
 8018e4c:	2203      	movs	r2, #3
 8018e4e:	6881      	ldr	r1, [r0, #8]
 8018e50:	6840      	ldr	r0, [r0, #4]
 8018e52:	f7ff fbff 	bl	8018654 <create>
 8018e56:	6020      	str	r0, [r4, #0]
 8018e58:	e76d      	b.n	8018d36 <svccall_handler+0x3e>
 8018e5a:	6840      	ldr	r0, [r0, #4]
 8018e5c:	f7ff fbec 	bl	8018638 <ready>
 8018e60:	e769      	b.n	8018d36 <svccall_handler+0x3e>
 8018e62:	f7ff fbad 	bl	80185c0 <getpid>
 8018e66:	6020      	str	r0, [r4, #0]
 8018e68:	e765      	b.n	8018d36 <svccall_handler+0x3e>
 8018e6a:	230c      	movs	r3, #12
 8018e6c:	6023      	str	r3, [r4, #0]
 8018e6e:	e762      	b.n	8018d36 <svccall_handler+0x3e>
 8018e70:	8982      	ldrh	r2, [r0, #12]
 8018e72:	7a01      	ldrb	r1, [r0, #8]
 8018e74:	6840      	ldr	r0, [r0, #4]
 8018e76:	f7f9 fcfb 	bl	8012870 <hw_cfg_pin>
 8018e7a:	e75c      	b.n	8018d36 <svccall_handler+0x3e>
 8018e7c:	7b02      	ldrb	r2, [r0, #12]
 8018e7e:	7a01      	ldrb	r1, [r0, #8]
 8018e80:	6840      	ldr	r0, [r0, #4]
 8018e82:	f7f9 fd3f 	bl	8012904 <hw_set_pin>
 8018e86:	e756      	b.n	8018d36 <svccall_handler+0x3e>
 8018e88:	7a01      	ldrb	r1, [r0, #8]
 8018e8a:	6840      	ldr	r0, [r0, #4]
 8018e8c:	f7f9 fd6a 	bl	8012964 <hw_get_pin>
 8018e90:	6020      	str	r0, [r4, #0]
 8018e92:	e750      	b.n	8018d36 <svccall_handler+0x3e>
 8018e94:	1fdfff3f 	.word	0x1fdfff3f
 8018e98:	0801a354 	.word	0x0801a354
 8018e9c:	08019fac 	.word	0x08019fac
 8018ea0:	2000248c 	.word	0x2000248c
 8018ea4:	200006d4 	.word	0x200006d4
 8018ea8:	20000124 	.word	0x20000124
 8018eac:	20000488 	.word	0x20000488
 8018eb0:	20000688 	.word	0x20000688

08018eb4 <usr>:
 8018eb4:	b500      	push	{lr}
 8018eb6:	b083      	sub	sp, #12
 8018eb8:	4808      	ldr	r0, [pc, #32]	@ (8018edc <usr+0x28>)
 8018eba:	f7ff fe51 	bl	8018b60 <syscall_init>
 8018ebe:	2300      	movs	r3, #0
 8018ec0:	9300      	str	r3, [sp, #0]
 8018ec2:	4b07      	ldr	r3, [pc, #28]	@ (8018ee0 <usr+0x2c>)
 8018ec4:	2201      	movs	r2, #1
 8018ec6:	f44f 5180 	mov.w	r1, #4096	@ 0x1000
 8018eca:	4806      	ldr	r0, [pc, #24]	@ (8018ee4 <usr+0x30>)
 8018ecc:	f7ff fbc2 	bl	8018654 <create>
 8018ed0:	f7ff fbb2 	bl	8018638 <ready>
 8018ed4:	b003      	add	sp, #12
 8018ed6:	f85d fb04 	ldr.w	pc, [sp], #4
 8018eda:	bf00      	nop
 8018edc:	200027c8 	.word	0x200027c8
 8018ee0:	0801a370 	.word	0x0801a370
 8018ee4:	080130a9 	.word	0x080130a9

08018ee8 <SetSysClock>:
 8018ee8:	4a1e      	ldr	r2, [pc, #120]	@ (8018f64 <SetSysClock+0x7c>)
 8018eea:	6813      	ldr	r3, [r2, #0]
 8018eec:	f443 3380 	orr.w	r3, r3, #65536	@ 0x10000
 8018ef0:	6013      	str	r3, [r2, #0]
 8018ef2:	4b1c      	ldr	r3, [pc, #112]	@ (8018f64 <SetSysClock+0x7c>)
 8018ef4:	681b      	ldr	r3, [r3, #0]
 8018ef6:	f413 3f00 	tst.w	r3, #131072	@ 0x20000
 8018efa:	d0fa      	beq.n	8018ef2 <SetSysClock+0xa>
 8018efc:	4b19      	ldr	r3, [pc, #100]	@ (8018f64 <SetSysClock+0x7c>)
 8018efe:	6c1a      	ldr	r2, [r3, #64]	@ 0x40
 8018f00:	f042 5280 	orr.w	r2, r2, #268435456	@ 0x10000000
 8018f04:	641a      	str	r2, [r3, #64]	@ 0x40
 8018f06:	4918      	ldr	r1, [pc, #96]	@ (8018f68 <SetSysClock+0x80>)
 8018f08:	680a      	ldr	r2, [r1, #0]
 8018f0a:	f442 4280 	orr.w	r2, r2, #16384	@ 0x4000
 8018f0e:	600a      	str	r2, [r1, #0]
 8018f10:	689a      	ldr	r2, [r3, #8]
 8018f12:	609a      	str	r2, [r3, #8]
 8018f14:	689a      	ldr	r2, [r3, #8]
 8018f16:	f442 4200 	orr.w	r2, r2, #32768	@ 0x8000
 8018f1a:	609a      	str	r2, [r3, #8]
 8018f1c:	689a      	ldr	r2, [r3, #8]
 8018f1e:	f442 52a0 	orr.w	r2, r2, #5120	@ 0x1400
 8018f22:	609a      	str	r2, [r3, #8]
 8018f24:	4a11      	ldr	r2, [pc, #68]	@ (8018f6c <SetSysClock+0x84>)
 8018f26:	605a      	str	r2, [r3, #4]
 8018f28:	681a      	ldr	r2, [r3, #0]
 8018f2a:	f042 7280 	orr.w	r2, r2, #16777216	@ 0x1000000
 8018f2e:	601a      	str	r2, [r3, #0]
 8018f30:	4b0c      	ldr	r3, [pc, #48]	@ (8018f64 <SetSysClock+0x7c>)
 8018f32:	681b      	ldr	r3, [r3, #0]
 8018f34:	f013 7f00 	tst.w	r3, #33554432	@ 0x2000000
 8018f38:	d0fa      	beq.n	8018f30 <SetSysClock+0x48>
 8018f3a:	4b0d      	ldr	r3, [pc, #52]	@ (8018f70 <SetSysClock+0x88>)
 8018f3c:	f240 7205 	movw	r2, #1797	@ 0x705
 8018f40:	601a      	str	r2, [r3, #0]
 8018f42:	f5a3 6380 	sub.w	r3, r3, #1024	@ 0x400
 8018f46:	689a      	ldr	r2, [r3, #8]
 8018f48:	f022 0203 	bic.w	r2, r2, #3
 8018f4c:	609a      	str	r2, [r3, #8]
 8018f4e:	689a      	ldr	r2, [r3, #8]
 8018f50:	f042 0202 	orr.w	r2, r2, #2
 8018f54:	609a      	str	r2, [r3, #8]
 8018f56:	4b03      	ldr	r3, [pc, #12]	@ (8018f64 <SetSysClock+0x7c>)
 8018f58:	689b      	ldr	r3, [r3, #8]
 8018f5a:	f003 030c 	and.w	r3, r3, #12
 8018f5e:	2b08      	cmp	r3, #8
 8018f60:	d1f9      	bne.n	8018f56 <SetSysClock+0x6e>
 8018f62:	4770      	bx	lr
 8018f64:	40023800 	.word	0x40023800
 8018f68:	40007000 	.word	0x40007000
 8018f6c:	08416019 	.word	0x08416019
 8018f70:	40023c00 	.word	0x40023c00

08018f74 <DWTInit>:
 8018f74:	4a07      	ldr	r2, [pc, #28]	@ (8018f94 <DWTInit+0x20>)
 8018f76:	f8d2 30fc 	ldr.w	r3, [r2, #252]	@ 0xfc
 8018f7a:	f043 7380 	orr.w	r3, r3, #16777216	@ 0x1000000
 8018f7e:	f8c2 30fc 	str.w	r3, [r2, #252]	@ 0xfc
 8018f82:	4b05      	ldr	r3, [pc, #20]	@ (8018f98 <DWTInit+0x24>)
 8018f84:	2200      	movs	r2, #0
 8018f86:	605a      	str	r2, [r3, #4]
 8018f88:	681a      	ldr	r2, [r3, #0]
 8018f8a:	f042 0201 	orr.w	r2, r2, #1
 8018f8e:	601a      	str	r2, [r3, #0]
 8018f90:	4770      	bx	lr
 8018f92:	bf00      	nop
 8018f94:	e000ed00 	.word	0xe000ed00
 8018f98:	e0001000 	.word	0xe0001000

08018f9c <init_systick>:
 8018f9c:	f04f 23e0 	mov.w	r3, #3758153728	@ 0xe000e000
 8018fa0:	2100      	movs	r1, #0
 8018fa2:	6119      	str	r1, [r3, #16]
 8018fa4:	691a      	ldr	r2, [r3, #16]
 8018fa6:	f042 0204 	orr.w	r2, r2, #4
 8018faa:	611a      	str	r2, [r3, #16]
 8018fac:	691a      	ldr	r2, [r3, #16]
 8018fae:	f042 0202 	orr.w	r2, r2, #2
 8018fb2:	611a      	str	r2, [r3, #16]
 8018fb4:	3801      	subs	r0, #1
 8018fb6:	6158      	str	r0, [r3, #20]
 8018fb8:	6199      	str	r1, [r3, #24]
 8018fba:	691a      	ldr	r2, [r3, #16]
 8018fbc:	f042 0201 	orr.w	r2, r2, #1
 8018fc0:	611a      	str	r2, [r3, #16]
 8018fc2:	4770      	bx	lr

08018fc4 <SystemCoreClockUpdate>:
 8018fc4:	4b22      	ldr	r3, [pc, #136]	@ (8019050 <SystemCoreClockUpdate+0x8c>)
 8018fc6:	689b      	ldr	r3, [r3, #8]
 8018fc8:	f003 030c 	and.w	r3, r3, #12
 8018fcc:	2b04      	cmp	r3, #4
 8018fce:	d014      	beq.n	8018ffa <SystemCoreClockUpdate+0x36>
 8018fd0:	2b08      	cmp	r3, #8
 8018fd2:	d016      	beq.n	8019002 <SystemCoreClockUpdate+0x3e>
 8018fd4:	b11b      	cbz	r3, 8018fde <SystemCoreClockUpdate+0x1a>
 8018fd6:	4b1f      	ldr	r3, [pc, #124]	@ (8019054 <SystemCoreClockUpdate+0x90>)
 8018fd8:	4a1f      	ldr	r2, [pc, #124]	@ (8019058 <SystemCoreClockUpdate+0x94>)
 8018fda:	601a      	str	r2, [r3, #0]
 8018fdc:	e002      	b.n	8018fe4 <SystemCoreClockUpdate+0x20>
 8018fde:	4b1d      	ldr	r3, [pc, #116]	@ (8019054 <SystemCoreClockUpdate+0x90>)
 8018fe0:	4a1d      	ldr	r2, [pc, #116]	@ (8019058 <SystemCoreClockUpdate+0x94>)
 8018fe2:	601a      	str	r2, [r3, #0]
 8018fe4:	4b1a      	ldr	r3, [pc, #104]	@ (8019050 <SystemCoreClockUpdate+0x8c>)
 8018fe6:	689b      	ldr	r3, [r3, #8]
 8018fe8:	f3c3 1303 	ubfx	r3, r3, #4, #4
 8018fec:	4a1b      	ldr	r2, [pc, #108]	@ (801905c <SystemCoreClockUpdate+0x98>)
 8018fee:	5cd1      	ldrb	r1, [r2, r3]
 8018ff0:	4a18      	ldr	r2, [pc, #96]	@ (8019054 <SystemCoreClockUpdate+0x90>)
 8018ff2:	6813      	ldr	r3, [r2, #0]
 8018ff4:	40cb      	lsrs	r3, r1
 8018ff6:	6013      	str	r3, [r2, #0]
 8018ff8:	4770      	bx	lr
 8018ffa:	4b16      	ldr	r3, [pc, #88]	@ (8019054 <SystemCoreClockUpdate+0x90>)
 8018ffc:	4a18      	ldr	r2, [pc, #96]	@ (8019060 <SystemCoreClockUpdate+0x9c>)
 8018ffe:	601a      	str	r2, [r3, #0]
 8019000:	e7f0      	b.n	8018fe4 <SystemCoreClockUpdate+0x20>
 8019002:	4b13      	ldr	r3, [pc, #76]	@ (8019050 <SystemCoreClockUpdate+0x8c>)
 8019004:	6859      	ldr	r1, [r3, #4]
 8019006:	685a      	ldr	r2, [r3, #4]
 8019008:	f002 023f 	and.w	r2, r2, #63	@ 0x3f
 801900c:	f411 0f80 	tst.w	r1, #4194304	@ 0x400000
 8019010:	d013      	beq.n	801903a <SystemCoreClockUpdate+0x76>
 8019012:	4b13      	ldr	r3, [pc, #76]	@ (8019060 <SystemCoreClockUpdate+0x9c>)
 8019014:	fbb3 f3f2 	udiv	r3, r3, r2
 8019018:	4a0d      	ldr	r2, [pc, #52]	@ (8019050 <SystemCoreClockUpdate+0x8c>)
 801901a:	6852      	ldr	r2, [r2, #4]
 801901c:	f3c2 1288 	ubfx	r2, r2, #6, #9
 8019020:	fb02 f303 	mul.w	r3, r2, r3
 8019024:	4a0a      	ldr	r2, [pc, #40]	@ (8019050 <SystemCoreClockUpdate+0x8c>)
 8019026:	6852      	ldr	r2, [r2, #4]
 8019028:	f3c2 4201 	ubfx	r2, r2, #16, #2
 801902c:	3201      	adds	r2, #1
 801902e:	0052      	lsls	r2, r2, #1
 8019030:	fbb3 f3f2 	udiv	r3, r3, r2
 8019034:	4a07      	ldr	r2, [pc, #28]	@ (8019054 <SystemCoreClockUpdate+0x90>)
 8019036:	6013      	str	r3, [r2, #0]
 8019038:	e7d4      	b.n	8018fe4 <SystemCoreClockUpdate+0x20>
 801903a:	4b07      	ldr	r3, [pc, #28]	@ (8019058 <SystemCoreClockUpdate+0x94>)
 801903c:	fbb3 f3f2 	udiv	r3, r3, r2
 8019040:	4a03      	ldr	r2, [pc, #12]	@ (8019050 <SystemCoreClockUpdate+0x8c>)
 8019042:	6852      	ldr	r2, [r2, #4]
 8019044:	f3c2 1288 	ubfx	r2, r2, #6, #9
 8019048:	fb02 f303 	mul.w	r3, r2, r3
 801904c:	e7ea      	b.n	8019024 <SystemCoreClockUpdate+0x60>
 801904e:	bf00      	nop
 8019050:	40023800 	.word	0x40023800
 8019054:	20000100 	.word	0x20000100
 8019058:	00f42400 	.word	0x00f42400
 801905c:	08019ec0 	.word	0x08019ec0
 8019060:	017d7840 	.word	0x017d7840

08019064 <set_sysclk_to_168>:
 8019064:	4a1f      	ldr	r2, [pc, #124]	@ (80190e4 <set_sysclk_to_168+0x80>)
 8019066:	6813      	ldr	r3, [r2, #0]
 8019068:	f443 3380 	orr.w	r3, r3, #65536	@ 0x10000
 801906c:	6013      	str	r3, [r2, #0]
 801906e:	4b1d      	ldr	r3, [pc, #116]	@ (80190e4 <set_sysclk_to_168+0x80>)
 8019070:	681b      	ldr	r3, [r3, #0]
 8019072:	f413 3f00 	tst.w	r3, #131072	@ 0x20000
 8019076:	d0fa      	beq.n	801906e <set_sysclk_to_168+0xa>
 8019078:	4b1a      	ldr	r3, [pc, #104]	@ (80190e4 <set_sysclk_to_168+0x80>)
 801907a:	6c1a      	ldr	r2, [r3, #64]	@ 0x40
 801907c:	f042 5280 	orr.w	r2, r2, #268435456	@ 0x10000000
 8019080:	641a      	str	r2, [r3, #64]	@ 0x40
 8019082:	4919      	ldr	r1, [pc, #100]	@ (80190e8 <set_sysclk_to_168+0x84>)
 8019084:	680a      	ldr	r2, [r1, #0]
 8019086:	f442 4280 	orr.w	r2, r2, #16384	@ 0x4000
 801908a:	600a      	str	r2, [r1, #0]
 801908c:	689a      	ldr	r2, [r3, #8]
 801908e:	609a      	str	r2, [r3, #8]
 8019090:	689a      	ldr	r2, [r3, #8]
 8019092:	f442 52a0 	orr.w	r2, r2, #5120	@ 0x1400
 8019096:	609a      	str	r2, [r3, #8]
 8019098:	689a      	ldr	r2, [r3, #8]
 801909a:	f442 4200 	orr.w	r2, r2, #32768	@ 0x8000
 801909e:	609a      	str	r2, [r3, #8]
 80190a0:	4a12      	ldr	r2, [pc, #72]	@ (80190ec <set_sysclk_to_168+0x88>)
 80190a2:	605a      	str	r2, [r3, #4]
 80190a4:	681a      	ldr	r2, [r3, #0]
 80190a6:	f042 7280 	orr.w	r2, r2, #16777216	@ 0x1000000
 80190aa:	601a      	str	r2, [r3, #0]
 80190ac:	4b0d      	ldr	r3, [pc, #52]	@ (80190e4 <set_sysclk_to_168+0x80>)
 80190ae:	681b      	ldr	r3, [r3, #0]
 80190b0:	f013 7f00 	tst.w	r3, #33554432	@ 0x2000000
 80190b4:	d0fa      	beq.n	80190ac <set_sysclk_to_168+0x48>
 80190b6:	4b0e      	ldr	r3, [pc, #56]	@ (80190f0 <set_sysclk_to_168+0x8c>)
 80190b8:	f240 7205 	movw	r2, #1797	@ 0x705
 80190bc:	601a      	str	r2, [r3, #0]
 80190be:	f5a3 6380 	sub.w	r3, r3, #1024	@ 0x400
 80190c2:	689a      	ldr	r2, [r3, #8]
 80190c4:	f022 0203 	bic.w	r2, r2, #3
 80190c8:	609a      	str	r2, [r3, #8]
 80190ca:	689a      	ldr	r2, [r3, #8]
 80190cc:	f042 0202 	orr.w	r2, r2, #2
 80190d0:	609a      	str	r2, [r3, #8]
 80190d2:	4b04      	ldr	r3, [pc, #16]	@ (80190e4 <set_sysclk_to_168+0x80>)
 80190d4:	689b      	ldr	r3, [r3, #8]
 80190d6:	f013 0f08 	tst.w	r3, #8
 80190da:	d0fa      	beq.n	80190d2 <set_sysclk_to_168+0x6e>
 80190dc:	4b05      	ldr	r3, [pc, #20]	@ (80190f4 <set_sysclk_to_168+0x90>)
 80190de:	4a06      	ldr	r2, [pc, #24]	@ (80190f8 <set_sysclk_to_168+0x94>)
 80190e0:	601a      	str	r2, [r3, #0]
 80190e2:	4770      	bx	lr
 80190e4:	40023800 	.word	0x40023800
 80190e8:	40007000 	.word	0x40007000
 80190ec:	08416019 	.word	0x08416019
 80190f0:	40023c00 	.word	0x40023c00
 80190f4:	20000100 	.word	0x20000100
 80190f8:	05f5e100 	.word	0x05f5e100

080190fc <systemInit>:
 80190fc:	b508      	push	{r3, lr}
 80190fe:	f000 fc83 	bl	8019a08 <irq_disable>
 8019102:	4b3a      	ldr	r3, [pc, #232]	@ (80191ec <systemInit+0xf0>)
 8019104:	6b5a      	ldr	r2, [r3, #52]	@ 0x34
 8019106:	f022 0280 	bic.w	r2, r2, #128	@ 0x80
 801910a:	635a      	str	r2, [r3, #52]	@ 0x34
 801910c:	6b1a      	ldr	r2, [r3, #48]	@ 0x30
 801910e:	f022 0201 	bic.w	r2, r2, #1
 8019112:	631a      	str	r2, [r3, #48]	@ 0x30
 8019114:	6b1a      	ldr	r2, [r3, #48]	@ 0x30
 8019116:	f022 0202 	bic.w	r2, r2, #2
 801911a:	631a      	str	r2, [r3, #48]	@ 0x30
 801911c:	6b1a      	ldr	r2, [r3, #48]	@ 0x30
 801911e:	f022 0204 	bic.w	r2, r2, #4
 8019122:	631a      	str	r2, [r3, #48]	@ 0x30
 8019124:	681a      	ldr	r2, [r3, #0]
 8019126:	f042 0201 	orr.w	r2, r2, #1
 801912a:	601a      	str	r2, [r3, #0]
 801912c:	2100      	movs	r1, #0
 801912e:	6099      	str	r1, [r3, #8]
 8019130:	681a      	ldr	r2, [r3, #0]
 8019132:	f022 7286 	bic.w	r2, r2, #17563648	@ 0x10c0000
 8019136:	f422 3280 	bic.w	r2, r2, #65536	@ 0x10000
 801913a:	601a      	str	r2, [r3, #0]
 801913c:	4a2c      	ldr	r2, [pc, #176]	@ (80191f0 <systemInit+0xf4>)
 801913e:	605a      	str	r2, [r3, #4]
 8019140:	60d9      	str	r1, [r3, #12]
 8019142:	4a2c      	ldr	r2, [pc, #176]	@ (80191f4 <systemInit+0xf8>)
 8019144:	6011      	str	r1, [r2, #0]
 8019146:	492c      	ldr	r1, [pc, #176]	@ (80191f8 <systemInit+0xfc>)
 8019148:	680a      	ldr	r2, [r1, #0]
 801914a:	f022 020f 	bic.w	r2, r2, #15
 801914e:	f042 0203 	orr.w	r2, r2, #3
 8019152:	600a      	str	r2, [r1, #0]
 8019154:	6859      	ldr	r1, [r3, #4]
 8019156:	f021 6174 	bic.w	r1, r1, #255852544	@ 0xf400000
 801915a:	f421 315f 	bic.w	r1, r1, #228352	@ 0x37c00
 801915e:	f421 717f 	bic.w	r1, r1, #1020	@ 0x3fc
 8019162:	f021 0103 	bic.w	r1, r1, #3
 8019166:	4a25      	ldr	r2, [pc, #148]	@ (80191fc <systemInit+0x100>)
 8019168:	430a      	orrs	r2, r1
 801916a:	605a      	str	r2, [r3, #4]
 801916c:	681a      	ldr	r2, [r3, #0]
 801916e:	f042 7280 	orr.w	r2, r2, #16777216	@ 0x1000000
 8019172:	601a      	str	r2, [r3, #0]
 8019174:	4b1d      	ldr	r3, [pc, #116]	@ (80191ec <systemInit+0xf0>)
 8019176:	681b      	ldr	r3, [r3, #0]
 8019178:	f013 7f00 	tst.w	r3, #33554432	@ 0x2000000
 801917c:	d0fa      	beq.n	8019174 <systemInit+0x78>
 801917e:	e000      	b.n	8019182 <systemInit+0x86>
 8019180:	bf00      	nop
 8019182:	4b1a      	ldr	r3, [pc, #104]	@ (80191ec <systemInit+0xf0>)
 8019184:	681b      	ldr	r3, [r3, #0]
 8019186:	f013 7f00 	tst.w	r3, #33554432	@ 0x2000000
 801918a:	d0f9      	beq.n	8019180 <systemInit+0x84>
 801918c:	4a17      	ldr	r2, [pc, #92]	@ (80191ec <systemInit+0xf0>)
 801918e:	6893      	ldr	r3, [r2, #8]
 8019190:	f023 0303 	bic.w	r3, r3, #3
 8019194:	f043 0302 	orr.w	r3, r3, #2
 8019198:	6093      	str	r3, [r2, #8]
 801919a:	4b14      	ldr	r3, [pc, #80]	@ (80191ec <systemInit+0xf0>)
 801919c:	689b      	ldr	r3, [r3, #8]
 801919e:	f003 030c 	and.w	r3, r3, #12
 80191a2:	2b08      	cmp	r3, #8
 80191a4:	d1f9      	bne.n	801919a <systemInit+0x9e>
 80191a6:	4b11      	ldr	r3, [pc, #68]	@ (80191ec <systemInit+0xf0>)
 80191a8:	6b1a      	ldr	r2, [r3, #48]	@ 0x30
 80191aa:	f042 0201 	orr.w	r2, r2, #1
 80191ae:	631a      	str	r2, [r3, #48]	@ 0x30
 80191b0:	6b1a      	ldr	r2, [r3, #48]	@ 0x30
 80191b2:	f042 0202 	orr.w	r2, r2, #2
 80191b6:	631a      	str	r2, [r3, #48]	@ 0x30
 80191b8:	6b1a      	ldr	r2, [r3, #48]	@ 0x30
 80191ba:	f042 0204 	orr.w	r2, r2, #4
 80191be:	631a      	str	r2, [r3, #48]	@ 0x30
 80191c0:	490f      	ldr	r1, [pc, #60]	@ (8019200 <systemInit+0x104>)
 80191c2:	6a4a      	ldr	r2, [r1, #36]	@ 0x24
 80191c4:	f442 222a 	orr.w	r2, r2, #696320	@ 0xaa000
 80191c8:	624a      	str	r2, [r1, #36]	@ 0x24
 80191ca:	680a      	ldr	r2, [r1, #0]
 80191cc:	f022 7270 	bic.w	r2, r2, #62914560	@ 0x3c00000
 80191d0:	f042 7220 	orr.w	r2, r2, #41943040	@ 0x2800000
 80191d4:	600a      	str	r2, [r1, #0]
 80191d6:	6c1a      	ldr	r2, [r3, #64]	@ 0x40
 80191d8:	f042 5280 	orr.w	r2, r2, #268435456	@ 0x10000000
 80191dc:	641a      	str	r2, [r3, #64]	@ 0x40
 80191de:	4b03      	ldr	r3, [pc, #12]	@ (80191ec <systemInit+0xf0>)
 80191e0:	689b      	ldr	r3, [r3, #8]
 80191e2:	f003 030c 	and.w	r3, r3, #12
 80191e6:	2b08      	cmp	r3, #8
 80191e8:	d1f9      	bne.n	80191de <systemInit+0xe2>
 80191ea:	bd08      	pop	{r3, pc}
 80191ec:	40023800 	.word	0x40023800
 80191f0:	24003010 	.word	0x24003010
 80191f4:	200027b8 	.word	0x200027b8
 80191f8:	40023c00 	.word	0x40023c00
 80191fc:	03001208 	.word	0x03001208
 8019200:	40020000 	.word	0x40020000

08019204 <Reset_Handler>:
 8019204:	b510      	push	{r4, lr}
 8019206:	4b2a      	ldr	r3, [pc, #168]	@ (80192b0 <Reset_Handler+0xac>)
 8019208:	4a2a      	ldr	r2, [pc, #168]	@ (80192b4 <Reset_Handler+0xb0>)
 801920a:	e003      	b.n	8019214 <Reset_Handler+0x10>
 801920c:	f812 1b01 	ldrb.w	r1, [r2], #1
 8019210:	f803 1b01 	strb.w	r1, [r3], #1
 8019214:	4928      	ldr	r1, [pc, #160]	@ (80192b8 <Reset_Handler+0xb4>)
 8019216:	428b      	cmp	r3, r1
 8019218:	d3f8      	bcc.n	801920c <Reset_Handler+0x8>
 801921a:	4b28      	ldr	r3, [pc, #160]	@ (80192bc <Reset_Handler+0xb8>)
 801921c:	e002      	b.n	8019224 <Reset_Handler+0x20>
 801921e:	2200      	movs	r2, #0
 8019220:	f803 2b01 	strb.w	r2, [r3], #1
 8019224:	4a26      	ldr	r2, [pc, #152]	@ (80192c0 <Reset_Handler+0xbc>)
 8019226:	4293      	cmp	r3, r2
 8019228:	d3f9      	bcc.n	801921e <Reset_Handler+0x1a>
 801922a:	f000 fbed 	bl	8019a08 <irq_disable>
 801922e:	4c25      	ldr	r4, [pc, #148]	@ (80192c4 <Reset_Handler+0xc0>)
 8019230:	6b23      	ldr	r3, [r4, #48]	@ 0x30
 8019232:	f043 0301 	orr.w	r3, r3, #1
 8019236:	6323      	str	r3, [r4, #48]	@ 0x30
 8019238:	6b23      	ldr	r3, [r4, #48]	@ 0x30
 801923a:	f043 0302 	orr.w	r3, r3, #2
 801923e:	6323      	str	r3, [r4, #48]	@ 0x30
 8019240:	6b23      	ldr	r3, [r4, #48]	@ 0x30
 8019242:	f043 0304 	orr.w	r3, r3, #4
 8019246:	6323      	str	r3, [r4, #48]	@ 0x30
 8019248:	4a1f      	ldr	r2, [pc, #124]	@ (80192c8 <Reset_Handler+0xc4>)
 801924a:	4b20      	ldr	r3, [pc, #128]	@ (80192cc <Reset_Handler+0xc8>)
 801924c:	609a      	str	r2, [r3, #8]
 801924e:	f7ff fe4b 	bl	8018ee8 <SetSysClock>
 8019252:	f7ff feb7 	bl	8018fc4 <SystemCoreClockUpdate>
 8019256:	481e      	ldr	r0, [pc, #120]	@ (80192d0 <Reset_Handler+0xcc>)
 8019258:	f7ff fea0 	bl	8018f9c <init_systick>
 801925c:	f7ff fe8a 	bl	8018f74 <DWTInit>
 8019260:	f000 fb1a 	bl	8019898 <uartinit>
 8019264:	f7f7 fd42 	bl	8010cec <meminit>
 8019268:	6b63      	ldr	r3, [r4, #52]	@ 0x34
 801926a:	f043 0380 	orr.w	r3, r3, #128	@ 0x80
 801926e:	6363      	str	r3, [r4, #52]	@ 0x34
 8019270:	4a18      	ldr	r2, [pc, #96]	@ (80192d4 <Reset_Handler+0xd0>)
 8019272:	6a53      	ldr	r3, [r2, #36]	@ 0x24
 8019274:	f443 232a 	orr.w	r3, r3, #696320	@ 0xaa000
 8019278:	6253      	str	r3, [r2, #36]	@ 0x24
 801927a:	6813      	ldr	r3, [r2, #0]
 801927c:	f023 7370 	bic.w	r3, r3, #62914560	@ 0x3c00000
 8019280:	f043 7320 	orr.w	r3, r3, #41943040	@ 0x2800000
 8019284:	6013      	str	r3, [r2, #0]
 8019286:	f7fb fac1 	bl	801480c <cdc_init_usbd>
 801928a:	4b13      	ldr	r3, [pc, #76]	@ (80192d8 <Reset_Handler+0xd4>)
 801928c:	2208      	movs	r2, #8
 801928e:	609a      	str	r2, [r3, #8]
 8019290:	4c12      	ldr	r4, [pc, #72]	@ (80192dc <Reset_Handler+0xd8>)
 8019292:	6823      	ldr	r3, [r4, #0]
 8019294:	685b      	ldr	r3, [r3, #4]
 8019296:	2001      	movs	r0, #1
 8019298:	4798      	blx	r3
 801929a:	6823      	ldr	r3, [r4, #0]
 801929c:	689b      	ldr	r3, [r3, #8]
 801929e:	2001      	movs	r0, #1
 80192a0:	4798      	blx	r3
 80192a2:	f000 fbb9 	bl	8019a18 <irq_enable>
 80192a6:	f000 fa5d 	bl	8019764 <main>
 80192aa:	bf00      	nop
 80192ac:	e7fd      	b.n	80192aa <Reset_Handler+0xa6>
 80192ae:	bf00      	nop
 80192b0:	20000000 	.word	0x20000000
 80192b4:	0801a3fc 	.word	0x0801a3fc
 80192b8:	20000104 	.word	0x20000104
 80192bc:	20000108 	.word	0x20000108
 80192c0:	200028d0 	.word	0x200028d0
 80192c4:	40023800 	.word	0x40023800
 80192c8:	08010000 	.word	0x08010000
 80192cc:	e000ed00 	.word	0xe000ed00
 80192d0:	000186a0 	.word	0x000186a0
 80192d4:	40020000 	.word	0x40020000
 80192d8:	e000e100 	.word	0xe000e100
 80192dc:	200006d4 	.word	0x200006d4

080192e0 <unlock_flash>:
 80192e0:	4b05      	ldr	r3, [pc, #20]	@ (80192f8 <unlock_flash+0x18>)
 80192e2:	691b      	ldr	r3, [r3, #16]
 80192e4:	2b00      	cmp	r3, #0
 80192e6:	db00      	blt.n	80192ea <unlock_flash+0xa>
 80192e8:	4770      	bx	lr
 80192ea:	4b03      	ldr	r3, [pc, #12]	@ (80192f8 <unlock_flash+0x18>)
 80192ec:	4a03      	ldr	r2, [pc, #12]	@ (80192fc <unlock_flash+0x1c>)
 80192ee:	605a      	str	r2, [r3, #4]
 80192f0:	f102 3288 	add.w	r2, r2, #2290649224	@ 0x88888888
 80192f4:	605a      	str	r2, [r3, #4]
 80192f6:	e7f7      	b.n	80192e8 <unlock_flash+0x8>
 80192f8:	40023c00 	.word	0x40023c00
 80192fc:	45670123 	.word	0x45670123

08019300 <lock_flash>:
 8019300:	4a02      	ldr	r2, [pc, #8]	@ (801930c <lock_flash+0xc>)
 8019302:	6913      	ldr	r3, [r2, #16]
 8019304:	f043 4300 	orr.w	r3, r3, #2147483648	@ 0x80000000
 8019308:	6113      	str	r3, [r2, #16]
 801930a:	4770      	bx	lr
 801930c:	40023c00 	.word	0x40023c00

08019310 <erase_flash_sector>:
 8019310:	b510      	push	{r4, lr}
 8019312:	4604      	mov	r4, r0
 8019314:	f000 fb78 	bl	8019a08 <irq_disable>
 8019318:	4b11      	ldr	r3, [pc, #68]	@ (8019360 <erase_flash_sector+0x50>)
 801931a:	68db      	ldr	r3, [r3, #12]
 801931c:	f413 3f80 	tst.w	r3, #65536	@ 0x10000
 8019320:	d1fa      	bne.n	8019318 <erase_flash_sector+0x8>
 8019322:	4b0f      	ldr	r3, [pc, #60]	@ (8019360 <erase_flash_sector+0x50>)
 8019324:	691a      	ldr	r2, [r3, #16]
 8019326:	f042 0202 	orr.w	r2, r2, #2
 801932a:	611a      	str	r2, [r3, #16]
 801932c:	691a      	ldr	r2, [r3, #16]
 801932e:	ea42 02c4 	orr.w	r2, r2, r4, lsl #3
 8019332:	611a      	str	r2, [r3, #16]
 8019334:	691a      	ldr	r2, [r3, #16]
 8019336:	f442 3280 	orr.w	r2, r2, #65536	@ 0x10000
 801933a:	611a      	str	r2, [r3, #16]
 801933c:	4b08      	ldr	r3, [pc, #32]	@ (8019360 <erase_flash_sector+0x50>)
 801933e:	68db      	ldr	r3, [r3, #12]
 8019340:	f413 3f80 	tst.w	r3, #65536	@ 0x10000
 8019344:	d1fa      	bne.n	801933c <erase_flash_sector+0x2c>
 8019346:	4b06      	ldr	r3, [pc, #24]	@ (8019360 <erase_flash_sector+0x50>)
 8019348:	691a      	ldr	r2, [r3, #16]
 801934a:	f022 0202 	bic.w	r2, r2, #2
 801934e:	611a      	str	r2, [r3, #16]
 8019350:	691a      	ldr	r2, [r3, #16]
 8019352:	f022 0278 	bic.w	r2, r2, #120	@ 0x78
 8019356:	611a      	str	r2, [r3, #16]
 8019358:	f000 fb5e 	bl	8019a18 <irq_enable>
 801935c:	bd10      	pop	{r4, pc}
 801935e:	bf00      	nop
 8019360:	40023c00 	.word	0x40023c00

08019364 <erase_flash_sector3>:
 8019364:	b508      	push	{r3, lr}
 8019366:	f000 fb4f 	bl	8019a08 <irq_disable>
 801936a:	4b11      	ldr	r3, [pc, #68]	@ (80193b0 <erase_flash_sector3+0x4c>)
 801936c:	68db      	ldr	r3, [r3, #12]
 801936e:	f413 3f80 	tst.w	r3, #65536	@ 0x10000
 8019372:	d1fa      	bne.n	801936a <erase_flash_sector3+0x6>
 8019374:	4b0e      	ldr	r3, [pc, #56]	@ (80193b0 <erase_flash_sector3+0x4c>)
 8019376:	691a      	ldr	r2, [r3, #16]
 8019378:	f042 0202 	orr.w	r2, r2, #2
 801937c:	611a      	str	r2, [r3, #16]
 801937e:	691a      	ldr	r2, [r3, #16]
 8019380:	f042 0218 	orr.w	r2, r2, #24
 8019384:	611a      	str	r2, [r3, #16]
 8019386:	691a      	ldr	r2, [r3, #16]
 8019388:	f442 3280 	orr.w	r2, r2, #65536	@ 0x10000
 801938c:	611a      	str	r2, [r3, #16]
 801938e:	4b08      	ldr	r3, [pc, #32]	@ (80193b0 <erase_flash_sector3+0x4c>)
 8019390:	68db      	ldr	r3, [r3, #12]
 8019392:	f413 3f80 	tst.w	r3, #65536	@ 0x10000
 8019396:	d1fa      	bne.n	801938e <erase_flash_sector3+0x2a>
 8019398:	4b05      	ldr	r3, [pc, #20]	@ (80193b0 <erase_flash_sector3+0x4c>)
 801939a:	691a      	ldr	r2, [r3, #16]
 801939c:	f022 0202 	bic.w	r2, r2, #2
 80193a0:	611a      	str	r2, [r3, #16]
 80193a2:	691a      	ldr	r2, [r3, #16]
 80193a4:	f022 0278 	bic.w	r2, r2, #120	@ 0x78
 80193a8:	611a      	str	r2, [r3, #16]
 80193aa:	f000 fb35 	bl	8019a18 <irq_enable>
 80193ae:	bd08      	pop	{r3, pc}
 80193b0:	40023c00 	.word	0x40023c00

080193b4 <erase_flash_sector4>:
 80193b4:	b508      	push	{r3, lr}
 80193b6:	f000 fb27 	bl	8019a08 <irq_disable>
 80193ba:	4b11      	ldr	r3, [pc, #68]	@ (8019400 <erase_flash_sector4+0x4c>)
 80193bc:	68db      	ldr	r3, [r3, #12]
 80193be:	f413 3f80 	tst.w	r3, #65536	@ 0x10000
 80193c2:	d1fa      	bne.n	80193ba <erase_flash_sector4+0x6>
 80193c4:	4b0e      	ldr	r3, [pc, #56]	@ (8019400 <erase_flash_sector4+0x4c>)
 80193c6:	691a      	ldr	r2, [r3, #16]
 80193c8:	f042 0202 	orr.w	r2, r2, #2
 80193cc:	611a      	str	r2, [r3, #16]
 80193ce:	691a      	ldr	r2, [r3, #16]
 80193d0:	f042 0220 	orr.w	r2, r2, #32
 80193d4:	611a      	str	r2, [r3, #16]
 80193d6:	691a      	ldr	r2, [r3, #16]
 80193d8:	f442 3280 	orr.w	r2, r2, #65536	@ 0x10000
 80193dc:	611a      	str	r2, [r3, #16]
 80193de:	4b08      	ldr	r3, [pc, #32]	@ (8019400 <erase_flash_sector4+0x4c>)
 80193e0:	68db      	ldr	r3, [r3, #12]
 80193e2:	f413 3f80 	tst.w	r3, #65536	@ 0x10000
 80193e6:	d1fa      	bne.n	80193de <erase_flash_sector4+0x2a>
 80193e8:	4b05      	ldr	r3, [pc, #20]	@ (8019400 <erase_flash_sector4+0x4c>)
 80193ea:	691a      	ldr	r2, [r3, #16]
 80193ec:	f022 0202 	bic.w	r2, r2, #2
 80193f0:	611a      	str	r2, [r3, #16]
 80193f2:	691a      	ldr	r2, [r3, #16]
 80193f4:	f022 0278 	bic.w	r2, r2, #120	@ 0x78
 80193f8:	611a      	str	r2, [r3, #16]
 80193fa:	f000 fb0d 	bl	8019a18 <irq_enable>
 80193fe:	bd08      	pop	{r3, pc}
 8019400:	40023c00 	.word	0x40023c00

08019404 <erase_flash_sector5>:
 8019404:	b508      	push	{r3, lr}
 8019406:	f000 faff 	bl	8019a08 <irq_disable>
 801940a:	4b11      	ldr	r3, [pc, #68]	@ (8019450 <erase_flash_sector5+0x4c>)
 801940c:	68db      	ldr	r3, [r3, #12]
 801940e:	f413 3f80 	tst.w	r3, #65536	@ 0x10000
 8019412:	d1fa      	bne.n	801940a <erase_flash_sector5+0x6>
 8019414:	4b0e      	ldr	r3, [pc, #56]	@ (8019450 <erase_flash_sector5+0x4c>)
 8019416:	691a      	ldr	r2, [r3, #16]
 8019418:	f042 0202 	orr.w	r2, r2, #2
 801941c:	611a      	str	r2, [r3, #16]
 801941e:	691a      	ldr	r2, [r3, #16]
 8019420:	f042 0228 	orr.w	r2, r2, #40	@ 0x28
 8019424:	611a      	str	r2, [r3, #16]
 8019426:	691a      	ldr	r2, [r3, #16]
 8019428:	f442 3280 	orr.w	r2, r2, #65536	@ 0x10000
 801942c:	611a      	str	r2, [r3, #16]
 801942e:	4b08      	ldr	r3, [pc, #32]	@ (8019450 <erase_flash_sector5+0x4c>)
 8019430:	68db      	ldr	r3, [r3, #12]
 8019432:	f413 3f80 	tst.w	r3, #65536	@ 0x10000
 8019436:	d1fa      	bne.n	801942e <erase_flash_sector5+0x2a>
 8019438:	4b05      	ldr	r3, [pc, #20]	@ (8019450 <erase_flash_sector5+0x4c>)
 801943a:	691a      	ldr	r2, [r3, #16]
 801943c:	f022 0202 	bic.w	r2, r2, #2
 8019440:	611a      	str	r2, [r3, #16]
 8019442:	691a      	ldr	r2, [r3, #16]
 8019444:	f022 0278 	bic.w	r2, r2, #120	@ 0x78
 8019448:	611a      	str	r2, [r3, #16]
 801944a:	f000 fae5 	bl	8019a18 <irq_enable>
 801944e:	bd08      	pop	{r3, pc}
 8019450:	40023c00 	.word	0x40023c00

08019454 <erase_flash_sector6>:
 8019454:	b508      	push	{r3, lr}
 8019456:	f000 fad7 	bl	8019a08 <irq_disable>
 801945a:	4b11      	ldr	r3, [pc, #68]	@ (80194a0 <erase_flash_sector6+0x4c>)
 801945c:	68db      	ldr	r3, [r3, #12]
 801945e:	f413 3f80 	tst.w	r3, #65536	@ 0x10000
 8019462:	d1fa      	bne.n	801945a <erase_flash_sector6+0x6>
 8019464:	4b0e      	ldr	r3, [pc, #56]	@ (80194a0 <erase_flash_sector6+0x4c>)
 8019466:	691a      	ldr	r2, [r3, #16]
 8019468:	f042 0202 	orr.w	r2, r2, #2
 801946c:	611a      	str	r2, [r3, #16]
 801946e:	691a      	ldr	r2, [r3, #16]
 8019470:	f042 0230 	orr.w	r2, r2, #48	@ 0x30
 8019474:	611a      	str	r2, [r3, #16]
 8019476:	691a      	ldr	r2, [r3, #16]
 8019478:	f442 3280 	orr.w	r2, r2, #65536	@ 0x10000
 801947c:	611a      	str	r2, [r3, #16]
 801947e:	4b08      	ldr	r3, [pc, #32]	@ (80194a0 <erase_flash_sector6+0x4c>)
 8019480:	68db      	ldr	r3, [r3, #12]
 8019482:	f413 3f80 	tst.w	r3, #65536	@ 0x10000
 8019486:	d1fa      	bne.n	801947e <erase_flash_sector6+0x2a>
 8019488:	4b05      	ldr	r3, [pc, #20]	@ (80194a0 <erase_flash_sector6+0x4c>)
 801948a:	691a      	ldr	r2, [r3, #16]
 801948c:	f022 0202 	bic.w	r2, r2, #2
 8019490:	611a      	str	r2, [r3, #16]
 8019492:	691a      	ldr	r2, [r3, #16]
 8019494:	f022 0278 	bic.w	r2, r2, #120	@ 0x78
 8019498:	611a      	str	r2, [r3, #16]
 801949a:	f000 fabd 	bl	8019a18 <irq_enable>
 801949e:	bd08      	pop	{r3, pc}
 80194a0:	40023c00 	.word	0x40023c00

080194a4 <erase_flash_sector7>:
 80194a4:	b508      	push	{r3, lr}
 80194a6:	f000 faaf 	bl	8019a08 <irq_disable>
 80194aa:	4b11      	ldr	r3, [pc, #68]	@ (80194f0 <erase_flash_sector7+0x4c>)
 80194ac:	68db      	ldr	r3, [r3, #12]
 80194ae:	f413 3f80 	tst.w	r3, #65536	@ 0x10000
 80194b2:	d1fa      	bne.n	80194aa <erase_flash_sector7+0x6>
 80194b4:	4b0e      	ldr	r3, [pc, #56]	@ (80194f0 <erase_flash_sector7+0x4c>)
 80194b6:	691a      	ldr	r2, [r3, #16]
 80194b8:	f042 0202 	orr.w	r2, r2, #2
 80194bc:	611a      	str	r2, [r3, #16]
 80194be:	691a      	ldr	r2, [r3, #16]
 80194c0:	f042 0238 	orr.w	r2, r2, #56	@ 0x38
 80194c4:	611a      	str	r2, [r3, #16]
 80194c6:	691a      	ldr	r2, [r3, #16]
 80194c8:	f442 3280 	orr.w	r2, r2, #65536	@ 0x10000
 80194cc:	611a      	str	r2, [r3, #16]
 80194ce:	4b08      	ldr	r3, [pc, #32]	@ (80194f0 <erase_flash_sector7+0x4c>)
 80194d0:	68db      	ldr	r3, [r3, #12]
 80194d2:	f413 3f80 	tst.w	r3, #65536	@ 0x10000
 80194d6:	d1fa      	bne.n	80194ce <erase_flash_sector7+0x2a>
 80194d8:	4b05      	ldr	r3, [pc, #20]	@ (80194f0 <erase_flash_sector7+0x4c>)
 80194da:	691a      	ldr	r2, [r3, #16]
 80194dc:	f022 0202 	bic.w	r2, r2, #2
 80194e0:	611a      	str	r2, [r3, #16]
 80194e2:	691a      	ldr	r2, [r3, #16]
 80194e4:	f022 0278 	bic.w	r2, r2, #120	@ 0x78
 80194e8:	611a      	str	r2, [r3, #16]
 80194ea:	f000 fa95 	bl	8019a18 <irq_enable>
 80194ee:	bd08      	pop	{r3, pc}
 80194f0:	40023c00 	.word	0x40023c00

080194f4 <erase_flash_sector8>:
 80194f4:	b508      	push	{r3, lr}
 80194f6:	f000 fa87 	bl	8019a08 <irq_disable>
 80194fa:	4b11      	ldr	r3, [pc, #68]	@ (8019540 <erase_flash_sector8+0x4c>)
 80194fc:	68db      	ldr	r3, [r3, #12]
 80194fe:	f413 3f80 	tst.w	r3, #65536	@ 0x10000
 8019502:	d1fa      	bne.n	80194fa <erase_flash_sector8+0x6>
 8019504:	4b0e      	ldr	r3, [pc, #56]	@ (8019540 <erase_flash_sector8+0x4c>)
 8019506:	691a      	ldr	r2, [r3, #16]
 8019508:	f042 0202 	orr.w	r2, r2, #2
 801950c:	611a      	str	r2, [r3, #16]
 801950e:	691a      	ldr	r2, [r3, #16]
 8019510:	f042 0240 	orr.w	r2, r2, #64	@ 0x40
 8019514:	611a      	str	r2, [r3, #16]
 8019516:	691a      	ldr	r2, [r3, #16]
 8019518:	f442 3280 	orr.w	r2, r2, #65536	@ 0x10000
 801951c:	611a      	str	r2, [r3, #16]
 801951e:	4b08      	ldr	r3, [pc, #32]	@ (8019540 <erase_flash_sector8+0x4c>)
 8019520:	68db      	ldr	r3, [r3, #12]
 8019522:	f413 3f80 	tst.w	r3, #65536	@ 0x10000
 8019526:	d1fa      	bne.n	801951e <erase_flash_sector8+0x2a>
 8019528:	4b05      	ldr	r3, [pc, #20]	@ (8019540 <erase_flash_sector8+0x4c>)
 801952a:	691a      	ldr	r2, [r3, #16]
 801952c:	f022 0202 	bic.w	r2, r2, #2
 8019530:	611a      	str	r2, [r3, #16]
 8019532:	691a      	ldr	r2, [r3, #16]
 8019534:	f022 0278 	bic.w	r2, r2, #120	@ 0x78
 8019538:	611a      	str	r2, [r3, #16]
 801953a:	f000 fa6d 	bl	8019a18 <irq_enable>
 801953e:	bd08      	pop	{r3, pc}
 8019540:	40023c00 	.word	0x40023c00

08019544 <erase_flash_sector9>:
 8019544:	b508      	push	{r3, lr}
 8019546:	f000 fa5f 	bl	8019a08 <irq_disable>
 801954a:	4b11      	ldr	r3, [pc, #68]	@ (8019590 <erase_flash_sector9+0x4c>)
 801954c:	68db      	ldr	r3, [r3, #12]
 801954e:	f413 3f80 	tst.w	r3, #65536	@ 0x10000
 8019552:	d1fa      	bne.n	801954a <erase_flash_sector9+0x6>
 8019554:	4b0e      	ldr	r3, [pc, #56]	@ (8019590 <erase_flash_sector9+0x4c>)
 8019556:	691a      	ldr	r2, [r3, #16]
 8019558:	f042 0202 	orr.w	r2, r2, #2
 801955c:	611a      	str	r2, [r3, #16]
 801955e:	691a      	ldr	r2, [r3, #16]
 8019560:	f042 0248 	orr.w	r2, r2, #72	@ 0x48
 8019564:	611a      	str	r2, [r3, #16]
 8019566:	691a      	ldr	r2, [r3, #16]
 8019568:	f442 3280 	orr.w	r2, r2, #65536	@ 0x10000
 801956c:	611a      	str	r2, [r3, #16]
 801956e:	4b08      	ldr	r3, [pc, #32]	@ (8019590 <erase_flash_sector9+0x4c>)
 8019570:	68db      	ldr	r3, [r3, #12]
 8019572:	f413 3f80 	tst.w	r3, #65536	@ 0x10000
 8019576:	d1fa      	bne.n	801956e <erase_flash_sector9+0x2a>
 8019578:	4b05      	ldr	r3, [pc, #20]	@ (8019590 <erase_flash_sector9+0x4c>)
 801957a:	691a      	ldr	r2, [r3, #16]
 801957c:	f022 0202 	bic.w	r2, r2, #2
 8019580:	611a      	str	r2, [r3, #16]
 8019582:	691a      	ldr	r2, [r3, #16]
 8019584:	f022 0278 	bic.w	r2, r2, #120	@ 0x78
 8019588:	611a      	str	r2, [r3, #16]
 801958a:	f000 fa45 	bl	8019a18 <irq_enable>
 801958e:	bd08      	pop	{r3, pc}
 8019590:	40023c00 	.word	0x40023c00

08019594 <erase_flash_sector10>:
 8019594:	b508      	push	{r3, lr}
 8019596:	f000 fa37 	bl	8019a08 <irq_disable>
 801959a:	4b11      	ldr	r3, [pc, #68]	@ (80195e0 <erase_flash_sector10+0x4c>)
 801959c:	68db      	ldr	r3, [r3, #12]
 801959e:	f413 3f80 	tst.w	r3, #65536	@ 0x10000
 80195a2:	d1fa      	bne.n	801959a <erase_flash_sector10+0x6>
 80195a4:	4b0e      	ldr	r3, [pc, #56]	@ (80195e0 <erase_flash_sector10+0x4c>)
 80195a6:	691a      	ldr	r2, [r3, #16]
 80195a8:	f042 0202 	orr.w	r2, r2, #2
 80195ac:	611a      	str	r2, [r3, #16]
 80195ae:	691a      	ldr	r2, [r3, #16]
 80195b0:	f042 0250 	orr.w	r2, r2, #80	@ 0x50
 80195b4:	611a      	str	r2, [r3, #16]
 80195b6:	691a      	ldr	r2, [r3, #16]
 80195b8:	f442 3280 	orr.w	r2, r2, #65536	@ 0x10000
 80195bc:	611a      	str	r2, [r3, #16]
 80195be:	4b08      	ldr	r3, [pc, #32]	@ (80195e0 <erase_flash_sector10+0x4c>)
 80195c0:	68db      	ldr	r3, [r3, #12]
 80195c2:	f413 3f80 	tst.w	r3, #65536	@ 0x10000
 80195c6:	d1fa      	bne.n	80195be <erase_flash_sector10+0x2a>
 80195c8:	4b05      	ldr	r3, [pc, #20]	@ (80195e0 <erase_flash_sector10+0x4c>)
 80195ca:	691a      	ldr	r2, [r3, #16]
 80195cc:	f022 0202 	bic.w	r2, r2, #2
 80195d0:	611a      	str	r2, [r3, #16]
 80195d2:	691a      	ldr	r2, [r3, #16]
 80195d4:	f022 0278 	bic.w	r2, r2, #120	@ 0x78
 80195d8:	611a      	str	r2, [r3, #16]
 80195da:	f000 fa1d 	bl	8019a18 <irq_enable>
 80195de:	bd08      	pop	{r3, pc}
 80195e0:	40023c00 	.word	0x40023c00

080195e4 <erase_flash_sector11>:
 80195e4:	b508      	push	{r3, lr}
 80195e6:	f000 fa0f 	bl	8019a08 <irq_disable>
 80195ea:	4b11      	ldr	r3, [pc, #68]	@ (8019630 <erase_flash_sector11+0x4c>)
 80195ec:	68db      	ldr	r3, [r3, #12]
 80195ee:	f413 3f80 	tst.w	r3, #65536	@ 0x10000
 80195f2:	d1fa      	bne.n	80195ea <erase_flash_sector11+0x6>
 80195f4:	4b0e      	ldr	r3, [pc, #56]	@ (8019630 <erase_flash_sector11+0x4c>)
 80195f6:	691a      	ldr	r2, [r3, #16]
 80195f8:	f042 0202 	orr.w	r2, r2, #2
 80195fc:	611a      	str	r2, [r3, #16]
 80195fe:	691a      	ldr	r2, [r3, #16]
 8019600:	f042 0258 	orr.w	r2, r2, #88	@ 0x58
 8019604:	611a      	str	r2, [r3, #16]
 8019606:	691a      	ldr	r2, [r3, #16]
 8019608:	f442 3280 	orr.w	r2, r2, #65536	@ 0x10000
 801960c:	611a      	str	r2, [r3, #16]
 801960e:	4b08      	ldr	r3, [pc, #32]	@ (8019630 <erase_flash_sector11+0x4c>)
 8019610:	68db      	ldr	r3, [r3, #12]
 8019612:	f413 3f80 	tst.w	r3, #65536	@ 0x10000
 8019616:	d1fa      	bne.n	801960e <erase_flash_sector11+0x2a>
 8019618:	4b05      	ldr	r3, [pc, #20]	@ (8019630 <erase_flash_sector11+0x4c>)
 801961a:	691a      	ldr	r2, [r3, #16]
 801961c:	f022 0202 	bic.w	r2, r2, #2
 8019620:	611a      	str	r2, [r3, #16]
 8019622:	691a      	ldr	r2, [r3, #16]
 8019624:	f022 0278 	bic.w	r2, r2, #120	@ 0x78
 8019628:	611a      	str	r2, [r3, #16]
 801962a:	f000 f9f5 	bl	8019a18 <irq_enable>
 801962e:	bd08      	pop	{r3, pc}
 8019630:	40023c00 	.word	0x40023c00

08019634 <erase_flash_sector12>:
 8019634:	b508      	push	{r3, lr}
 8019636:	f000 f9e7 	bl	8019a08 <irq_disable>
 801963a:	4b11      	ldr	r3, [pc, #68]	@ (8019680 <erase_flash_sector12+0x4c>)
 801963c:	68db      	ldr	r3, [r3, #12]
 801963e:	f413 3f80 	tst.w	r3, #65536	@ 0x10000
 8019642:	d1fa      	bne.n	801963a <erase_flash_sector12+0x6>
 8019644:	4b0e      	ldr	r3, [pc, #56]	@ (8019680 <erase_flash_sector12+0x4c>)
 8019646:	691a      	ldr	r2, [r3, #16]
 8019648:	f042 0202 	orr.w	r2, r2, #2
 801964c:	611a      	str	r2, [r3, #16]
 801964e:	691a      	ldr	r2, [r3, #16]
 8019650:	f042 0260 	orr.w	r2, r2, #96	@ 0x60
 8019654:	611a      	str	r2, [r3, #16]
 8019656:	691a      	ldr	r2, [r3, #16]
 8019658:	f442 3280 	orr.w	r2, r2, #65536	@ 0x10000
 801965c:	611a      	str	r2, [r3, #16]
 801965e:	4b08      	ldr	r3, [pc, #32]	@ (8019680 <erase_flash_sector12+0x4c>)
 8019660:	68db      	ldr	r3, [r3, #12]
 8019662:	f413 3f80 	tst.w	r3, #65536	@ 0x10000
 8019666:	d1fa      	bne.n	801965e <erase_flash_sector12+0x2a>
 8019668:	4b05      	ldr	r3, [pc, #20]	@ (8019680 <erase_flash_sector12+0x4c>)
 801966a:	691a      	ldr	r2, [r3, #16]
 801966c:	f022 0202 	bic.w	r2, r2, #2
 8019670:	611a      	str	r2, [r3, #16]
 8019672:	691a      	ldr	r2, [r3, #16]
 8019674:	f022 0278 	bic.w	r2, r2, #120	@ 0x78
 8019678:	611a      	str	r2, [r3, #16]
 801967a:	f000 f9cd 	bl	8019a18 <irq_enable>
 801967e:	bd08      	pop	{r3, pc}
 8019680:	40023c00 	.word	0x40023c00

08019684 <write_flash>:
 8019684:	4b0e      	ldr	r3, [pc, #56]	@ (80196c0 <write_flash+0x3c>)
 8019686:	68db      	ldr	r3, [r3, #12]
 8019688:	f413 3f80 	tst.w	r3, #65536	@ 0x10000
 801968c:	d1fa      	bne.n	8019684 <write_flash>
 801968e:	4b0c      	ldr	r3, [pc, #48]	@ (80196c0 <write_flash+0x3c>)
 8019690:	691a      	ldr	r2, [r3, #16]
 8019692:	f042 0201 	orr.w	r2, r2, #1
 8019696:	611a      	str	r2, [r3, #16]
 8019698:	691a      	ldr	r2, [r3, #16]
 801969a:	f422 7240 	bic.w	r2, r2, #768	@ 0x300
 801969e:	611a      	str	r2, [r3, #16]
 80196a0:	691a      	ldr	r2, [r3, #16]
 80196a2:	f442 7200 	orr.w	r2, r2, #512	@ 0x200
 80196a6:	611a      	str	r2, [r3, #16]
 80196a8:	6001      	str	r1, [r0, #0]
 80196aa:	4b05      	ldr	r3, [pc, #20]	@ (80196c0 <write_flash+0x3c>)
 80196ac:	68db      	ldr	r3, [r3, #12]
 80196ae:	f413 3f80 	tst.w	r3, #65536	@ 0x10000
 80196b2:	d1fa      	bne.n	80196aa <write_flash+0x26>
 80196b4:	4a02      	ldr	r2, [pc, #8]	@ (80196c0 <write_flash+0x3c>)
 80196b6:	6913      	ldr	r3, [r2, #16]
 80196b8:	f023 0301 	bic.w	r3, r3, #1
 80196bc:	6113      	str	r3, [r2, #16]
 80196be:	4770      	bx	lr
 80196c0:	40023c00 	.word	0x40023c00

080196c4 <cycleCount>:
 80196c4:	4b01      	ldr	r3, [pc, #4]	@ (80196cc <cycleCount+0x8>)
 80196c6:	e9d3 0100 	ldrd	r0, r1, [r3]
 80196ca:	4770      	bx	lr
 80196cc:	200027c0 	.word	0x200027c0

080196d0 <SysTick_Handler>:
 80196d0:	4a04      	ldr	r2, [pc, #16]	@ (80196e4 <SysTick_Handler+0x14>)
 80196d2:	6813      	ldr	r3, [r2, #0]
 80196d4:	6851      	ldr	r1, [r2, #4]
 80196d6:	3301      	adds	r3, #1
 80196d8:	f141 0100 	adc.w	r1, r1, #0
 80196dc:	6013      	str	r3, [r2, #0]
 80196de:	6051      	str	r1, [r2, #4]
 80196e0:	4770      	bx	lr
 80196e2:	bf00      	nop
 80196e4:	200027c0 	.word	0x200027c0

080196e8 <delay>:
 80196e8:	b538      	push	{r3, r4, r5, lr}
 80196ea:	4604      	mov	r4, r0
 80196ec:	f7ff ffea 	bl	80196c4 <cycleCount>
 80196f0:	1824      	adds	r4, r4, r0
 80196f2:	f141 0500 	adc.w	r5, r1, #0
 80196f6:	e000      	b.n	80196fa <delay+0x12>
 80196f8:	bf00      	nop
 80196fa:	f7ff ffe3 	bl	80196c4 <cycleCount>
 80196fe:	42a0      	cmp	r0, r4
 8019700:	41a9      	sbcs	r1, r5
 8019702:	d3f9      	bcc.n	80196f8 <delay+0x10>
 8019704:	bd38      	pop	{r3, r4, r5, pc}

08019706 <delay_us>:
 8019706:	4b08      	ldr	r3, [pc, #32]	@ (8019728 <delay_us+0x22>)
 8019708:	685a      	ldr	r2, [r3, #4]
 801970a:	4b08      	ldr	r3, [pc, #32]	@ (801972c <delay_us+0x26>)
 801970c:	681b      	ldr	r3, [r3, #0]
 801970e:	4908      	ldr	r1, [pc, #32]	@ (8019730 <delay_us+0x2a>)
 8019710:	fba1 1303 	umull	r1, r3, r1, r3
 8019714:	0c9b      	lsrs	r3, r3, #18
 8019716:	fb03 f000 	mul.w	r0, r3, r0
 801971a:	4b03      	ldr	r3, [pc, #12]	@ (8019728 <delay_us+0x22>)
 801971c:	685b      	ldr	r3, [r3, #4]
 801971e:	1a9b      	subs	r3, r3, r2
 8019720:	4283      	cmp	r3, r0
 8019722:	d3fa      	bcc.n	801971a <delay_us+0x14>
 8019724:	4770      	bx	lr
 8019726:	bf00      	nop
 8019728:	e0001000 	.word	0xe0001000
 801972c:	20000100 	.word	0x20000100
 8019730:	431bde83 	.word	0x431bde83

08019734 <toggle>:
 8019734:	b538      	push	{r3, r4, r5, lr}
 8019736:	4605      	mov	r5, r0
 8019738:	2400      	movs	r4, #0
 801973a:	e008      	b.n	801974e <toggle+0x1a>
 801973c:	210d      	movs	r1, #13
 801973e:	4808      	ldr	r0, [pc, #32]	@ (8019760 <toggle+0x2c>)
 8019740:	f7f9 f8fa 	bl	8012938 <hw_toggle_pin>
 8019744:	f44f 7096 	mov.w	r0, #300	@ 0x12c
 8019748:	f7ff ffce 	bl	80196e8 <delay>
 801974c:	3401      	adds	r4, #1
 801974e:	ebb4 0f45 	cmp.w	r4, r5, lsl #1
 8019752:	dbf3      	blt.n	801973c <toggle+0x8>
 8019754:	2201      	movs	r2, #1
 8019756:	210d      	movs	r1, #13
 8019758:	4801      	ldr	r0, [pc, #4]	@ (8019760 <toggle+0x2c>)
 801975a:	f7f9 f8d3 	bl	8012904 <hw_set_pin>
 801975e:	bd38      	pop	{r3, r4, r5, pc}
 8019760:	40020800 	.word	0x40020800

08019764 <main>:
 8019764:	b538      	push	{r3, r4, r5, lr}
 8019766:	e002      	b.n	801976e <main+0xa>
 8019768:	f7fb f822 	bl	80147b0 <usb_getc>
 801976c:	b950      	cbnz	r0, 8019784 <main+0x20>
 801976e:	2100      	movs	r1, #0
 8019770:	482d      	ldr	r0, [pc, #180]	@ (8019828 <main+0xc4>)
 8019772:	f7f9 f8f7 	bl	8012964 <hw_get_pin>
 8019776:	2800      	cmp	r0, #0
 8019778:	d0f6      	beq.n	8019768 <main+0x4>
 801977a:	f7fb f80d 	bl	8014798 <usb_available>
 801977e:	2800      	cmp	r0, #0
 8019780:	d0f5      	beq.n	801976e <main+0xa>
 8019782:	e7f1      	b.n	8019768 <main+0x4>
 8019784:	4d29      	ldr	r5, [pc, #164]	@ (801982c <main+0xc8>)
 8019786:	f44f 7264 	mov.w	r2, #912	@ 0x390
 801978a:	210d      	movs	r1, #13
 801978c:	4628      	mov	r0, r5
 801978e:	f7f9 f86f 	bl	8012870 <hw_cfg_pin>
 8019792:	4c25      	ldr	r4, [pc, #148]	@ (8019828 <main+0xc4>)
 8019794:	f44f 7270 	mov.w	r2, #960	@ 0x3c0
 8019798:	2100      	movs	r1, #0
 801979a:	4620      	mov	r0, r4
 801979c:	f7f9 f868 	bl	8012870 <hw_cfg_pin>
 80197a0:	2200      	movs	r2, #0
 80197a2:	210d      	movs	r1, #13
 80197a4:	4628      	mov	r0, r5
 80197a6:	f7f9 f8ad 	bl	8012904 <hw_set_pin>
 80197aa:	f44f 7264 	mov.w	r2, #912	@ 0x390
 80197ae:	2108      	movs	r1, #8
 80197b0:	4620      	mov	r0, r4
 80197b2:	f7f9 f85d 	bl	8012870 <hw_cfg_pin>
 80197b6:	4b1e      	ldr	r3, [pc, #120]	@ (8019830 <main+0xcc>)
 80197b8:	681b      	ldr	r3, [r3, #0]
 80197ba:	2100      	movs	r1, #0
 80197bc:	e002      	b.n	80197c4 <main+0x60>
 80197be:	685a      	ldr	r2, [r3, #4]
 80197c0:	4411      	add	r1, r2
 80197c2:	681b      	ldr	r3, [r3, #0]
 80197c4:	2b00      	cmp	r3, #0
 80197c6:	d1fa      	bne.n	80197be <main+0x5a>
 80197c8:	481a      	ldr	r0, [pc, #104]	@ (8019834 <main+0xd0>)
 80197ca:	f7f7 fa5b 	bl	8010c84 <kprintf>
 80197ce:	4b18      	ldr	r3, [pc, #96]	@ (8019830 <main+0xcc>)
 80197d0:	681c      	ldr	r4, [r3, #0]
 80197d2:	e007      	b.n	80197e4 <main+0x80>
 80197d4:	6862      	ldr	r2, [r4, #4]
 80197d6:	4422      	add	r2, r4
 80197d8:	3a01      	subs	r2, #1
 80197da:	4621      	mov	r1, r4
 80197dc:	4816      	ldr	r0, [pc, #88]	@ (8019838 <main+0xd4>)
 80197de:	f7f7 fa51 	bl	8010c84 <kprintf>
 80197e2:	6824      	ldr	r4, [r4, #0]
 80197e4:	2c00      	cmp	r4, #0
 80197e6:	d1f5      	bne.n	80197d4 <main+0x70>
 80197e8:	f7fb f848 	bl	801487c <sd_init>
 80197ec:	f7fc f864 	bl	80158b8 <fl_init>
 80197f0:	4912      	ldr	r1, [pc, #72]	@ (801983c <main+0xd8>)
 80197f2:	4813      	ldr	r0, [pc, #76]	@ (8019840 <main+0xdc>)
 80197f4:	f7fc f888 	bl	8015908 <fl_attach_media>
 80197f8:	b978      	cbnz	r0, 801981a <main+0xb6>
 80197fa:	4812      	ldr	r0, [pc, #72]	@ (8019844 <main+0xe0>)
 80197fc:	f7fc fcd6 	bl	80161ac <fl_listdirectory>
 8019800:	f7fe ffbb 	bl	801877a <init_kernel>
 8019804:	210d      	movs	r1, #13
 8019806:	4809      	ldr	r0, [pc, #36]	@ (801982c <main+0xc8>)
 8019808:	f7f9 f896 	bl	8012938 <hw_toggle_pin>
 801980c:	480e      	ldr	r0, [pc, #56]	@ (8019848 <main+0xe4>)
 801980e:	f7f7 fa39 	bl	8010c84 <kprintf>
 8019812:	2064      	movs	r0, #100	@ 0x64
 8019814:	f7ff ff68 	bl	80196e8 <delay>
 8019818:	e7f4      	b.n	8019804 <main+0xa0>
 801981a:	480c      	ldr	r0, [pc, #48]	@ (801984c <main+0xe8>)
 801981c:	f7f7 fa32 	bl	8010c84 <kprintf>
 8019820:	f04f 30ff 	mov.w	r0, #4294967295	@ 0xffffffff
 8019824:	bd38      	pop	{r3, r4, r5, pc}
 8019826:	bf00      	nop
 8019828:	40020000 	.word	0x40020000
 801982c:	40020800 	.word	0x40020800
 8019830:	20000108 	.word	0x20000108
 8019834:	0801a378 	.word	0x0801a378
 8019838:	0801a3a0 	.word	0x0801a3a0
 801983c:	080148a9 	.word	0x080148a9
 8019840:	08014891 	.word	0x08014891
 8019844:	0801a098 	.word	0x0801a098
 8019848:	0801a3e4 	.word	0x0801a3e4
 801984c:	0801a3c0 	.word	0x0801a3c0

08019850 <panic>:
 8019850:	b508      	push	{r3, lr}
 8019852:	4604      	mov	r4, r0
 8019854:	f000 f8d8 	bl	8019a08 <irq_disable>
 8019858:	4621      	mov	r1, r4
 801985a:	480d      	ldr	r0, [pc, #52]	@ (8019890 <panic+0x40>)
 801985c:	f7f7 fa12 	bl	8010c84 <kprintf>
 8019860:	f44f 7264 	mov.w	r2, #912	@ 0x390
 8019864:	210d      	movs	r1, #13
 8019866:	480b      	ldr	r0, [pc, #44]	@ (8019894 <panic+0x44>)
 8019868:	f7f9 f802 	bl	8012870 <hw_cfg_pin>
 801986c:	4c09      	ldr	r4, [pc, #36]	@ (8019894 <panic+0x44>)
 801986e:	2201      	movs	r2, #1
 8019870:	210d      	movs	r1, #13
 8019872:	4620      	mov	r0, r4
 8019874:	f7f9 f846 	bl	8012904 <hw_set_pin>
 8019878:	2032      	movs	r0, #50	@ 0x32
 801987a:	f7ff ff35 	bl	80196e8 <delay>
 801987e:	2200      	movs	r2, #0
 8019880:	210d      	movs	r1, #13
 8019882:	4620      	mov	r0, r4
 8019884:	f7f9 f83e 	bl	8012904 <hw_set_pin>
 8019888:	2032      	movs	r0, #50	@ 0x32
 801988a:	f7ff ff2d 	bl	80196e8 <delay>
 801988e:	e7ed      	b.n	801986c <panic+0x1c>
 8019890:	0801a3ec 	.word	0x0801a3ec
 8019894:	40020800 	.word	0x40020800

08019898 <uartinit>:
 8019898:	b510      	push	{r4, lr}
 801989a:	4a16      	ldr	r2, [pc, #88]	@ (80198f4 <uartinit+0x5c>)
 801989c:	6c53      	ldr	r3, [r2, #68]	@ 0x44
 801989e:	f043 0310 	orr.w	r3, r3, #16
 80198a2:	6453      	str	r3, [r2, #68]	@ 0x44
 80198a4:	4c14      	ldr	r4, [pc, #80]	@ (80198f8 <uartinit+0x60>)
 80198a6:	f240 32a7 	movw	r2, #935	@ 0x3a7
 80198aa:	2109      	movs	r1, #9
 80198ac:	4620      	mov	r0, r4
 80198ae:	f7f8 ffdf 	bl	8012870 <hw_cfg_pin>
 80198b2:	f240 32a7 	movw	r2, #935	@ 0x3a7
 80198b6:	210a      	movs	r1, #10
 80198b8:	4620      	mov	r0, r4
 80198ba:	f7f8 ffd9 	bl	8012870 <hw_cfg_pin>
 80198be:	4b0f      	ldr	r3, [pc, #60]	@ (80198fc <uartinit+0x64>)
 80198c0:	68da      	ldr	r2, [r3, #12]
 80198c2:	f422 5200 	bic.w	r2, r2, #8192	@ 0x2000
 80198c6:	60da      	str	r2, [r3, #12]
 80198c8:	f240 22d9 	movw	r2, #729	@ 0x2d9
 80198cc:	609a      	str	r2, [r3, #8]
 80198ce:	68da      	ldr	r2, [r3, #12]
 80198d0:	f042 022c 	orr.w	r2, r2, #44	@ 0x2c
 80198d4:	60da      	str	r2, [r3, #12]
 80198d6:	68da      	ldr	r2, [r3, #12]
 80198d8:	f442 5200 	orr.w	r2, r2, #8192	@ 0x2000
 80198dc:	60da      	str	r2, [r3, #12]
 80198de:	4b08      	ldr	r3, [pc, #32]	@ (8019900 <uartinit+0x68>)
 80198e0:	2220      	movs	r2, #32
 80198e2:	605a      	str	r2, [r3, #4]
 80198e4:	4b07      	ldr	r3, [pc, #28]	@ (8019904 <uartinit+0x6c>)
 80198e6:	2200      	movs	r2, #0
 80198e8:	701a      	strb	r2, [r3, #0]
 80198ea:	705a      	strb	r2, [r3, #1]
 80198ec:	709a      	strb	r2, [r3, #2]
 80198ee:	70da      	strb	r2, [r3, #3]
 80198f0:	bd10      	pop	{r4, pc}
 80198f2:	bf00      	nop
 80198f4:	40023800 	.word	0x40023800
 80198f8:	40020000 	.word	0x40020000
 80198fc:	40011000 	.word	0x40011000
 8019900:	e000e100 	.word	0xe000e100
 8019904:	20002888 	.word	0x20002888

08019908 <putcharuart>:
 8019908:	4b03      	ldr	r3, [pc, #12]	@ (8019918 <putcharuart+0x10>)
 801990a:	681b      	ldr	r3, [r3, #0]
 801990c:	f013 0f80 	tst.w	r3, #128	@ 0x80
 8019910:	d0fa      	beq.n	8019908 <putcharuart>
 8019912:	4b01      	ldr	r3, [pc, #4]	@ (8019918 <putcharuart+0x10>)
 8019914:	6058      	str	r0, [r3, #4]
 8019916:	4770      	bx	lr
 8019918:	40011000 	.word	0x40011000

0801991c <getcharuart>:
 801991c:	4b04      	ldr	r3, [pc, #16]	@ (8019930 <getcharuart+0x14>)
 801991e:	681b      	ldr	r3, [r3, #0]
 8019920:	f013 0f20 	tst.w	r3, #32
 8019924:	d0fa      	beq.n	801991c <getcharuart>
 8019926:	4b02      	ldr	r3, [pc, #8]	@ (8019930 <getcharuart+0x14>)
 8019928:	6858      	ldr	r0, [r3, #4]
 801992a:	b2c0      	uxtb	r0, r0
 801992c:	4770      	bx	lr
 801992e:	bf00      	nop
 8019930:	40011000 	.word	0x40011000

08019934 <putchar>:
 8019934:	b510      	push	{r4, lr}
 8019936:	4604      	mov	r4, r0
 8019938:	b2c0      	uxtb	r0, r0
 801993a:	f7ff ffe5 	bl	8019908 <putcharuart>
 801993e:	4620      	mov	r0, r4
 8019940:	bd10      	pop	{r4, pc}

08019942 <getchar>:
 8019942:	b508      	push	{r3, lr}
 8019944:	f7ff ffea 	bl	801991c <getcharuart>
 8019948:	bd08      	pop	{r3, pc}

0801994a <usart_available>:
 801994a:	4b03      	ldr	r3, [pc, #12]	@ (8019958 <usart_available+0xe>)
 801994c:	7898      	ldrb	r0, [r3, #2]
 801994e:	78db      	ldrb	r3, [r3, #3]
 8019950:	1ac0      	subs	r0, r0, r3
 8019952:	f000 003f 	and.w	r0, r0, #63	@ 0x3f
 8019956:	4770      	bx	lr
 8019958:	20002888 	.word	0x20002888

0801995c <usart_getc>:
 801995c:	4b0a      	ldr	r3, [pc, #40]	@ (8019988 <usart_getc+0x2c>)
 801995e:	789a      	ldrb	r2, [r3, #2]
 8019960:	78db      	ldrb	r3, [r3, #3]
 8019962:	429a      	cmp	r2, r3
 8019964:	d00c      	beq.n	8019980 <usart_getc+0x24>
 8019966:	3301      	adds	r3, #1
 8019968:	f003 033f 	and.w	r3, r3, #63	@ 0x3f
 801996c:	4a06      	ldr	r2, [pc, #24]	@ (8019988 <usart_getc+0x2c>)
 801996e:	70d3      	strb	r3, [r2, #3]
 8019970:	4413      	add	r3, r2
 8019972:	7918      	ldrb	r0, [r3, #4]
 8019974:	f892 3044 	ldrb.w	r3, [r2, #68]	@ 0x44
 8019978:	eb00 2003 	add.w	r0, r0, r3, lsl #8
 801997c:	b280      	uxth	r0, r0
 801997e:	4770      	bx	lr
 8019980:	f44f 7080 	mov.w	r0, #256	@ 0x100
 8019984:	4770      	bx	lr
 8019986:	bf00      	nop
 8019988:	20002888 	.word	0x20002888

0801998c <usart_readBytes>:
 801998c:	b570      	push	{r4, r5, r6, lr}
 801998e:	b082      	sub	sp, #8
 8019990:	4604      	mov	r4, r0
 8019992:	460e      	mov	r6, r1
 8019994:	2500      	movs	r5, #0
 8019996:	e006      	b.n	80199a6 <usart_readBytes+0x1a>
 8019998:	9b01      	ldr	r3, [sp, #4]
 801999a:	3b01      	subs	r3, #1
 801999c:	9301      	str	r3, [sp, #4]
 801999e:	9b01      	ldr	r3, [sp, #4]
 80199a0:	2b00      	cmp	r3, #0
 80199a2:	dcf9      	bgt.n	8019998 <usart_readBytes+0xc>
 80199a4:	4614      	mov	r4, r2
 80199a6:	42b5      	cmp	r5, r6
 80199a8:	d209      	bcs.n	80199be <usart_readBytes+0x32>
 80199aa:	f7ff ffd7 	bl	801995c <usart_getc>
 80199ae:	4622      	mov	r2, r4
 80199b0:	f802 0b01 	strb.w	r0, [r2], #1
 80199b4:	3501      	adds	r5, #1
 80199b6:	b2ed      	uxtb	r5, r5
 80199b8:	2314      	movs	r3, #20
 80199ba:	9301      	str	r3, [sp, #4]
 80199bc:	e7ef      	b.n	801999e <usart_readBytes+0x12>
 80199be:	4628      	mov	r0, r5
 80199c0:	b002      	add	sp, #8
 80199c2:	bd70      	pop	{r4, r5, r6, pc}

080199c4 <USART1_Handler>:
 80199c4:	b672      	cpsid	i
 80199c6:	4b0d      	ldr	r3, [pc, #52]	@ (80199fc <USART1_Handler+0x38>)
 80199c8:	681b      	ldr	r3, [r3, #0]
 80199ca:	f013 0f20 	tst.w	r3, #32
 80199ce:	d012      	beq.n	80199f6 <USART1_Handler+0x32>
 80199d0:	4b0a      	ldr	r3, [pc, #40]	@ (80199fc <USART1_Handler+0x38>)
 80199d2:	685a      	ldr	r2, [r3, #4]
 80199d4:	b2d2      	uxtb	r2, r2
 80199d6:	490a      	ldr	r1, [pc, #40]	@ (8019a00 <USART1_Handler+0x3c>)
 80199d8:	788b      	ldrb	r3, [r1, #2]
 80199da:	3301      	adds	r3, #1
 80199dc:	f003 033f 	and.w	r3, r3, #63	@ 0x3f
 80199e0:	78c9      	ldrb	r1, [r1, #3]
 80199e2:	4299      	cmp	r1, r3
 80199e4:	d003      	beq.n	80199ee <USART1_Handler+0x2a>
 80199e6:	4906      	ldr	r1, [pc, #24]	@ (8019a00 <USART1_Handler+0x3c>)
 80199e8:	708b      	strb	r3, [r1, #2]
 80199ea:	4419      	add	r1, r3
 80199ec:	710a      	strb	r2, [r1, #4]
 80199ee:	4b04      	ldr	r3, [pc, #16]	@ (8019a00 <USART1_Handler+0x3c>)
 80199f0:	2202      	movs	r2, #2
 80199f2:	f883 2044 	strb.w	r2, [r3, #68]	@ 0x44
 80199f6:	b662      	cpsie	i
 80199f8:	4770      	bx	lr
 80199fa:	bf00      	nop
 80199fc:	40011000 	.word	0x40011000
 8019a00:	20002888 	.word	0x20002888

08019a04 <default_IRQ_Handler>:
 8019a04:	bf20      	wfe
 8019a06:	e7fd      	b.n	8019a04 <default_IRQ_Handler>

08019a08 <irq_disable>:
 8019a08:	f3ef 8003 	mrs	r0, PSR
 8019a0c:	b672      	cpsid	i
 8019a0e:	4770      	bx	lr

08019a10 <irq_restore>:
 8019a10:	f380 8803 	msr	PSR, r0
 8019a14:	b662      	cpsie	i
 8019a16:	4770      	bx	lr

08019a18 <irq_enable>:
 8019a18:	b662      	cpsie	i
 8019a1a:	4770      	bx	lr

08019a1c <halt>:
 8019a1c:	b672      	cpsid	i

08019a1e <dloop>:
 8019a1e:	e7fe      	b.n	8019a1e <dloop>

08019a20 <syscall>:
 8019a20:	df00      	svc	0
 8019a22:	bf00      	nop
 8019a24:	4770      	bx	lr

08019a26 <save_context>:
 8019a26:	f3ef 8009 	mrs	r0, PSP
 8019a2a:	e920 0ff0 	stmdb	r0!, {r4, r5, r6, r7, r8, r9, sl, fp}
 8019a2e:	f380 8809 	msr	PSP, r0
 8019a32:	4770      	bx	lr

08019a34 <restore_context>:
 8019a34:	f3ef 8009 	mrs	r0, PSP
 8019a38:	e8b0 0ff0 	ldmia.w	r0!, {r4, r5, r6, r7, r8, r9, sl, fp}
 8019a3c:	f380 8809 	msr	PSP, r0
 8019a40:	4770      	bx	lr

08019a42 <SVCall_Handler>:
 8019a42:	f3ef 8009 	mrs	r0, PSP
 8019a46:	b500      	push	{lr}
 8019a48:	b401      	push	{r0}
 8019a4a:	f7ff ffec 	bl	8019a26 <save_context>
 8019a4e:	bc01      	pop	{r0}
 8019a50:	f7ff f952 	bl	8018cf8 <svccall_handler>
 8019a54:	f7ff ffee 	bl	8019a34 <restore_context>
 8019a58:	f85d eb04 	ldr.w	lr, [sp], #4
 8019a5c:	4770      	bx	lr
	...

08019a60 <_ctype_>:
 8019a60:	2000 2020 2020 2020 2020 0808 0808 2008     .         ..... 
 8019a70:	2020 2020 2020 2020 2020 2020 2020 2020                     
 8019a80:	0820 1010 1010 1010 1010 1010 1010 1010      ...............
 8019a90:	0410 0404 0404 0404 0404 1004 1010 1010     ................
 8019aa0:	1010 4141 4141 4141 0101 0101 0101 0101     ..AAAAAA........
 8019ab0:	0101 0101 0101 0101 0101 0101 1010 1010     ................
 8019ac0:	1010 4242 4242 4242 0202 0202 0202 0202     ..BBBBBB........
 8019ad0:	0202 0202 0202 0202 0202 0202 1010 1010     ................
 8019ae0:	0020 0000                                    ...

08019ae4 <a>:
 8019ae4:	0000 0000 0a92 3f06 0fdb 3fc9 0a92 3f86     .......?...?...?

08019af4 <a>:
 8019af4:	0000 0000 0fdb 3f49                         ......I?

08019afc <b>:
 8019afc:	0fdb 3fc9 0fdb 3f49 a180 0801 a188 0801     ...?..I?........
 8019b0c:	a190 0801 a198 0801 a1a0 0801 a1a8 0801     ................
 8019b1c:	a1b0 0801                                   ....

08019b20 <cmdtab>:
 8019b20:	6463 0000 0000 0000 0000 0000 0000 0000     cd..............
 8019b30:	0200 0000 2cd5 0801 736c 0000 0000 0000     .....,..ls......
	...
 8019b48:	0200 0000 2da9 0801 6163 0074 0000 0000     .....-..cat.....
	...
 8019b60:	0800 0000 2e89 0801 7564 706d 0000 0000     ........dump....
	...
 8019b78:	0800 0000 2dfd 0801 6365 6f68 0000 0000     .....-..echo....
	...
 8019b90:	0200 0000 2b8d 0801 6568 706c 0000 0000     .....+..help....
	...
 8019ba8:	0200 0000 2bb9 0801 696b 6c6c 0000 0000     .....+..kill....
	...
 8019bc0:	0200 0000 2c01 0801 656d 006d 0000 0000     .....,..mem.....
	...
 8019bd8:	0200 0000 2be9 0801 6b6d 6964 0072 0000     .....+..mkdir...
	...
 8019bf0:	0200 0000 2f71 0801 7370 0000 0000 0000     ....q/..ps......
	...
 8019c08:	0200 0000 2ae9 0801 7770 0064 0000 0000     .....*..pwd.....
	...
 8019c20:	0200 0000 2fd5 0801 6d72 0000 0000 0000     ...../..rm......
	...
 8019c38:	0400 0000 2fa1 0801 6f74 6375 0068 0000     ...../..touch...
	...
 8019c50:	0200 0000 2ff1 0801 7572 006e 0000 0000     ...../..run.....
	...
 8019c68:	0800 0000 3035 0801 6f66 6d72 7461 0000     ....50..format..
	...
 8019c80:	0400 0000 2ac5 0801                         .....*..

08019c88 <usbd_otgfs>:
 8019c88:	368b 0801 3735 0801 37e1 0801 381d 0801     .6..57...7...8..
 8019c98:	3893 0801 39bd 0801 3a51 0801 3ac9 0801     .8...9..Q:...:..
 8019ca8:	36b5 0801 370b 0801 3b65 0801 3b57 0801     .6...7..e;..W;..
 8019cb8:	3cad 0801                                   .<..

08019cbc <device_desc>:
 8019cbc:	0112 0200 0000 4000 0483 5740 0100 0201     .......@..@W....
 8019ccc:	01fe 0000                                   ....

08019cd0 <config_desc>:
 8019cd0:	0209 0020 0101 c000 0932 0004 0200 0608     .. .....2.......
 8019ce0:	0050 0507 0201 0040 0700 8205 4002 0000     P.....@......@..

08019cf0 <dtable>:
 8019cf0:	9d88 0801 9d50 0801 9d2c 0801               ....P...,...

08019cfc <db_inquiry>:
 8019cfc:	8000 0204 001f 0000 5453 204d 2020 2020     ........STM     
 8019d0c:	614d 7373 5320 6f74 6172 6567 2020 2020     Mass Storage    
 8019d1c:	3030 3130                                   0001

08019d20 <db_mode_sence_6>:
 8019d20:	0003 0000                                   ....

08019d24 <db_mode_sence_10>:
 8019d24:	0600 0000 0000 0000                         ........

08019d2c <prod_desc_en>:
 8019d2c:	0322 004d 0053 0043 0020 0073 0064 002d     ".M.S.C. .s.d.-.
 8019d3c:	0063 0061 0072 0064 0020 0064 0065 006d     c.a.r.d. .d.e.m.
 8019d4c:	006f 0000                                   o...

08019d50 <manuf_desc_en>:
 8019d50:	0334 0048 006f 006d 0065 006d 0063 0075     4.H.o.m.e.m.c.u.
 8019d60:	0020 0066 0069 0072 006d 0077 0061 0072      .f.i.r.m.w.a.r.
 8019d70:	0065 0020 0065 0078 0061 006d 0070 006c     e. .e.x.a.m.p.l.
 8019d80:	0065 0073 0000 0000                         e.s.....

08019d88 <lang_desc>:
 8019d88:	0304 0409                                   ....

08019d8c <device_desc>:
 8019d8c:	0112 0200 02ef 0801 0483 5740 0100 0201     ..........@W....
 8019d9c:	01fe 0000                                   ....

08019da0 <config_desc>:
 8019da0:	0209 004b 0102 c000 0832 000b 0202 0002     ..K.....2.......
 8019db0:	0900 0004 0100 0202 0000 2405 1000 0501     ...........$....
 8019dc0:	0124 0100 2404 0002 2405 0006 0701 8205     $....$...$......
 8019dd0:	0803 ff00 0409 0001 0a02 0000 0700 0105     ................
 8019de0:	4002 0100 0507 0281 0040 0001               .@......@...

08019dec <dtable>:
 8019dec:	9e64 0801 9e20 0801 9df8 0801               d... .......

08019df8 <prod_desc_en>:
 8019df8:	0324 0043 0044 0043 0020 004c 006f 006f     $.C.D.C. .L.o.o.
 8019e08:	0070 0062 0061 0063 006b 0020 0064 0065     p.b.a.c.k. .d.e.
 8019e18:	006d 006f 0000 0000                         m.o.....

08019e20 <manuf_desc_en>:
 8019e20:	0340 004f 0070 0065 006e 0020 0073 006f     @.O.p.e.n. .s.o.
 8019e30:	0075 0072 0063 0065 0020 0055 0053 0042     u.r.c.e. .U.S.B.
 8019e40:	0020 0073 0074 0061 0063 006b 0020 0066      .s.t.a.c.k. .f.
 8019e50:	006f 0072 0020 0053 0054 004d 0033 0032     o.r. .S.T.M.3.2.
 8019e60:	0000 0000                                   ....

08019e64 <lang_desc>:
 8019e64:	0304 0409 0001 0000 0003 0000 0005 0000     ................
 8019e74:	0007 0000 0009 0000 000e 0000 0010 0000     ................
 8019e84:	0012 0000 0014 0000 0016 0000 0018 0000     ................
 8019e94:	001c 0000 001e 0000                         ........

08019e9c <sd_card_drv>:
 8019e9c:	82c1 0801 7ead 0801 7ba1 0801 7d5d 0801     .....~...{..]}..
 8019eac:	783d 0801                                   =x..

08019eb0 <w25qxxx_drv>:
 8019eb0:	7f6d 0801 7fe7 0801 81a9 0801 7ed1 0801     m............~..

08019ec0 <AHBPrescTable>:
	...
 8019ec8:	0201 0403 0706 0908                         ........

08019ed0 <APBPrescTable>:
 8019ed0:	0000 0000 0201 0403 3130 3332 3534 3736     ........01234567
 8019ee0:	3938 6261 6463 6665 0000 0000 3130 3332     89abcdef....0123
 8019ef0:	3534 3736 3938 4241 4443 4645 0000 0000     456789ABCDEF....
 8019f00:	6e28 6c75 296c 0000 6f6e 2074 6f66 6e75     (null)..not foun
 8019f10:	2064 7325 000a 0000 622e 7373 0000 0000     d %s.....bss....
 8019f20:	672e 746f 0000 0000 692e 696e 5f74 7261     .got.....init_ar
 8019f30:	6172 0079 3130 3332 3534 3736 3938 6261     ray.0123456789ab
 8019f40:	6463 6665 6867 6a69 6c6b 6e6d 706f 7271     cdefghijklmnopqr
 8019f50:	7473 7675 7877 7a79 0000 0000 3130 3332     stuvwxyz....0123
 8019f60:	3534 3736 3938 4241 4443 4645 4847 4a49     456789ABCDEFGHIJ
 8019f70:	4c4b 4e4d 504f 5251 5453 5655 5857 5a59     KLMNOPQRSTUVWXYZ
 8019f80:	0000 0000 4e3c 4c55 3e4c 0000 2020 7325     ....<NULL>..  %s
 8019f90:	000a 0000 2020 3025 7834 0020 2520 3230     ....  %04x . %02
 8019fa0:	0078 0000 2020 0020 0920 0a0d 0000 0000     x...   . .......
 8019fb0:	3130 3332 3534 3736 3938 4241 4443 4645     0123456789ABCDEF
 8019fc0:	4847 4a49 4c4b 4e4d 504f 5251 5453 5655     GHIJKLMNOPQRSTUV
 8019fd0:	5857 0059 6f66 6d72 7461 6f20 0a6b 0000     WXY.format ok...
 8019fe0:	7453 7461 0065 0000 614e 656d 0000 0000     State...Name....
 8019ff0:	6950 0064 3325 2073 2d25 3631 2073 3525     Pid.%3s %-16s %5
 801a000:	2073 3125 7330 2520 3031 2073 3125 7330     s %10s %10s %10s
 801a010:	000a 0000 7453 6361 206b 6953 657a 0000     ....Stack Size..
 801a020:	7453 6361 206b 7450 0072 0000 7453 6361     Stack Ptr...Stac
 801a030:	206b 6142 6573 0000 3325 2064 2d25 3631     k Base..%3d %-16
 801a040:	2073 3525 2073 7830 3025 5838 3020 2578     s %5s 0x%08X 0x%
 801a050:	3830 2058 3825 0a64 0000 0000 7325 0020     08X %8d.....%s .
 801a060:	7325 000a 656d 206d 7266 6565 203a 6425     %s..mem free: %d
 801a070:	000a 0000 7375 6761 3a65 6b20 6c69 206c     ....usage: kill 
 801a080:	6970 2e64 2e2e 000a 2f2e 0000 2e2e 002f     pid....../..../.
 801a090:	002e 0000 2e2e 0000 002f 0000 6f6e 2074     ......../...not 
 801a0a0:	2061 6964 6572 7463 726f 0a79 0000 0000     a directory.....
 801a0b0:	7325 6e20 746f 6620 756f 646e 0a21 0000     %s not found!...
 801a0c0:	7325 3c20 4944 3e52 0a0d 0000 7325 5b20     %s <DIR>....%s [
 801a0d0:	6425 6220 7479 7365 0d5d 000a 6973 657a     %d bytes]...size
 801a0e0:	6620 6c69 2065 6425 000a 0000 003e 0000      file %d....>...
 801a0f0:	0077 0000 7325 6620 756f 646e 0a21 0000     w...%s found!...
 801a100:	6964 2072 6f66 6e75 2064 7325 000a 0000     dir found %s....
 801a110:	6966 656c 6620 756f 646e 2520 0a73 0000     file found %s...
 801a120:	6966 656c 3a20 2520 0a73 0000 7265 6f72     file : %s...erro
 801a130:	2072 6f6c 6461 6e69 2067 6c65 2066 7270     r loading elf pr
 801a140:	636f 7365 2073 2520 2064 7325 000a 0000     ocess  %d %s....
 801a150:	7378 2068 2024 0000 7953 746e 7861 6520     xsh $ ..Syntax e
 801a160:	7272 726f 000a 0000 6f63 6d6d 6e61 2064     rror....command 
 801a170:	7325 6e20 746f 6620 756f 646e 000a 0000     %s not found....
 801a180:	7266 6565 0020 0000 7563 7272 0020 0000     free ...curr ...
 801a190:	6572 6461 0079 0000 6572 7663 0020 0000     ready...recv ...
 801a1a0:	6c73 6565 0070 0000 7573 7073 0020 0000     sleep...susp ...
 801a1b0:	6177 7469 0020 0000 7265 6f72 2072 736d     wait ...error ms
 801a1c0:	5f63 6567 6474 7365 0a63 0000 7265 6f72     c_getdesc...erro
 801a1d0:	2072 736d 5f63 6567 6474 7365 2063 0a32     r msc_getdesc 2.
 801a1e0:	0000 0000 7265 6f72 2072 736d 5f63 6f63     ....error msc_co
 801a1f0:	746e 6f72 0a6c 0000 4146 3354 0032 0000     ntrol...FAT32...
 801a200:	4146 3154 0036 0000 4146 2054 6564 6174     FAT16...FAT deta
 801a210:	6c69 3a73 0a0d 0000 5420 7079 2065 253d     ils:.... Type =%
 801a220:	0073 0000 5220 6f6f 2074 6944 2072 6946     s... Root Dir Fi
 801a230:	7372 2074 6c43 7375 6574 2072 203d 7825     rst Cluster = %x
 801a240:	0a0d 0000 4620 5441 4220 6765 6e69 4c20     .... FAT Begin L
 801a250:	4142 3d20 3020 2578 0d78 000a 4320 756c     BA = 0x%x... Clu
 801a260:	7473 7265 4220 6765 6e69 4c20 4142 3d20     ster Begin LBA =
 801a270:	3020 2578 0d78 000a 5320 6365 6f74 7372      0x%x... Sectors
 801a280:	5020 7265 4320 756c 7473 7265 3d20 2520      Per Cluster = %
 801a290:	0d64 000a 4146 5f54 5346 203a 7245 6f72     d...FAT_FS: Erro
 801a2a0:	2072 6f63 6c75 2064 6f6e 2074 6f6c 6461     r could not load
 801a2b0:	4620 5441 6420 7465 6961 736c 2820 6425      FAT details (%d
 801a2c0:	2129 0a0d 0000 0000 0a0d 6944 6572 7463     )!........Direct
 801a2d0:	726f 2079 7325 0a0d 0000 0000 6c69 6564     ory %s......ilde
 801a2e0:	7220 6e75 696e 676e 2e2e 000a 7263 6165      running....crea
 801a2f0:	6574 6520 7272 726f 6d20 6c61 6f6c 0a63     te error malloc.
 801a300:	0000 0000 6c62 6e69 006b 0000 7375 0072     ....blink...usr.
 801a310:	6c69 6564 6e20 6c75 706c 2e2e 000a 0000     ilde nullp......
 801a320:	756e 6c6c 0070 0000 3031 303a 3a30 3935     nullp...10:00:59
 801a330:	0000 0000 634f 2074 3232 3220 3230 0034     ....Oct 22 2024.
 801a340:	7542 6c69 2064 6164 6574 203a 7325 2520     Build date: %s %
 801a350:	0a73 000a 7973 6373 6c61 206c 6f6e 6920     s...syscall no i
 801a360:	706d 656c 656d 746e 202c 6425 000a 0000     mplement, %d....
 801a370:	6873 6c65 006c 0000 3125 6430 6220 7479     shell...%10d byt
 801a380:	7365 6f20 2066 7266 6565 6d20 6d65 726f     es of free memor
 801a390:	2e79 2020 7246 6565 6c20 7369 3a74 000a     y.  Free list:..
 801a3a0:	2020 2020 2020 2020 2020 5b20 7830 3025                [0x%0
 801a3b0:	5838 7420 206f 7830 3025 5838 0a5d 0000     8X to 0x%08X]...
 801a3c0:	5245 4f52 3a52 4620 6961 656c 2064 6f74     ERROR: Failed to
 801a3d0:	6920 696e 2074 6966 656c 7320 7379 6574      init file syste
 801a3e0:	0a6d 0000 6c62 6e69 206b 000a 0a0a 700d     m...blink .....p
 801a3f0:	6e61 6369 203a 7325 0a0a 0000               anic: %s....
